---
triple:          'arm64-apple-darwin'
binary-path:     '/Users/thomaszeller/Desktop/SnakeBR/src/cpp/main'
relocations:
  - { offsetInCU: 0x44, offset: 0x44, size: 0x8, addend: 0x0, symName: __ZN5EigenL4lastE, symObjAddr: 0x311E88, symBinAddr: 0x100044028, symSize: 0x0 }
  - { offsetInCU: 0x72D, offset: 0x72D, size: 0x8, addend: 0x0, symName: __ZN5Eigen8internal20manage_caching_sizesENS_6ActionEPlS2_S2_, symObjAddr: 0x13758, symBinAddr: 0x100015D00, symSize: 0x138 }
  - { offsetInCU: 0x752, offset: 0x752, size: 0x8, addend: 0x0, symName: __ZZN5Eigen8internal20manage_caching_sizesENS_6ActionEPlS2_S2_E12m_cacheSizes, symObjAddr: 0x2CB38, symBinAddr: 0x100044000, symSize: 0x0 }
  - { offsetInCU: 0x551B, offset: 0x551B, size: 0x8, addend: 0x0, symName: __ZN5Eigen8internal37evaluateProductBlockingSizesHeuristicIddLi1ElEEvRT2_S3_S3_S2_, symObjAddr: 0x12F68, symBinAddr: 0x100015510, symSize: 0x7F0 }
  - { offsetInCU: 0x85C4, offset: 0x85C4, size: 0x8, addend: 0x0, symName: __ZN5Eigen8internal14pldexp_genericI19__simd128_float64_tEET_RKS3_S5_, symObjAddr: 0x2119C, symBinAddr: 0x100023744, symSize: 0x17C }
  - { offsetInCU: 0xBE46, offset: 0xBE46, size: 0x8, addend: 0x0, symName: __ZN5Eigen8internal31conditional_aligned_delete_autoIdLb1EEEvPT_m, symObjAddr: 0x3BDC, symBinAddr: 0x100006184, symSize: 0x28 }
  - { offsetInCU: 0xBE92, offset: 0xBE92, size: 0x8, addend: 0x0, symName: __ZN5Eigen8internal24conditional_aligned_freeILb1EEEvPv, symObjAddr: 0x3C04, symBinAddr: 0x1000061AC, symSize: 0x24 }
  - { offsetInCU: 0xBEC6, offset: 0xBEC6, size: 0x8, addend: 0x0, symName: __ZN5Eigen8internal12aligned_freeEPv, symObjAddr: 0x3C28, symBinAddr: 0x1000061D0, symSize: 0x24 }
  - { offsetInCU: 0xBF52, offset: 0xBF52, size: 0x8, addend: 0x0, symName: __ZN5Eigen8internal19throw_std_bad_allocEv, symObjAddr: 0x4F0C, symBinAddr: 0x1000074B4, symSize: 0x34 }
  - { offsetInCU: 0xBF8E, offset: 0xBF8E, size: 0x8, addend: 0x0, symName: __ZN5Eigen8internal28conditional_aligned_new_autoIdLb1EEEPT_m, symObjAddr: 0x4FF4, symBinAddr: 0x10000759C, symSize: 0x84 }
  - { offsetInCU: 0xBFFC, offset: 0xBFFC, size: 0x8, addend: 0x0, symName: __ZN5Eigen8internal26conditional_aligned_mallocILb1EEEPvm, symObjAddr: 0x5078, symBinAddr: 0x100007620, symSize: 0x24 }
  - { offsetInCU: 0xC032, offset: 0xC032, size: 0x8, addend: 0x0, symName: __ZN5Eigen8internal14aligned_mallocEm, symObjAddr: 0x509C, symBinAddr: 0x100007644, symSize: 0xDC }
  - { offsetInCU: 0xC073, offset: 0xC073, size: 0x8, addend: 0x0, symName: __ZN5Eigen8internal28check_that_malloc_is_allowedEv, symObjAddr: 0x5178, symBinAddr: 0x100007720, symSize: 0x4 }
  - { offsetInCU: 0xC08C, offset: 0xC08C, size: 0x8, addend: 0x0, symName: __ZN5Eigen8internal24call_assignment_no_aliasINS_6MatrixIdLin1ELin1ELi0ELin1ELin1EEENS_13CwiseBinaryOpINS0_13scalar_sum_opIddEEKNS_7ProductIS3_S3_Li0EEEKS3_EENS0_9assign_opIddEEEEvRT_RKT0_RKT1_, symObjAddr: 0x517C, symBinAddr: 0x100007724, symSize: 0x3C }
  - { offsetInCU: 0xC164, offset: 0xC164, size: 0x8, addend: 0x0, symName: __ZN5Eigen8internal18check_for_aliasingINS_6MatrixIdLin1ELin1ELi0ELin1ELin1EEENS_13CwiseBinaryOpINS0_13scalar_sum_opIddEEKNS_7ProductIS3_S3_Li0EEEKS3_EEEEvRKT_RKT0_, symObjAddr: 0x5238, symBinAddr: 0x1000077E0, symSize: 0x60 }
  - { offsetInCU: 0xC1AF, offset: 0xC1AF, size: 0x8, addend: 0x0, symName: __ZN5Eigen8internal26call_dense_assignment_loopINS_6MatrixIdLin1ELin1ELi0ELin1ELin1EEENS_13CwiseBinaryOpINS0_13scalar_sum_opIddEEKNS_7ProductIS3_S3_Li0EEEKS3_EENS0_9assign_opIddEEEEvRT_RKT0_RKT1_, symObjAddr: 0x5298, symBinAddr: 0x100007840, symSize: 0xE0 }
  - { offsetInCU: 0xC2A2, offset: 0xC2A2, size: 0x8, addend: 0x0, symName: __ZN5Eigen8internal17resize_if_allowedINS_6MatrixIdLin1ELin1ELi0ELin1ELin1EEENS_13CwiseBinaryOpINS0_13scalar_sum_opIddEEKNS_7ProductIS3_S3_Li0EEEKS3_EEddEEvRT_RKT0_RKNS0_9assign_opIT1_T2_EE, symObjAddr: 0x53C0, symBinAddr: 0x100007968, symSize: 0xF8 }
  - { offsetInCU: 0xC614, offset: 0xC614, size: 0x8, addend: 0x0, symName: __ZN5Eigen8internal22ignore_unused_variableIdEEvRKT_, symObjAddr: 0x62E8, symBinAddr: 0x100008890, symSize: 0x10 }
  - { offsetInCU: 0xC643, offset: 0xC643, size: 0x8, addend: 0x0, symName: __ZN5Eigen8internal42call_restricted_packet_assignment_no_aliasINS_6MatrixIdLin1ELin1ELi0ELin1ELin1EEENS_7ProductIS3_S3_Li1EEENS0_9assign_opIddEEEEvRT_RKT0_RKT1_, symObjAddr: 0x62F8, symBinAddr: 0x1000088A0, symSize: 0xE0 }
  - { offsetInCU: 0xC6F8, offset: 0xC6F8, size: 0x8, addend: 0x0, symName: __ZN5Eigen8internal17resize_if_allowedINS_6MatrixIdLin1ELin1ELi0ELin1ELin1EEENS_7ProductIS3_S3_Li1EEEddEEvRT_RKT0_RKNS0_9assign_opIT1_T2_EE, symObjAddr: 0x6458, symBinAddr: 0x100008A00, symSize: 0xF8 }
  - { offsetInCU: 0xCE18, offset: 0xCE18, size: 0x8, addend: 0x0, symName: __ZN5Eigen8internal6pstoreId19__simd128_float64_tEEvPT_RKT0_, symObjAddr: 0x913C, symBinAddr: 0x10000B6E4, symSize: 0x2C }
  - { offsetInCU: 0xCEEF, offset: 0xCEEF, size: 0x8, addend: 0x0, symName: __ZN5Eigen8internal5pset1I19__simd128_float64_tEET_RKNS0_15unpacket_traitsIS3_E4typeE, symObjAddr: 0x9230, symBinAddr: 0x10000B7D8, symSize: 0x44 }
  - { offsetInCU: 0xCF26, offset: 0xCF26, size: 0x8, addend: 0x0, symName: __ZN5Eigen8internal5pmaddI19__simd128_float64_tEET_RKS3_S5_S5_, symObjAddr: 0x9274, symBinAddr: 0x10000B81C, symSize: 0x54 }
  - { offsetInCU: 0xCFD8, offset: 0xCFD8, size: 0x8, addend: 0x0, symName: __ZN5Eigen8internal6ploaduI19__simd128_float64_tEET_PKNS0_15unpacket_traitsIS3_E4typeE, symObjAddr: 0x9384, symBinAddr: 0x10000B92C, symSize: 0x28 }
  - { offsetInCU: 0xD02C, offset: 0xD02C, size: 0x8, addend: 0x0, symName: __ZN5Eigen8internal15call_assignmentINS_6MatrixIdLin1ELin1ELi0ELin1ELin1EEENS_14CwiseNullaryOpINS0_18scalar_constant_opIdEES3_EEEEvRT_RKT0_, symObjAddr: 0x99F8, symBinAddr: 0x10000BFA0, symSize: 0x50 }
  - { offsetInCU: 0xD077, offset: 0xD077, size: 0x8, addend: 0x0, symName: __ZN5Eigen8internal15call_assignmentINS_6MatrixIdLin1ELin1ELi0ELin1ELin1EEENS_14CwiseNullaryOpINS0_18scalar_constant_opIdEES3_EENS0_9assign_opIddEEEEvRT_RKT0_RKT1_NS0_9enable_ifIXntsr25evaluator_assume_aliasingISC_EE5valueEPvE4typeE, symObjAddr: 0x9A5C, symBinAddr: 0x10000C004, symSize: 0x38 }
  - { offsetInCU: 0xD0E5, offset: 0xD0E5, size: 0x8, addend: 0x0, symName: __ZN5Eigen8internal24call_assignment_no_aliasINS_6MatrixIdLin1ELin1ELi0ELin1ELin1EEENS_14CwiseNullaryOpINS0_18scalar_constant_opIdEES3_EENS0_9assign_opIddEEEEvRT_RKT0_RKT1_, symObjAddr: 0x9A94, symBinAddr: 0x10000C03C, symSize: 0x3C }
  - { offsetInCU: 0xD1B3, offset: 0xD1B3, size: 0x8, addend: 0x0, symName: __ZN5Eigen8internal18check_for_aliasingINS_6MatrixIdLin1ELin1ELi0ELin1ELin1EEENS_14CwiseNullaryOpINS0_18scalar_constant_opIdEES3_EEEEvRKT_RKT0_, symObjAddr: 0x9B10, symBinAddr: 0x10000C0B8, symSize: 0x60 }
  - { offsetInCU: 0xD1FE, offset: 0xD1FE, size: 0x8, addend: 0x0, symName: __ZN5Eigen8internal26call_dense_assignment_loopINS_6MatrixIdLin1ELin1ELi0ELin1ELin1EEEEEvRT_RKNS_14CwiseNullaryOpINS0_18scalar_constant_opINS4_6ScalarEEES4_EERKNS0_9assign_opIS8_S8_EE, symObjAddr: 0x9B70, symBinAddr: 0x10000C118, symSize: 0x6C }
  - { offsetInCU: 0xD28D, offset: 0xD28D, size: 0x8, addend: 0x0, symName: __ZN5Eigen8internal17resize_if_allowedINS_6MatrixIdLin1ELin1ELi0ELin1ELin1EEENS_14CwiseNullaryOpINS0_18scalar_constant_opIdEES3_EEddEEvRT_RKT0_RKNS0_9assign_opIT1_T2_EE, symObjAddr: 0x9BF0, symBinAddr: 0x10000C198, symSize: 0xF8 }
  - { offsetInCU: 0xDA84, offset: 0xDA84, size: 0x8, addend: 0x0, symName: __ZN5Eigen8internal16parallelize_gemmILb1ENS0_12gemm_functorIdlNS0_29general_matrix_matrix_productIldLi0ELb0EdLi0ELb0ELi0ELi1EEENS_6MatrixIdLin1ELin1ELi0ELin1ELin1EEES6_S6_NS0_19gemm_blocking_spaceILi0EddLin1ELin1ELin1ELi1ELb0EEEEElEEvRKT0_T1_SD_SD_b, symObjAddr: 0xA118, symBinAddr: 0x10000C6C0, symSize: 0x64 }
  - { offsetInCU: 0xE210, offset: 0xE210, size: 0x8, addend: 0x0, symName: __ZN5Eigen8internal4pmulIdEET_RKS2_S4_, symObjAddr: 0xB9C8, symBinAddr: 0x10000DF70, symSize: 0x28 }
  - { offsetInCU: 0xE33E, offset: 0xE33E, size: 0x8, addend: 0x0, symName: __ZN5Eigen8internal22ignore_unused_variableIlEEvRKT_, symObjAddr: 0xD78C, symBinAddr: 0x10000FD34, symSize: 0x10 }
  - { offsetInCU: 0xE3E0, offset: 0xE3E0, size: 0x8, addend: 0x0, symName: __ZN5Eigen8internal7pstoreuId19__simd128_float64_tEEvPT_RKT0_, symObjAddr: 0xD808, symBinAddr: 0x10000FDB0, symSize: 0x2C }
  - { offsetInCU: 0xEBFE, offset: 0xEBFE, size: 0x8, addend: 0x0, symName: __ZN5Eigen8internal15call_assignmentINS_3MapINS_6MatrixIdLin1ELi1ELi0ELin1ELi1EEELi0ENS_6StrideILi0ELi0EEEEENS_9TransposeIKNS_5BlockIKNS3_IdLin1ELin1ELi0ELin1ELin1EEELi1ELin1ELb0EEEEEEEvRT_RKT0_, symObjAddr: 0x11E0C, symBinAddr: 0x1000143B4, symSize: 0x50 }
  - { offsetInCU: 0xEC49, offset: 0xEC49, size: 0x8, addend: 0x0, symName: __ZN5Eigen8internal15call_assignmentINS_3MapINS_6MatrixIdLin1ELi1ELi0ELin1ELi1EEELi0ENS_6StrideILi0ELi0EEEEENS_9TransposeIKNS_5BlockIKNS3_IdLin1ELin1ELi0ELin1ELin1EEELi1ELin1ELb0EEEEENS0_9assign_opIddEEEEvRT_RKT0_RKT1_NS0_9enable_ifIXntsr25evaluator_assume_aliasingISJ_EE5valueEPvE4typeE, symObjAddr: 0x11E70, symBinAddr: 0x100014418, symSize: 0x38 }
  - { offsetInCU: 0xECB7, offset: 0xECB7, size: 0x8, addend: 0x0, symName: __ZN5Eigen8internal24call_assignment_no_aliasINS_3MapINS_6MatrixIdLin1ELi1ELi0ELin1ELi1EEELi0ENS_6StrideILi0ELi0EEEEENS_9TransposeIKNS_5BlockIKNS3_IdLin1ELin1ELi0ELin1ELin1EEELi1ELin1ELb0EEEEENS0_9assign_opIddEEEEvRT_RKT0_RKT1_, symObjAddr: 0x11EA8, symBinAddr: 0x100014450, symSize: 0x3C }
  - { offsetInCU: 0xED85, offset: 0xED85, size: 0x8, addend: 0x0, symName: __ZN5Eigen8internal18check_for_aliasingINS_3MapINS_6MatrixIdLin1ELi1ELi0ELin1ELi1EEELi0ENS_6StrideILi0ELi0EEEEENS_9TransposeIKNS_5BlockIKNS3_IdLin1ELin1ELi0ELin1ELin1EEELi1ELin1ELb0EEEEEEEvRKT_RKT0_, symObjAddr: 0x11F24, symBinAddr: 0x1000144CC, symSize: 0x14 }
  - { offsetInCU: 0xEDD0, offset: 0xEDD0, size: 0x8, addend: 0x0, symName: __ZN5Eigen8internal26call_dense_assignment_loopINS_3MapINS_6MatrixIdLin1ELi1ELi0ELin1ELi1EEELi0ENS_6StrideILi0ELi0EEEEENS_9TransposeIKNS_5BlockIKNS3_IdLin1ELin1ELi0ELin1ELin1EEELi1ELin1ELb0EEEEENS0_9assign_opIddEEEEvRT_RKT0_RKT1_, symObjAddr: 0x11F38, symBinAddr: 0x1000144E0, symSize: 0xE0 }
  - { offsetInCU: 0xEE84, offset: 0xEE84, size: 0x8, addend: 0x0, symName: __ZN5Eigen8internal17resize_if_allowedINS_3MapINS_6MatrixIdLin1ELi1ELi0ELin1ELi1EEELi0ENS_6StrideILi0ELi0EEEEENS_9TransposeIKNS_5BlockIKNS3_IdLin1ELin1ELi0ELin1ELin1EEELi1ELin1ELb0EEEEEddEEvRT_RKT0_RKNS0_9assign_opIT1_T2_EE, symObjAddr: 0x1204C, symBinAddr: 0x1000145F4, symSize: 0xF8 }
  - { offsetInCU: 0xF1AC, offset: 0xF1AC, size: 0x8, addend: 0x0, symName: __ZN5Eigen8internal6preduxI19__simd128_float64_tEENS0_15unpacket_traitsIT_E4typeERKS4_, symObjAddr: 0x127E0, symBinAddr: 0x100014D88, symSize: 0x50 }
  - { offsetInCU: 0xF1E3, offset: 0xF1E3, size: 0x8, addend: 0x0, symName: __ZN5Eigen8internal27computeProductBlockingSizesIddLi1ElEEvRT2_S3_S3_S2_, symObjAddr: 0x12ECC, symBinAddr: 0x100015474, symSize: 0x58 }
  - { offsetInCU: 0xF25F, offset: 0xF25F, size: 0x8, addend: 0x0, symName: __ZN5Eigen8internal24useSpecificBlockingSizesIlEEbRT_S3_S3_, symObjAddr: 0x12F24, symBinAddr: 0x1000154CC, symSize: 0x44 }
  - { offsetInCU: 0xF2B4, offset: 0xF2B4, size: 0x8, addend: 0x0, symName: __ZN5Eigen8internal15queryCacheSizesERiS1_S1_, symObjAddr: 0x1397C, symBinAddr: 0x100015F24, symSize: 0x34 }
  - { offsetInCU: 0xF2FC, offset: 0xF2FC, size: 0x8, addend: 0x0, symName: __ZN5Eigen8internal27manage_caching_sizes_helperEll, symObjAddr: 0x139B0, symBinAddr: 0x100015F58, symSize: 0x44 }
  - { offsetInCU: 0xF336, offset: 0xF336, size: 0x8, addend: 0x0, symName: __ZN5Eigen8internal22ignore_unused_variableIbEEvRKT_, symObjAddr: 0x13A74, symBinAddr: 0x10001601C, symSize: 0x10 }
  - { offsetInCU: 0xF365, offset: 0xF365, size: 0x8, addend: 0x0, symName: __ZN5Eigen8internal22ignore_unused_variableIPNS0_16GemmParallelInfoIlEEEEvRKT_, symObjAddr: 0x148A8, symBinAddr: 0x100016E50, symSize: 0x10 }
  - { offsetInCU: 0xF3D6, offset: 0xF3D6, size: 0x8, addend: 0x0, symName: __ZN5Eigen8internal8prefetchIdEEvPKT_, symObjAddr: 0x1AB54, symBinAddr: 0x10001D0FC, symSize: 0x18 }
  - { offsetInCU: 0xF7BF, offset: 0xF7BF, size: 0x8, addend: 0x0, symName: __ZN5Eigen8internal5ploadI19__simd128_float64_tEET_PKNS0_15unpacket_traitsIS3_E4typeE, symObjAddr: 0x1BFEC, symBinAddr: 0x10001E594, symSize: 0x28 }
  - { offsetInCU: 0xF813, offset: 0xF813, size: 0x8, addend: 0x0, symName: __ZN5Eigen8internal4paddI19__simd128_float64_tEET_RKS3_S5_, symObjAddr: 0x1C2D8, symBinAddr: 0x10001E880, symSize: 0x40 }
  - { offsetInCU: 0xF859, offset: 0xF859, size: 0x8, addend: 0x0, symName: __ZN5Eigen8internal5pmaddIdEET_RKS2_S4_S4_, symObjAddr: 0x1C34C, symBinAddr: 0x10001E8F4, symSize: 0x40 }
  - { offsetInCU: 0xF8AE, offset: 0xF8AE, size: 0x8, addend: 0x0, symName: __ZN5Eigen8internal4paddIdEET_RKS2_S4_, symObjAddr: 0x1C38C, symBinAddr: 0x10001E934, symSize: 0x28 }
  - { offsetInCU: 0xF8F1, offset: 0xF8F1, size: 0x8, addend: 0x0, symName: __ZN5Eigen8internal14aligned_deleteIdEEvPT_m, symObjAddr: 0x1C470, symBinAddr: 0x10001EA18, symSize: 0x34 }
  - { offsetInCU: 0xF933, offset: 0xF933, size: 0x8, addend: 0x0, symName: __ZN5Eigen8internal26destruct_elements_of_arrayIdEEvPT_m, symObjAddr: 0x1C4A4, symBinAddr: 0x10001EA4C, symSize: 0x54 }
  - { offsetInCU: 0xFBD6, offset: 0xFBD6, size: 0x8, addend: 0x0, symName: __ZN5Eigen8internal24call_assignment_no_aliasINS_6MatrixIdLin1ELin1ELi0ELin1ELin1EEENS_13CwiseBinaryOpINS0_13scalar_max_opIddLi0EEEKS3_KNS_14CwiseNullaryOpINS0_18scalar_constant_opIdEES3_EEEENS0_9assign_opIddEEEEvRT_RKT0_RKT1_, symObjAddr: 0x1D198, symBinAddr: 0x10001F740, symSize: 0x3C }
  - { offsetInCU: 0xFCA4, offset: 0xFCA4, size: 0x8, addend: 0x0, symName: __ZN5Eigen8internal18check_for_aliasingINS_6MatrixIdLin1ELin1ELi0ELin1ELin1EEENS_13CwiseBinaryOpINS0_13scalar_max_opIddLi0EEEKS3_KNS_14CwiseNullaryOpINS0_18scalar_constant_opIdEES3_EEEEEEvRKT_RKT0_, symObjAddr: 0x1D214, symBinAddr: 0x10001F7BC, symSize: 0x60 }
  - { offsetInCU: 0xFCEF, offset: 0xFCEF, size: 0x8, addend: 0x0, symName: __ZN5Eigen8internal26call_dense_assignment_loopINS_6MatrixIdLin1ELin1ELi0ELin1ELin1EEENS_13CwiseBinaryOpINS0_13scalar_max_opIddLi0EEEKS3_KNS_14CwiseNullaryOpINS0_18scalar_constant_opIdEES3_EEEENS0_9assign_opIddEEEEvRT_RKT0_RKT1_, symObjAddr: 0x1D274, symBinAddr: 0x10001F81C, symSize: 0xD8 }
  - { offsetInCU: 0xFDE1, offset: 0xFDE1, size: 0x8, addend: 0x0, symName: __ZN5Eigen8internal17resize_if_allowedINS_6MatrixIdLin1ELin1ELi0ELin1ELin1EEENS_13CwiseBinaryOpINS0_13scalar_max_opIddLi0EEEKS3_KNS_14CwiseNullaryOpINS0_18scalar_constant_opIdEES3_EEEEddEEvRT_RKT0_RKNS0_9assign_opIT1_T2_EE, symObjAddr: 0x1D394, symBinAddr: 0x10001F93C, symSize: 0xF8 }
  - { offsetInCU: 0xFE67, offset: 0xFE67, size: 0x8, addend: 0x0, symName: __ZN5Eigen8internal4pmaxILi0E19__simd128_float64_tEET0_RKS3_S5_, symObjAddr: 0x1DAC8, symBinAddr: 0x100020070, symSize: 0x34 }
  - { offsetInCU: 0xFF30, offset: 0xFF30, size: 0x8, addend: 0x0, symName: __ZN5Eigen8internal4pmaxI19__simd128_float64_tEET_RKS3_S5_, symObjAddr: 0x1DB30, symBinAddr: 0x1000200D8, symSize: 0x40 }
  - { offsetInCU: 0xFF76, offset: 0xFF76, size: 0x8, addend: 0x0, symName: __ZN5Eigen8internal4pmaxILi0EdEET0_RKS2_S4_, symObjAddr: 0x1DCF8, symBinAddr: 0x1000202A0, symSize: 0x34 }
  - { offsetInCU: 0xFFC6, offset: 0xFFC6, size: 0x8, addend: 0x0, symName: __ZN5Eigen8internal4pmaxIdEET_RKS2_S4_, symObjAddr: 0x1DD60, symBinAddr: 0x100020308, symSize: 0x40 }
  - { offsetInCU: 0x10123, offset: 0x10123, size: 0x8, addend: 0x0, symName: __ZN5Eigen8internalL21first_default_alignedINS_3MapINS_5ArrayIdLin1ELi1ELi0ELin1ELi1EEELi0ENS_6StrideILi0ELi0EEEEEEElRKNS_9DenseBaseIT_EE, symObjAddr: 0x1ECAC, symBinAddr: 0x100021254, symSize: 0x24 }
  - { offsetInCU: 0x1015A, offset: 0x1015A, size: 0x8, addend: 0x0, symName: __ZN5Eigen8internalL13first_alignedILi16ENS_3MapINS_5ArrayIdLin1ELi1ELi0ELin1ELi1EEELi0ENS_6StrideILi0ELi0EEEEEEElRKNS_9DenseBaseIT0_EE, symObjAddr: 0x1ED94, symBinAddr: 0x10002133C, symSize: 0x28 }
  - { offsetInCU: 0x101D9, offset: 0x101D9, size: 0x8, addend: 0x0, symName: __ZN5Eigen8internal13first_alignedILi16EdlEET1_PKT0_S2_, symObjAddr: 0x1EDF8, symBinAddr: 0x1000213A0, symSize: 0xAC }
  - { offsetInCU: 0x1027C, offset: 0x1027C, size: 0x8, addend: 0x0, symName: __ZN5Eigen8internal10predux_maxILi0E19__simd128_float64_tEENS0_15unpacket_traitsIT0_E4typeERKS4_, symObjAddr: 0x1EEA4, symBinAddr: 0x10002144C, symSize: 0x2C }
  - { offsetInCU: 0x102BD, offset: 0x102BD, size: 0x8, addend: 0x0, symName: __ZN5Eigen8internal13predux_helperI19__simd128_float64_tPFdRKdS4_EEENS0_15unpacket_traitsIT_E4typeERKS8_T0_, symObjAddr: 0x1EED0, symBinAddr: 0x100021478, symSize: 0x118 }
  - { offsetInCU: 0x10371, offset: 0x10371, size: 0x8, addend: 0x0, symName: __ZN5Eigen8internal24call_assignment_no_aliasINS_5ArrayIdLin1ELi1ELi0ELin1ELi1EEENS_12CwiseUnaryOpINS0_13scalar_exp_opIdEEKNS_13CwiseBinaryOpINS0_20scalar_difference_opIddEEKNS_3MapIS3_Li0ENS_6StrideILi0ELi0EEEEEKNS_14CwiseNullaryOpINS0_18scalar_constant_opIdEEKS3_EEEEEENS0_9assign_opIddEEEEvRT_RKT0_RKT1_, symObjAddr: 0x1FD84, symBinAddr: 0x10002232C, symSize: 0x3C }
  - { offsetInCU: 0x1043F, offset: 0x1043F, size: 0x8, addend: 0x0, symName: __ZN5Eigen8internal18check_for_aliasingINS_5ArrayIdLin1ELi1ELi0ELin1ELi1EEENS_12CwiseUnaryOpINS0_13scalar_exp_opIdEEKNS_13CwiseBinaryOpINS0_20scalar_difference_opIddEEKNS_3MapIS3_Li0ENS_6StrideILi0ELi0EEEEEKNS_14CwiseNullaryOpINS0_18scalar_constant_opIdEEKS3_EEEEEEEEvRKT_RKT0_, symObjAddr: 0x1FE14, symBinAddr: 0x1000223BC, symSize: 0x14 }
  - { offsetInCU: 0x1048A, offset: 0x1048A, size: 0x8, addend: 0x0, symName: __ZN5Eigen8internal26call_dense_assignment_loopINS_5ArrayIdLin1ELi1ELi0ELin1ELi1EEENS_12CwiseUnaryOpINS0_13scalar_exp_opIdEEKNS_13CwiseBinaryOpINS0_20scalar_difference_opIddEEKNS_3MapIS3_Li0ENS_6StrideILi0ELi0EEEEEKNS_14CwiseNullaryOpINS0_18scalar_constant_opIdEEKS3_EEEEEENS0_9assign_opIddEEEEvRT_RKT0_RKT1_, symObjAddr: 0x1FE28, symBinAddr: 0x1000223D0, symSize: 0xE0 }
  - { offsetInCU: 0x1053F, offset: 0x1053F, size: 0x8, addend: 0x0, symName: __ZN5Eigen8internal17resize_if_allowedINS_5ArrayIdLin1ELi1ELi0ELin1ELi1EEENS_12CwiseUnaryOpINS0_13scalar_exp_opIdEEKNS_13CwiseBinaryOpINS0_20scalar_difference_opIddEEKNS_3MapIS3_Li0ENS_6StrideILi0ELi0EEEEEKNS_14CwiseNullaryOpINS0_18scalar_constant_opIdEEKS3_EEEEEEddEEvRT_RKT0_RKNS0_9assign_opIT1_T2_EE, symObjAddr: 0x1FF3C, symBinAddr: 0x1000224E4, symSize: 0xF8 }
  - { offsetInCU: 0x105C5, offset: 0x105C5, size: 0x8, addend: 0x0, symName: __ZN5Eigen8internal4pexpI19__simd128_float64_tEET_RKS3_, symObjAddr: 0x20C90, symBinAddr: 0x100023238, symSize: 0x28 }
  - { offsetInCU: 0x105FA, offset: 0x105FA, size: 0x8, addend: 0x0, symName: __ZN5Eigen8internal11pexp_doubleI19__simd128_float64_tEET_S3_, symObjAddr: 0x20CB8, symBinAddr: 0x100023260, symSize: 0x38C }
  - { offsetInCU: 0x1078E, offset: 0x1078E, size: 0x8, addend: 0x0, symName: __ZN5Eigen8internal4pminI19__simd128_float64_tEET_RKS3_S5_, symObjAddr: 0x21044, symBinAddr: 0x1000235EC, symSize: 0x40 }
  - { offsetInCU: 0x107D4, offset: 0x107D4, size: 0x8, addend: 0x0, symName: __ZN5Eigen8internal6pfloorI19__simd128_float64_tEET_RKS3_, symObjAddr: 0x21084, symBinAddr: 0x10002362C, symSize: 0x2C }
  - { offsetInCU: 0x1080B, offset: 0x1080B, size: 0x8, addend: 0x0, symName: __ZN5Eigen8internal4pmulI19__simd128_float64_tEET_RKS3_S5_, symObjAddr: 0x210B0, symBinAddr: 0x100023658, symSize: 0x40 }
  - { offsetInCU: 0x10851, offset: 0x10851, size: 0x8, addend: 0x0, symName: __ZN5Eigen8internal4psubI19__simd128_float64_tEET_RKS3_S5_, symObjAddr: 0x210F0, symBinAddr: 0x100023698, symSize: 0x40 }
  - { offsetInCU: 0x10897, offset: 0x10897, size: 0x8, addend: 0x0, symName: __ZN5Eigen8internal4pdivI19__simd128_float64_tEET_RKS3_S5_, symObjAddr: 0x21130, symBinAddr: 0x1000236D8, symSize: 0x40 }
  - { offsetInCU: 0x108DD, offset: 0x108DD, size: 0x8, addend: 0x0, symName: __ZN5Eigen8internal6pldexpI19__simd128_float64_tEET_RKS3_S5_, symObjAddr: 0x21170, symBinAddr: 0x100023718, symSize: 0x2C }
  - { offsetInCU: 0x10923, offset: 0x10923, size: 0x8, addend: 0x0, symName: __ZN5Eigen8internal5pset1I17__simd128_int64_tEET_RKNS0_15unpacket_traitsIS3_E4typeE, symObjAddr: 0x21318, symBinAddr: 0x1000238C0, symSize: 0x44 }
  - { offsetInCU: 0x1095A, offset: 0x1095A, size: 0x8, addend: 0x0, symName: __ZN5Eigen8internal5pcastI19__simd128_float64_t17__simd128_int64_tEET0_RKT_, symObjAddr: 0x2135C, symBinAddr: 0x100023904, symSize: 0x2C }
  - { offsetInCU: 0x1099A, offset: 0x1099A, size: 0x8, addend: 0x0, symName: __ZN5Eigen8internal7pnegateI19__simd128_float64_tEET_RKS3_, symObjAddr: 0x21388, symBinAddr: 0x100023930, symSize: 0x2C }
  - { offsetInCU: 0x109D1, offset: 0x109D1, size: 0x8, addend: 0x0, symName: __ZN5Eigen8internal23parithmetic_shift_rightILi2EEE17__simd128_int64_tS2_, symObjAddr: 0x213B4, symBinAddr: 0x10002395C, symSize: 0x30 }
  - { offsetInCU: 0x10A35, offset: 0x10A35, size: 0x8, addend: 0x0, symName: __ZN5Eigen8internal12preinterpretI19__simd128_float64_t17__simd128_int64_tEET_RKT0_, symObjAddr: 0x213E4, symBinAddr: 0x10002398C, symSize: 0x28 }
  - { offsetInCU: 0x10A75, offset: 0x10A75, size: 0x8, addend: 0x0, symName: __ZN5Eigen8internal19plogical_shift_leftILi52EEE17__simd128_int64_tS2_, symObjAddr: 0x2140C, symBinAddr: 0x1000239B4, symSize: 0x30 }
  - { offsetInCU: 0x10AD9, offset: 0x10AD9, size: 0x8, addend: 0x0, symName: __ZN5Eigen8internal4paddI17__simd128_int64_tEET_RKS3_S5_, symObjAddr: 0x2143C, symBinAddr: 0x1000239E4, symSize: 0x40 }
  - { offsetInCU: 0x10B1F, offset: 0x10B1F, size: 0x8, addend: 0x0, symName: __ZN5Eigen8internal4psubI17__simd128_int64_tEET_RKS3_S5_, symObjAddr: 0x2147C, symBinAddr: 0x100023A24, symSize: 0x40 }
  - { offsetInCU: 0x10C56, offset: 0x10C56, size: 0x8, addend: 0x0, symName: __ZN5Eigen8internalL21first_default_alignedINS_5ArrayIdLin1ELi1ELi0ELin1ELi1EEEEElRKNS_9DenseBaseIT_EE, symObjAddr: 0x220FC, symBinAddr: 0x1000246A4, symSize: 0x24 }
  - { offsetInCU: 0x10C8D, offset: 0x10C8D, size: 0x8, addend: 0x0, symName: __ZN5Eigen8internalL13first_alignedILi16ENS_5ArrayIdLin1ELi1ELi0ELin1ELi1EEEEElRKNS_9DenseBaseIT0_EE, symObjAddr: 0x221A8, symBinAddr: 0x100024750, symSize: 0x28 }
  - { offsetInCU: 0x10D0C, offset: 0x10D0C, size: 0x8, addend: 0x0, symName: __ZN5Eigen8internal24call_assignment_no_aliasINS_5ArrayIdLin1ELi1ELi0ELin1ELi1EEENS_13CwiseBinaryOpINS0_18scalar_quotient_opIddEEKS3_KNS_14CwiseNullaryOpINS0_18scalar_constant_opIdEES7_EEEENS0_9assign_opIddEEEEvRT_RKT0_RKT1_, symObjAddr: 0x22504, symBinAddr: 0x100024AAC, symSize: 0x3C }
  - { offsetInCU: 0x10DDA, offset: 0x10DDA, size: 0x8, addend: 0x0, symName: __ZN5Eigen8internal18check_for_aliasingINS_5ArrayIdLin1ELi1ELi0ELin1ELi1EEENS_13CwiseBinaryOpINS0_18scalar_quotient_opIddEEKS3_KNS_14CwiseNullaryOpINS0_18scalar_constant_opIdEES7_EEEEEEvRKT_RKT0_, symObjAddr: 0x22580, symBinAddr: 0x100024B28, symSize: 0x14 }
  - { offsetInCU: 0x10E25, offset: 0x10E25, size: 0x8, addend: 0x0, symName: __ZN5Eigen8internal26call_dense_assignment_loopINS_5ArrayIdLin1ELi1ELi0ELin1ELi1EEENS_13CwiseBinaryOpINS0_18scalar_quotient_opIddEEKS3_KNS_14CwiseNullaryOpINS0_18scalar_constant_opIdEES7_EEEENS0_9assign_opIddEEEEvRT_RKT0_RKT1_, symObjAddr: 0x22594, symBinAddr: 0x100024B3C, symSize: 0xD8 }
  - { offsetInCU: 0x10ED9, offset: 0x10ED9, size: 0x8, addend: 0x0, symName: __ZN5Eigen8internal17resize_if_allowedINS_5ArrayIdLin1ELi1ELi0ELin1ELi1EEENS_13CwiseBinaryOpINS0_18scalar_quotient_opIddEEKS3_KNS_14CwiseNullaryOpINS0_18scalar_constant_opIdEES7_EEEEddEEvRT_RKT0_RKNS0_9assign_opIT1_T2_EE, symObjAddr: 0x226A0, symBinAddr: 0x100024C48, symSize: 0xF8 }
  - { offsetInCU: 0x10F5F, offset: 0x10F5F, size: 0x8, addend: 0x0, symName: __ZN5Eigen8internal24call_assignment_no_aliasINS_6MatrixIdLin1ELin1ELi0ELin1ELin1EEENS_5ArrayIdLin1ELi1ELi0ELin1ELi1EEENS0_9assign_opIddEEEEvRT_RKT0_RKT1_, symObjAddr: 0x23194, symBinAddr: 0x10002573C, symSize: 0x3C }
  - { offsetInCU: 0x1102D, offset: 0x1102D, size: 0x8, addend: 0x0, symName: __ZN5Eigen8internal18check_for_aliasingINS_6MatrixIdLin1ELin1ELi0ELin1ELin1EEENS_5ArrayIdLin1ELi1ELi0ELin1ELi1EEEEEvRKT_RKT0_, symObjAddr: 0x23210, symBinAddr: 0x1000257B8, symSize: 0x60 }
  - { offsetInCU: 0x11078, offset: 0x11078, size: 0x8, addend: 0x0, symName: __ZN5Eigen8internal26call_dense_assignment_loopINS_6MatrixIdLin1ELin1ELi0ELin1ELin1EEENS_5ArrayIdLin1ELi1ELi0ELin1ELi1EEENS0_9assign_opIddEEEEvRT_RKT0_RKT1_, symObjAddr: 0x23270, symBinAddr: 0x100025818, symSize: 0xD8 }
  - { offsetInCU: 0x1116A, offset: 0x1116A, size: 0x8, addend: 0x0, symName: __ZN5Eigen8internal17resize_if_allowedINS_6MatrixIdLin1ELin1ELi0ELin1ELin1EEENS_5ArrayIdLin1ELi1ELi0ELin1ELi1EEEddEEvRT_RKT0_RKNS0_9assign_opIT1_T2_EE, symObjAddr: 0x2335C, symBinAddr: 0x100025904, symSize: 0xF8 }
  - { offsetInCU: 0x111F0, offset: 0x111F0, size: 0x8, addend: 0x0, symName: __ZN5Eigen8internal24call_assignment_no_aliasINS_5ArrayIdLin1ELi1ELi0ELin1ELi1EEENS_6MatrixIdLin1ELin1ELi0ELin1ELin1EEENS0_9assign_opIddEEEEvRT_RKT0_RKT1_, symObjAddr: 0x23988, symBinAddr: 0x100025F30, symSize: 0x3C }
  - { offsetInCU: 0x112BE, offset: 0x112BE, size: 0x8, addend: 0x0, symName: __ZN5Eigen8internal18check_for_aliasingINS_5ArrayIdLin1ELi1ELi0ELin1ELi1EEENS_6MatrixIdLin1ELin1ELi0ELin1ELin1EEEEEvRKT_RKT0_, symObjAddr: 0x23A04, symBinAddr: 0x100025FAC, symSize: 0x14 }
  - { offsetInCU: 0x11309, offset: 0x11309, size: 0x8, addend: 0x0, symName: __ZN5Eigen8internal26call_dense_assignment_loopINS_5ArrayIdLin1ELi1ELi0ELin1ELi1EEENS_6MatrixIdLin1ELin1ELi0ELin1ELin1EEENS0_9assign_opIddEEEEvRT_RKT0_RKT1_, symObjAddr: 0x23A18, symBinAddr: 0x100025FC0, symSize: 0xD8 }
  - { offsetInCU: 0x113BD, offset: 0x113BD, size: 0x8, addend: 0x0, symName: __ZN5Eigen8internal17resize_if_allowedINS_5ArrayIdLin1ELi1ELi0ELin1ELi1EEENS_6MatrixIdLin1ELin1ELi0ELin1ELin1EEEddEEvRT_RKT0_RKNS0_9assign_opIT1_T2_EE, symObjAddr: 0x23AF0, symBinAddr: 0x100026098, symSize: 0xF8 }
  - { offsetInCU: 0x11443, offset: 0x11443, size: 0x8, addend: 0x0, symName: __ZN5Eigen8internal10smart_copyIdEEvPKT_S4_PS2_, symObjAddr: 0x24DF4, symBinAddr: 0x10002739C, symSize: 0x34 }
  - { offsetInCU: 0x116B6, offset: 0x116B6, size: 0x8, addend: 0x0, symName: '__ZN5Eigen8internal24call_assignment_no_aliasINS_6MatrixIdLin1ELin1ELi0ELin1ELin1EEENS_12CwiseUnaryOpIZN8AI_Snake16set_child_matrixES3_S3_RS3_E3$_0KNS_14CwiseNullaryOpINS0_16scalar_random_opIdEES3_EEEENS0_9assign_opIddEEEEvRT_RKT0_RKT1_', symObjAddr: 0x25D24, symBinAddr: 0x1000282CC, symSize: 0x3C }
  - { offsetInCU: 0x11784, offset: 0x11784, size: 0x8, addend: 0x0, symName: '__ZN5Eigen8internal18check_for_aliasingINS_6MatrixIdLin1ELin1ELi0ELin1ELin1EEENS_12CwiseUnaryOpIZN8AI_Snake16set_child_matrixES3_S3_RS3_E3$_0KNS_14CwiseNullaryOpINS0_16scalar_random_opIdEES3_EEEEEEvRKT_RKT0_', symObjAddr: 0x25DA0, symBinAddr: 0x100028348, symSize: 0x60 }
  - { offsetInCU: 0x117CF, offset: 0x117CF, size: 0x8, addend: 0x0, symName: '__ZN5Eigen8internal26call_dense_assignment_loopINS_6MatrixIdLin1ELin1ELi0ELin1ELin1EEENS_12CwiseUnaryOpIZN8AI_Snake16set_child_matrixES3_S3_RS3_E3$_0KNS_14CwiseNullaryOpINS0_16scalar_random_opIdEES3_EEEENS0_9assign_opIddEEEEvRT_RKT0_RKT1_', symObjAddr: 0x25E00, symBinAddr: 0x1000283A8, symSize: 0xD8 }
  - { offsetInCU: 0x11BE1, offset: 0x11BE1, size: 0x8, addend: 0x0, symName: '__ZN5Eigen8internal17resize_if_allowedINS_6MatrixIdLin1ELin1ELi0ELin1ELin1EEENS_12CwiseUnaryOpIZN8AI_Snake16set_child_matrixES3_S3_RS3_E3$_0KNS_14CwiseNullaryOpINS0_16scalar_random_opIdEES3_EEEEddEEvRT_RKT0_RKNS0_9assign_opIT1_T2_EE', symObjAddr: 0x25F20, symBinAddr: 0x1000284C8, symSize: 0xF8 }
  - { offsetInCU: 0x11EB9, offset: 0x11EB9, size: 0x8, addend: 0x0, symName: __ZN5Eigen8internal6randomIdEENS0_13random_retvalINS0_36global_math_functions_filtering_baseIT_vE4typeEE4typeEv, symObjAddr: 0x2656C, symBinAddr: 0x100028B14, symSize: 0x14 }
  - { offsetInCU: 0x11F34, offset: 0x11F34, size: 0x8, addend: 0x0, symName: __ZN5Eigen8internal15call_assignmentINS_6MatrixIdLin1ELin1ELi0ELin1ELin1EEENS_13CwiseBinaryOpINS0_13scalar_sum_opIddEEKNS4_INS0_17scalar_product_opIddEEKS3_S9_EEKNS4_IS8_KNS4_INS0_20scalar_difference_opIddEEKNS_14CwiseNullaryOpINS0_18scalar_constant_opIdEES3_EES9_EES9_EEEEEEvRT_RKT0_, symObjAddr: 0x2710C, symBinAddr: 0x1000296B4, symSize: 0x50 }
  - { offsetInCU: 0x11F7F, offset: 0x11F7F, size: 0x8, addend: 0x0, symName: __ZN5Eigen8internal15call_assignmentINS_6MatrixIdLin1ELin1ELi0ELin1ELin1EEENS_13CwiseBinaryOpINS0_13scalar_sum_opIddEEKNS4_INS0_17scalar_product_opIddEEKS3_S9_EEKNS4_IS8_KNS4_INS0_20scalar_difference_opIddEEKNS_14CwiseNullaryOpINS0_18scalar_constant_opIdEES3_EES9_EES9_EEEENS0_9assign_opIddEEEEvRT_RKT0_RKT1_NS0_9enable_ifIXntsr25evaluator_assume_aliasingISS_EE5valueEPvE4typeE, symObjAddr: 0x27170, symBinAddr: 0x100029718, symSize: 0x38 }
  - { offsetInCU: 0x11FED, offset: 0x11FED, size: 0x8, addend: 0x0, symName: __ZN5Eigen8internal24call_assignment_no_aliasINS_6MatrixIdLin1ELin1ELi0ELin1ELin1EEENS_13CwiseBinaryOpINS0_13scalar_sum_opIddEEKNS4_INS0_17scalar_product_opIddEEKS3_S9_EEKNS4_IS8_KNS4_INS0_20scalar_difference_opIddEEKNS_14CwiseNullaryOpINS0_18scalar_constant_opIdEES3_EES9_EES9_EEEENS0_9assign_opIddEEEEvRT_RKT0_RKT1_, symObjAddr: 0x271A8, symBinAddr: 0x100029750, symSize: 0x3C }
  - { offsetInCU: 0x120BB, offset: 0x120BB, size: 0x8, addend: 0x0, symName: __ZN5Eigen8internal18check_for_aliasingINS_6MatrixIdLin1ELin1ELi0ELin1ELin1EEENS_13CwiseBinaryOpINS0_13scalar_sum_opIddEEKNS4_INS0_17scalar_product_opIddEEKS3_S9_EEKNS4_IS8_KNS4_INS0_20scalar_difference_opIddEEKNS_14CwiseNullaryOpINS0_18scalar_constant_opIdEES3_EES9_EES9_EEEEEEvRKT_RKT0_, symObjAddr: 0x27224, symBinAddr: 0x1000297CC, symSize: 0x60 }
  - { offsetInCU: 0x12106, offset: 0x12106, size: 0x8, addend: 0x0, symName: __ZN5Eigen8internal26call_dense_assignment_loopINS_6MatrixIdLin1ELin1ELi0ELin1ELin1EEENS_13CwiseBinaryOpINS0_13scalar_sum_opIddEEKNS4_INS0_17scalar_product_opIddEEKS3_S9_EEKNS4_IS8_KNS4_INS0_20scalar_difference_opIddEEKNS_14CwiseNullaryOpINS0_18scalar_constant_opIdEES3_EES9_EES9_EEEENS0_9assign_opIddEEEEvRT_RKT0_RKT1_, symObjAddr: 0x27284, symBinAddr: 0x10002982C, symSize: 0xD8 }
  - { offsetInCU: 0x121F9, offset: 0x121F9, size: 0x8, addend: 0x0, symName: __ZN5Eigen8internal17resize_if_allowedINS_6MatrixIdLin1ELin1ELi0ELin1ELin1EEENS_13CwiseBinaryOpINS0_13scalar_sum_opIddEEKNS4_INS0_17scalar_product_opIddEEKS3_S9_EEKNS4_IS8_KNS4_INS0_20scalar_difference_opIddEEKNS_14CwiseNullaryOpINS0_18scalar_constant_opIdEES3_EES9_EES9_EEEEddEEvRT_RKT0_RKNS0_9assign_opIT1_T2_EE, symObjAddr: 0x273A4, symBinAddr: 0x10002994C, symSize: 0xF8 }
  - { offsetInCU: 0x1227F, offset: 0x1227F, size: 0x8, addend: 0x0, symName: __ZN5Eigen8internal24call_assignment_no_aliasINS_6MatrixIdLin1ELin1ELi0ELin1ELin1EEENS_14CwiseNullaryOpINS0_16scalar_random_opIdEES3_EENS0_9assign_opIddEEEEvRT_RKT0_RKT1_, symObjAddr: 0x28AD8, symBinAddr: 0x10002B080, symSize: 0x3C }
  - { offsetInCU: 0x1234D, offset: 0x1234D, size: 0x8, addend: 0x0, symName: __ZN5Eigen8internal18check_for_aliasingINS_6MatrixIdLin1ELin1ELi0ELin1ELin1EEENS_14CwiseNullaryOpINS0_16scalar_random_opIdEES3_EEEEvRKT_RKT0_, symObjAddr: 0x28B54, symBinAddr: 0x10002B0FC, symSize: 0x60 }
  - { offsetInCU: 0x12398, offset: 0x12398, size: 0x8, addend: 0x0, symName: __ZN5Eigen8internal26call_dense_assignment_loopINS_6MatrixIdLin1ELin1ELi0ELin1ELin1EEENS_14CwiseNullaryOpINS0_16scalar_random_opIdEES3_EENS0_9assign_opIddEEEEvRT_RKT0_RKT1_, symObjAddr: 0x28BB4, symBinAddr: 0x10002B15C, symSize: 0xD8 }
  - { offsetInCU: 0x1248A, offset: 0x1248A, size: 0x8, addend: 0x0, symName: __ZN5Eigen8internal17resize_if_allowedINS_6MatrixIdLin1ELin1ELi0ELin1ELin1EEENS_14CwiseNullaryOpINS0_16scalar_random_opIdEES3_EEddEEvRT_RKT0_RKNS0_9assign_opIT1_T2_EE, symObjAddr: 0x28CD4, symBinAddr: 0x10002B27C, symSize: 0xF8 }
  - { offsetInCU: 0x12762, offset: 0x12762, size: 0x8, addend: 0x0, symName: __ZN5Eigen8internal12print_matrixINS_6MatrixIdLin1ELin1ELi0ELin1ELin1EEEEERNSt3__113basic_ostreamIcNS4_11char_traitsIcEEEES9_RKT_RKNS_8IOFormatE, symObjAddr: 0x29618, symBinAddr: 0x10002BBC0, symSize: 0x580 }
  - { offsetInCU: 0x12D35, offset: 0x12D35, size: 0x8, addend: 0x0, symName: __ZN5EigenL6lastp1E, symObjAddr: 0x311E89, symBinAddr: 0x100044029, symSize: 0x0 }
  - { offsetInCU: 0x12D4E, offset: 0x12D4E, size: 0x8, addend: 0x0, symName: __ZN5EigenL3allE, symObjAddr: 0x311E8C, symBinAddr: 0x10004402C, symSize: 0x0 }
  - { offsetInCU: 0x12D67, offset: 0x12D67, size: 0x8, addend: 0x0, symName: __ZN5EigenL3fixILi1EEE, symObjAddr: 0x311E8B, symBinAddr: 0x10004402B, symSize: 0x0 }
  - { offsetInCU: 0x12D8B, offset: 0x12D8B, size: 0x8, addend: 0x0, symName: __ZN5EigenL3fixILi0EEE, symObjAddr: 0x312858, symBinAddr: 0x1000449F8, symSize: 0x0 }
  - { offsetInCU: 0x12DAF, offset: 0x12DAF, size: 0x8, addend: 0x0, symName: __ZN5EigenL3fixILi2EEE, symObjAddr: 0x312859, symBinAddr: 0x1000449F9, symSize: 0x0 }
  - { offsetInCU: 0x12DD3, offset: 0x12DD3, size: 0x8, addend: 0x0, symName: __ZN5EigenL3fixILi3EEE, symObjAddr: 0x31285A, symBinAddr: 0x1000449FA, symSize: 0x0 }
  - { offsetInCU: 0x5098F, offset: 0x5098F, size: 0x8, addend: 0x0, symName: __ZN5EigenlsINS_6MatrixIdLin1ELin1ELi0ELin1ELin1EEEEERNSt3__113basic_ostreamIcNS3_11char_traitsIcEEEES8_RKNS_9DenseBaseIT_EE, symObjAddr: 0x33E0, symBinAddr: 0x100005988, symSize: 0x208 }
  - { offsetInCU: 0x50A0A, offset: 0x50A0A, size: 0x8, addend: 0x0, symName: __ZN5Eigen6numext4realIdEENS_8internal11real_retvalINS2_36global_math_functions_filtering_baseIT_vE4typeEE4typeERKS5_, symObjAddr: 0xD750, symBinAddr: 0x10000FCF8, symSize: 0x24 }
  - { offsetInCU: 0x50A74, offset: 0x50A74, size: 0x8, addend: 0x0, symName: __ZN5Eigen6numext8div_ceilIlEET_RKS2_S4_, symObjAddr: 0x13890, symBinAddr: 0x100015E38, symSize: 0x38 }
  - { offsetInCU: 0x58C86, offset: 0x58C86, size: 0x8, addend: 0x0, symName: __ZNSt3__124__put_character_sequenceB8ue170006IcNS_11char_traitsIcEEEERNS_13basic_ostreamIT_T0_EES7_PKS4_m, symObjAddr: 0x241A8, symBinAddr: 0x100026750, symSize: 0x1EC }
  - { offsetInCU: 0x5B42C, offset: 0x5B42C, size: 0x8, addend: 0x0, symName: __ZNSt3__13maxB8ue170006ItEERKT_S3_S3_, symObjAddr: 0x2598, symBinAddr: 0x100004B40, symSize: 0x2C }
  - { offsetInCU: 0x5B46F, offset: 0x5B46F, size: 0x8, addend: 0x0, symName: __ZNSt3__1lsB8ue170006INS_11char_traitsIcEEEERNS_13basic_ostreamIcT_EES6_PKc, symObjAddr: 0x2EB8, symBinAddr: 0x100005460, symSize: 0x48 }
  - { offsetInCU: 0x5B4B5, offset: 0x5B4B5, size: 0x8, addend: 0x0, symName: __ZNSt3__14endlB8ue170006IcNS_11char_traitsIcEEEERNS_13basic_ostreamIT_T0_EES7_, symObjAddr: 0x2F2C, symBinAddr: 0x1000054D4, symSize: 0x58 }
  - { offsetInCU: 0x5B75D, offset: 0x5B75D, size: 0x8, addend: 0x0, symName: __ZNSt3__118__constexpr_strlenB8ue170006EPKc, symObjAddr: 0x3AE4, symBinAddr: 0x10000608C, symSize: 0x24 }
  - { offsetInCU: 0x5B789, offset: 0x5B789, size: 0x8, addend: 0x0, symName: __ZNSt3__112__to_addressB8ue170006IN6global8PositionEEEPT_S4_, symObjAddr: 0x3FF4, symBinAddr: 0x10000659C, symSize: 0x14 }
  - { offsetInCU: 0x5B7BE, offset: 0x5B7BE, size: 0x8, addend: 0x0, symName: __ZNSt3__119__libcpp_deallocateB8ue170006EPvmm, symObjAddr: 0x40CC, symBinAddr: 0x100006674, symSize: 0x60 }
  - { offsetInCU: 0x5B823, offset: 0x5B823, size: 0x8, addend: 0x0, symName: __ZNSt3__124__is_overaligned_for_newB8ue170006Em, symObjAddr: 0x412C, symBinAddr: 0x1000066D4, symSize: 0x20 }
  - { offsetInCU: 0x5B851, offset: 0x5B851, size: 0x8, addend: 0x0, symName: __ZNSt3__127__do_deallocate_handle_sizeB8ue170006IJSt11align_val_tEEEvPvmDpT_, symObjAddr: 0x414C, symBinAddr: 0x1000066F4, symSize: 0x30 }
  - { offsetInCU: 0x5B8A6, offset: 0x5B8A6, size: 0x8, addend: 0x0, symName: __ZNSt3__127__do_deallocate_handle_sizeB8ue170006IJEEEvPvmDpT_, symObjAddr: 0x417C, symBinAddr: 0x100006724, symSize: 0x28 }
  - { offsetInCU: 0x5B8E5, offset: 0x5B8E5, size: 0x8, addend: 0x0, symName: __ZNSt3__124__libcpp_operator_deleteB8ue170006IJPvSt11align_val_tEEEvDpT_, symObjAddr: 0x41A4, symBinAddr: 0x10000674C, symSize: 0x2C }
  - { offsetInCU: 0x5B931, offset: 0x5B931, size: 0x8, addend: 0x0, symName: __ZNSt3__124__libcpp_operator_deleteB8ue170006IJPvEEEvDpT_, symObjAddr: 0x41D0, symBinAddr: 0x100006778, symSize: 0x24 }
  - { offsetInCU: 0x5B968, offset: 0x5B968, size: 0x8, addend: 0x0, symName: __ZNSt3__13minB8ue170006IlEERKT_S3_S3_, symObjAddr: 0x93AC, symBinAddr: 0x10000B954, symSize: 0x2C }
  - { offsetInCU: 0x5B9AB, offset: 0x5B9AB, size: 0x8, addend: 0x0, symName: __ZNSt3__13minB8ue170006IlNS_6__lessIvvEEEERKT_S5_S5_T0_, symObjAddr: 0x93D8, symBinAddr: 0x10000B980, symSize: 0x54 }
  - { offsetInCU: 0x5BAAC, offset: 0x5BAAC, size: 0x8, addend: 0x0, symName: __ZNSt3__16fill_nB8ue170006IPdldEET_S2_T0_RKT1_, symObjAddr: 0x9CE8, symBinAddr: 0x10000C290, symSize: 0x44 }
  - { offsetInCU: 0x5BB0F, offset: 0x5BB0F, size: 0x8, addend: 0x0, symName: __ZNSt3__18__fill_nB8ue170006IPdldEET_S2_T0_RKT1_, symObjAddr: 0x9DA8, symBinAddr: 0x10000C350, symSize: 0x64 }
  - { offsetInCU: 0x5BB72, offset: 0x5BB72, size: 0x8, addend: 0x0, symName: __ZNSt3__121__convert_to_integralB8ue170006El, symObjAddr: 0x9E0C, symBinAddr: 0x10000C3B4, symSize: 0x14 }
  - { offsetInCU: 0x5BB9E, offset: 0x5BB9E, size: 0x8, addend: 0x0, symName: __ZNSt3__13maxB8ue170006IlEERKT_S3_S3_, symObjAddr: 0x139F4, symBinAddr: 0x100015F9C, symSize: 0x2C }
  - { offsetInCU: 0x5BBE1, offset: 0x5BBE1, size: 0x8, addend: 0x0, symName: __ZNSt3__13maxB8ue170006IlNS_6__lessIvvEEEERKT_S5_S5_T0_, symObjAddr: 0x13A20, symBinAddr: 0x100015FC8, symSize: 0x54 }
  - { offsetInCU: 0x5BC3B, offset: 0x5BC3B, size: 0x8, addend: 0x0, symName: __ZNSt3__13maxB8ue170006IdEERKT_S3_S3_, symObjAddr: 0x1DDA0, symBinAddr: 0x100020348, symSize: 0x2C }
  - { offsetInCU: 0x5BC7E, offset: 0x5BC7E, size: 0x8, addend: 0x0, symName: __ZNSt3__13maxB8ue170006IdNS_6__lessIvvEEEERKT_S5_S5_T0_, symObjAddr: 0x1DDCC, symBinAddr: 0x100020374, symSize: 0x54 }
  - { offsetInCU: 0x5BCD9, offset: 0x5BCD9, size: 0x8, addend: 0x0, symName: __ZNSt3__120__throw_out_of_rangeB8ue170006EPKc, symObjAddr: 0x23EE4, symBinAddr: 0x10002648C, symSize: 0x64 }
  - { offsetInCU: 0x5BD03, offset: 0x5BD03, size: 0x8, addend: 0x0, symName: __ZNSt3__13maxB8ue170006ItNS_6__lessIvvEEEERKT_S5_S5_T0_, symObjAddr: 0x23FC8, symBinAddr: 0x100026570, symSize: 0x54 }
  - { offsetInCU: 0x5BD5D, offset: 0x5BD5D, size: 0x8, addend: 0x0, symName: __ZNSt3__116__pad_and_outputB8ue170006IcNS_11char_traitsIcEEEENS_19ostreambuf_iteratorIT_T0_EES6_PKS4_S8_S8_RNS_8ios_baseES4_, symObjAddr: 0x243B0, symBinAddr: 0x100026958, symSize: 0x240 }
  - { offsetInCU: 0x5BE2C, offset: 0x5BE2C, size: 0x8, addend: 0x0, symName: __ZNSt3__112__to_addressB8ue170006IcEEPT_S2_, symObjAddr: 0x24820, symBinAddr: 0x100026DC8, symSize: 0x14 }
  - { offsetInCU: 0x5BE94, offset: 0x5BE94, size: 0x8, addend: 0x0, symName: __ZNSt3__19use_facetB8ue170006INS_5ctypeIcEEEERKT_RKNS_6localeE, symObjAddr: 0x24AD8, symBinAddr: 0x100027080, symSize: 0x2C }
  - { offsetInCU: 0x5C54F, offset: 0x5C54F, size: 0x8, addend: 0x0, symName: __ZNSt3__118generate_canonicalB8ue170006IdLm53ENS_26linear_congruential_engineIjLj48271ELj0ELj2147483647EEEEET_RT1_, symObjAddr: 0x29438, symBinAddr: 0x10002B9E0, symSize: 0x114 }
  - { offsetInCU: 0x5C67B, offset: 0x5C67B, size: 0x8, addend: 0x0, symName: __ZNSt3__1lsB8ue170006IcNS_11char_traitsIcEENS_9allocatorIcEEEERNS_13basic_ostreamIT_T0_EES9_RKNS_12basic_stringIS6_S7_T1_EE, symObjAddr: 0x29C70, symBinAddr: 0x10002C218, symSize: 0x4C }
  - { offsetInCU: 0x5D029, offset: 0x5D029, size: 0x8, addend: 0x0, symName: __ZNSt3__112__to_addressB8ue170006IKcEEPT_S3_, symObjAddr: 0x29FF0, symBinAddr: 0x10002C598, symSize: 0x14 }
  - { offsetInCU: 0x5D448, offset: 0x5D448, size: 0x8, addend: 0x0, symName: __ZN13map_functionsL3rngE, symObjAddr: 0x311E90, symBinAddr: 0x100044030, symSize: 0x0 }
  - { offsetInCU: 0x5D4D8, offset: 0x5D4D8, size: 0x8, addend: 0x0, symName: __ZN6global3MAPL7COLUMNSE, symObjAddr: 0x2BC34, symBinAddr: 0x10003D82C, symSize: 0x0 }
  - { offsetInCU: 0x5D4F1, offset: 0x5D4F1, size: 0x8, addend: 0x0, symName: __ZN6global3MAPL4ROWSE, symObjAddr: 0x2BC36, symBinAddr: 0x10003D82E, symSize: 0x0 }
  - { offsetInCU: 0x602DC, offset: 0x602DC, size: 0x8, addend: 0x0, symName: __ZN5Eigen8internal21dense_assignment_loopINS0_41restricted_packet_dense_assignment_kernelINS0_9evaluatorINS_6MatrixIdLin1ELin1ELi0ELin1ELin1EEEEENS3_INS_7ProductIS5_S5_Li1EEEEENS0_9assign_opIddEEEELi4ELi0EE3runERSC_, symObjAddr: 0x659C, symBinAddr: 0x100008B44, symSize: 0x1D8 }
  - { offsetInCU: 0x604A5, offset: 0x604A5, size: 0x8, addend: 0x0, symName: __ZN5Eigen8internal29general_matrix_vector_productIldNS0_22const_blas_data_mapperIdlLi0EEELi0ELb0EdNS2_IdlLi1EEELb0ELi0EE3runEllRKS3_RKS4_Pdld, symObjAddr: 0xC150, symBinAddr: 0x10000E6F8, symSize: 0x15D4 }
  - { offsetInCU: 0x613A5, offset: 0x613A5, size: 0x8, addend: 0x0, symName: __ZN5Eigen8internal29general_matrix_vector_productIldNS0_22const_blas_data_mapperIdlLi1EEELi1ELb0EdNS2_IdlLi0EEELb0ELi0EE3runEllRKS3_RKS4_Pdld, symObjAddr: 0xFF3C, symBinAddr: 0x1000124E4, symSize: 0x17A4 }
  - { offsetInCU: 0x625CC, offset: 0x625CC, size: 0x8, addend: 0x0, symName: __ZN5Eigen8internal13gemm_pack_lhsIdlNS0_22const_blas_data_mapperIdlLi0EEELi6ELi2E19__simd128_float64_tLi0ELb0ELb0EEclEPdRKS3_llll, symObjAddr: 0x148E8, symBinAddr: 0x100016E90, symSize: 0x73C }
  - { offsetInCU: 0x62B71, offset: 0x62B71, size: 0x8, addend: 0x0, symName: __ZN5Eigen8internal11gebp_kernelIddlNS0_16blas_data_mapperIdlLi0ELi0ELi1EEELi6ELi4ELb0ELb0EEclERKS3_PKdS8_llldllll, symObjAddr: 0x15734, symBinAddr: 0x100017CDC, symSize: 0x5408 }
  - { offsetInCU: 0x656DC, offset: 0x656DC, size: 0x8, addend: 0x0, symName: __ZN5Eigen8internal21dense_assignment_loopINS0_31generic_dense_assignment_kernelINS0_9evaluatorINS_6MatrixIdLin1ELin1ELi0ELin1ELin1EEEEENS3_INS_13CwiseBinaryOpINS0_13scalar_sum_opIddEEKNS_7ProductIS5_S5_Li0EEEKS5_EEEENS0_9assign_opIddEELi0EEELi3ELi0EE3runERSI_, symObjAddr: 0x554C, symBinAddr: 0x100007AF4, symSize: 0xA8 }
  - { offsetInCU: 0x65812, offset: 0x65812, size: 0x8, addend: 0x0, symName: __ZN5Eigen8internal21dense_assignment_loopINS0_31generic_dense_assignment_kernelINS0_9evaluatorINS_6MatrixIdLin1ELin1ELi0ELin1ELin1EEEEENS3_INS_13CwiseBinaryOpINS0_13scalar_max_opIddLi0EEEKS5_KNS_14CwiseNullaryOpINS0_18scalar_constant_opIdEES5_EEEEEENS0_9assign_opIddEELi0EEELi3ELi0EE3runERSK_, symObjAddr: 0x1D4D8, symBinAddr: 0x10001FA80, symSize: 0xA8 }
  - { offsetInCU: 0x6609A, offset: 0x6609A, size: 0x8, addend: 0x0, symName: __ZN5Eigen8internal21dense_assignment_loopINS0_31generic_dense_assignment_kernelINS0_9evaluatorINS_5ArrayIdLin1ELi1ELi0ELin1ELi1EEEEENS3_INS_12CwiseUnaryOpINS0_13scalar_exp_opIdEEKNS_13CwiseBinaryOpINS0_20scalar_difference_opIddEEKNS_3MapIS5_Li0ENS_6StrideILi0ELi0EEEEEKNS_14CwiseNullaryOpINS0_18scalar_constant_opIdEEKS5_EEEEEEEENS0_9assign_opIddEELi0EEELi3ELi0EE3runERSU_, symObjAddr: 0x200C8, symBinAddr: 0x100022670, symSize: 0xA8 }
  - { offsetInCU: 0x66402, offset: 0x66402, size: 0x8, addend: 0x0, symName: __ZN5Eigen8internal21dense_assignment_loopINS0_31generic_dense_assignment_kernelINS0_9evaluatorINS_5ArrayIdLin1ELi1ELi0ELin1ELi1EEEEENS3_INS_13CwiseBinaryOpINS0_18scalar_quotient_opIddEEKS5_KNS_14CwiseNullaryOpINS0_18scalar_constant_opIdEESA_EEEEEENS0_9assign_opIddEELi0EEELi3ELi0EE3runERSK_, symObjAddr: 0x227E4, symBinAddr: 0x100024D8C, symSize: 0xA8 }
  - { offsetInCU: 0x664CA, offset: 0x664CA, size: 0x8, addend: 0x0, symName: __ZN5Eigen8internal21dense_assignment_loopINS0_31generic_dense_assignment_kernelINS0_9evaluatorINS_6MatrixIdLin1ELin1ELi0ELin1ELin1EEEEENS3_INS_5ArrayIdLin1ELi1ELi0ELin1ELi1EEEEENS0_9assign_opIddEELi0EEELi3ELi0EE3runERSC_, symObjAddr: 0x234A0, symBinAddr: 0x100025A48, symSize: 0xA8 }
  - { offsetInCU: 0x66592, offset: 0x66592, size: 0x8, addend: 0x0, symName: __ZN5Eigen8internal21dense_assignment_loopINS0_31generic_dense_assignment_kernelINS0_9evaluatorINS_5ArrayIdLin1ELi1ELi0ELin1ELi1EEEEENS3_INS_6MatrixIdLin1ELin1ELi0ELin1ELin1EEEEENS0_9assign_opIddEELi0EEELi3ELi0EE3runERSC_, symObjAddr: 0x23C34, symBinAddr: 0x1000261DC, symSize: 0xA8 }
  - { offsetInCU: 0x66F94, offset: 0x66F94, size: 0x8, addend: 0x0, symName: __ZN5Eigen8internal21dense_assignment_loopINS0_31generic_dense_assignment_kernelINS0_9evaluatorINS_6MatrixIdLin1ELin1ELi0ELin1ELin1EEEEENS3_INS_13CwiseBinaryOpINS0_13scalar_sum_opIddEEKNS7_INS0_17scalar_product_opIddEEKS5_SC_EEKNS7_ISB_KNS7_INS0_20scalar_difference_opIddEEKNS_14CwiseNullaryOpINS0_18scalar_constant_opIdEES5_EESC_EESC_EEEEEENS0_9assign_opIddEELi0EEELi3ELi0EE3runERSU_, symObjAddr: 0x274E8, symBinAddr: 0x100029A90, symSize: 0xA8 }
  - { offsetInCU: 0x67788, offset: 0x67788, size: 0x8, addend: 0x0, symName: __ZN5Eigen8internal19gemv_dense_selectorILi2ELi1ELb1EE3runINS_9TransposeIKNS_6MatrixIdLin1ELin1ELi0ELin1ELin1EEEEENS4_IKNS_5BlockIS7_Li1ELin1ELb0EEEEENS4_INS9_IS6_Li1ELin1ELb0EEEEEEEvRKT_RKT0_RT1_RKNSL_6ScalarE, symObjAddr: 0xF7C8, symBinAddr: 0x100011D70, symSize: 0x4CC }
  - { offsetInCU: 0x6825F, offset: 0x6825F, size: 0x8, addend: 0x0, symName: __ZN8AI_Snake16set_child_matrixEN5Eigen6MatrixIdLin1ELin1ELi0ELin1ELin1EEES2_RS2_, symObjAddr: 0x28F4, symBinAddr: 0x100004E9C, symSize: 0x3C0 }
  - { offsetInCU: 0x6A81D, offset: 0x6A81D, size: 0x8, addend: 0x0, symName: __ZN5Eigen8symbolic10SymbolExprINS_8internal17symbolic_last_tagEEC1Ev, symObjAddr: 0x0, symBinAddr: 0x1000025A8, symSize: 0x2C }
  - { offsetInCU: 0x6A847, offset: 0x6A847, size: 0x8, addend: 0x0, symName: __ZNK5Eigen8symbolic8BaseExprINS0_10SymbolExprINS_8internal17symbolic_last_tagEEEEplILi1EEENS0_7AddExprIS5_NS0_9ValueExprINS3_8FixedIntIXT_EEEEEEESB_, symObjAddr: 0x2C, symBinAddr: 0x1000025D4, symSize: 0x48 }
  - { offsetInCU: 0x6A882, offset: 0x6A882, size: 0x8, addend: 0x0, symName: __ZNK5Eigen8internal8FixedIntILi1EEclEv, symObjAddr: 0x74, symBinAddr: 0x10000261C, symSize: 0x10 }
  - { offsetInCU: 0x6A8A8, offset: 0x6A8A8, size: 0x8, addend: 0x0, symName: __ZN5Eigen8internal5all_tC1Ev, symObjAddr: 0x84, symBinAddr: 0x10000262C, symSize: 0x2C }
  - { offsetInCU: 0x6A8EB, offset: 0x6A8EB, size: 0x8, addend: 0x0, symName: __ZNSt3__113random_deviceC1B8ue170006Ev, symObjAddr: 0xB0, symBinAddr: 0x100002658, symSize: 0x74 }
  - { offsetInCU: 0x6A915, offset: 0x6A915, size: 0x8, addend: 0x0, symName: __ZNSt3__123mersenne_twister_engineIjLm32ELm624ELm397ELm31ELj2567483615ELm11ELj4294967295ELm7ELj2636928640ELm15ELj4022730752ELm18ELj1812433253EEC1B8ue170006Ej, symObjAddr: 0x124, symBinAddr: 0x1000026CC, symSize: 0x34 }
  - { offsetInCU: 0x6A94D, offset: 0x6A94D, size: 0x8, addend: 0x0, symName: __ZN8AI_SnakeC2ERNSt3__15arrayINS1_IN6global4CellELm70EEELm120EEE, symObjAddr: 0x158, symBinAddr: 0x100002700, symSize: 0x19C }
  - { offsetInCU: 0x6A98C, offset: 0x6A98C, size: 0x8, addend: 0x0, symName: __ZN5Eigen6MatrixIdLin1ELin1ELi0ELin1ELin1EEC1IiiEERKT_RKT0_, symObjAddr: 0x2F4, symBinAddr: 0x10000289C, symSize: 0x3C }
  - { offsetInCU: 0x6A9E6, offset: 0x6A9E6, size: 0x8, addend: 0x0, symName: __ZN5Eigen9DenseBaseINS_6MatrixIdLin1ELin1ELi0ELin1ELin1EEEE4ZeroEll, symObjAddr: 0x330, symBinAddr: 0x1000028D8, symSize: 0x40 }
  - { offsetInCU: 0x6AA1C, offset: 0x6AA1C, size: 0x8, addend: 0x0, symName: __ZN5Eigen6MatrixIdLin1ELin1ELi0ELin1ELin1EEC1INS_14CwiseNullaryOpINS_8internal18scalar_constant_opIdEES1_EEEERKT_, symObjAddr: 0x370, symBinAddr: 0x100002918, symSize: 0x34 }
  - { offsetInCU: 0x6AA5E, offset: 0x6AA5E, size: 0x8, addend: 0x0, symName: __ZN8AI_Snake24generate_initial_weightsEv, symObjAddr: 0x3A4, symBinAddr: 0x10000294C, symSize: 0x13BC }
  - { offsetInCU: 0x6AA86, offset: 0x6AA86, size: 0x8, addend: 0x0, symName: __ZN5Eigen6MatrixIdLin1ELin1ELi0ELin1ELin1EED1Ev, symObjAddr: 0x1760, symBinAddr: 0x100003D08, symSize: 0x2C }
  - { offsetInCU: 0x6AAB2, offset: 0x6AAB2, size: 0x8, addend: 0x0, symName: __ZN5SnakeD2Ev, symObjAddr: 0x178C, symBinAddr: 0x100003D34, symSize: 0x40 }
  - { offsetInCU: 0x6AADC, offset: 0x6AADC, size: 0x8, addend: 0x0, symName: __ZN8AI_SnakeC1ERNSt3__15arrayINS1_IN6global4CellELm70EEELm120EEE, symObjAddr: 0x17CC, symBinAddr: 0x100003D74, symSize: 0x34 }
  - { offsetInCU: 0x6AB16, offset: 0x6AB16, size: 0x8, addend: 0x0, symName: __ZN8AI_SnakeC2ERNSt3__15arrayINS1_IN6global4CellELm70EEELm120EEENS2_5SNAKE9DirectionENS2_8PositionE, symObjAddr: 0x1800, symBinAddr: 0x100003DA8, symSize: 0x1C4 }
  - { offsetInCU: 0x6AB6B, offset: 0x6AB6B, size: 0x8, addend: 0x0, symName: __ZN8AI_SnakeC1ERNSt3__15arrayINS1_IN6global4CellELm70EEELm120EEENS2_5SNAKE9DirectionENS2_8PositionE, symObjAddr: 0x19C4, symBinAddr: 0x100003F6C, symSize: 0x54 }
  - { offsetInCU: 0x6ABC0, offset: 0x6ABC0, size: 0x8, addend: 0x0, symName: __ZN8AI_Snake16update_directionEv, symObjAddr: 0x1A18, symBinAddr: 0x100003FC0, symSize: 0x2EC }
  - { offsetInCU: 0x6AC2E, offset: 0x6AC2E, size: 0x8, addend: 0x0, symName: __ZN8AI_Snake10get_inputsEv, symObjAddr: 0x1D14, symBinAddr: 0x1000042BC, symSize: 0x450 }
  - { offsetInCU: 0x6ACCD, offset: 0x6ACCD, size: 0x8, addend: 0x0, symName: __ZN5MODEL10SequentialEN5Eigen6MatrixIdLin1ELin1ELi0ELin1ELin1EEES2_S2_S2_S2_, symObjAddr: 0x2164, symBinAddr: 0x10000470C, symSize: 0x2B4 }
  - { offsetInCU: 0x6AD54, offset: 0x6AD54, size: 0x8, addend: 0x0, symName: __ZN5MODEL5LayerEN5Eigen6MatrixIdLin1ELin1ELi0ELin1ELin1EEES2_S2_, symObjAddr: 0x428C, symBinAddr: 0x100006834, symSize: 0xDC }
  - { offsetInCU: 0x6ADAD, offset: 0x6ADAD, size: 0x8, addend: 0x0, symName: __ZN5MODEL7softmaxEN5Eigen6MatrixIdLin1ELin1ELi0ELin1ELin1EEE, symObjAddr: 0x4368, symBinAddr: 0x100006910, symSize: 0x188 }
  - { offsetInCU: 0x6AE17, offset: 0x6AE17, size: 0x8, addend: 0x0, symName: __ZN5MODEL4ReLUEN5Eigen6MatrixIdLin1ELin1ELi0ELin1ELin1EEE, symObjAddr: 0x4604, symBinAddr: 0x100006BAC, symSize: 0x4C }
  - { offsetInCU: 0x6AE46, offset: 0x6AE46, size: 0x8, addend: 0x0, symName: __ZN5Eigen6MatrixIdLin1ELin1ELi0ELin1ELin1EEC1ERKS1_, symObjAddr: 0x2418, symBinAddr: 0x1000049C0, symSize: 0x34 }
  - { offsetInCU: 0x6AE7F, offset: 0x6AE7F, size: 0x8, addend: 0x0, symName: __ZNK5Eigen9DenseBaseINS_5ArrayIdLin1ELi1ELi0ELin1ELi1EEEE8maxCoeffIlEEdPT_, symObjAddr: 0x244C, symBinAddr: 0x1000049F4, symSize: 0x2C }
  - { offsetInCU: 0x6AEBD, offset: 0x6AEBD, size: 0x8, addend: 0x0, symName: __ZN5Eigen5ArrayIdLin1ELi1ELi0ELin1ELi1EED1Ev, symObjAddr: 0x2478, symBinAddr: 0x100004A20, symSize: 0x2C }
  - { offsetInCU: 0x6AEE9, offset: 0x6AEE9, size: 0x8, addend: 0x0, symName: __ZNSt3__16vectorIN6global8PositionENS_9allocatorIS2_EEEixB8ue170006Em, symObjAddr: 0x24A4, symBinAddr: 0x100004A4C, symSize: 0x24 }
  - { offsetInCU: 0x6AF5B, offset: 0x6AF5B, size: 0x8, addend: 0x0, symName: __ZNSt3__15arrayIcLm8EEixB8ue170006Em, symObjAddr: 0x24C8, symBinAddr: 0x100004A70, symSize: 0x20 }
  - { offsetInCU: 0x6AF8F, offset: 0x6AF8F, size: 0x8, addend: 0x0, symName: __ZNSt3__15arrayINS0_IN6global4CellELm70EEELm120EE2atB8ue170006Em, symObjAddr: 0x24E8, symBinAddr: 0x100004A90, symSize: 0x5C }
  - { offsetInCU: 0x6AFC3, offset: 0x6AFC3, size: 0x8, addend: 0x0, symName: __ZNSt3__15arrayIN6global4CellELm70EE2atB8ue170006Em, symObjAddr: 0x2544, symBinAddr: 0x100004AEC, symSize: 0x54 }
  - { offsetInCU: 0x6AFF7, offset: 0x6AFF7, size: 0x8, addend: 0x0, symName: __ZN5Eigen15DenseCoeffsBaseINS_6MatrixIdLin1ELin1ELi0ELin1ELin1EEELi1EEclEll, symObjAddr: 0x25C4, symBinAddr: 0x100004B6C, symSize: 0xF4 }
  - { offsetInCU: 0x6B03B, offset: 0x6B03B, size: 0x8, addend: 0x0, symName: __ZN8AI_Snake22set_child_weights_biasES_S_, symObjAddr: 0x26B8, symBinAddr: 0x100004C60, symSize: 0x23C }
  - { offsetInCU: 0x6B081, offset: 0x6B081, size: 0x8, addend: 0x0, symName: __ZN8AI_Snake12get_weights1Ev, symObjAddr: 0x2CB4, symBinAddr: 0x10000525C, symSize: 0x3C }
  - { offsetInCU: 0x6B0A9, offset: 0x6B0A9, size: 0x8, addend: 0x0, symName: __ZN8AI_Snake9get_bias1Ev, symObjAddr: 0x2CF0, symBinAddr: 0x100005298, symSize: 0x3C }
  - { offsetInCU: 0x6B0D1, offset: 0x6B0D1, size: 0x8, addend: 0x0, symName: __ZN8AI_Snake12get_weights2Ev, symObjAddr: 0x2D2C, symBinAddr: 0x1000052D4, symSize: 0x3C }
  - { offsetInCU: 0x6B0F9, offset: 0x6B0F9, size: 0x8, addend: 0x0, symName: __ZN8AI_Snake9get_bias2Ev, symObjAddr: 0x2D68, symBinAddr: 0x100005310, symSize: 0x3C }
  - { offsetInCU: 0x6B121, offset: 0x6B121, size: 0x8, addend: 0x0, symName: __ZN5Eigen9DenseBaseINS_6MatrixIdLin1ELin1ELi0ELin1ELin1EEEE6RandomEll, symObjAddr: 0x2DA4, symBinAddr: 0x10000534C, symSize: 0x58 }
  - { offsetInCU: 0x6B156, offset: 0x6B156, size: 0x8, addend: 0x0, symName: __ZNK5Eigen15PlainObjectBaseINS_6MatrixIdLin1ELin1ELi0ELin1ELin1EEEE4rowsEv, symObjAddr: 0x2DFC, symBinAddr: 0x1000053A4, symSize: 0x24 }
  - { offsetInCU: 0x6B17C, offset: 0x6B17C, size: 0x8, addend: 0x0, symName: __ZNK5Eigen15PlainObjectBaseINS_6MatrixIdLin1ELin1ELi0ELin1ELin1EEEE4colsEv, symObjAddr: 0x2E20, symBinAddr: 0x1000053C8, symSize: 0x24 }
  - { offsetInCU: 0x6B1A2, offset: 0x6B1A2, size: 0x8, addend: 0x0, symName: '__ZNK5Eigen9DenseBaseINS_14CwiseNullaryOpINS_8internal16scalar_random_opIdEENS_6MatrixIdLin1ELin1ELi0ELin1ELin1EEEEEE9unaryExprIZN8AI_Snake16set_child_matrixES6_S6_RS6_E3$_0EEKNS_12CwiseUnaryOpIT_KS7_EERKSE_', symObjAddr: 0x2E44, symBinAddr: 0x1000053EC, symSize: 0x40 }
  - { offsetInCU: 0x6B1E4, offset: 0x6B1E4, size: 0x8, addend: 0x0, symName: '__ZN5Eigen6MatrixIdLin1ELin1ELi0ELin1ELin1EEC1INS_12CwiseUnaryOpIZN8AI_Snake16set_child_matrixES1_S1_RS1_E3$_0KNS_14CwiseNullaryOpINS_8internal16scalar_random_opIdEES1_EEEEEERKNS_9EigenBaseIT_EE', symObjAddr: 0x2E84, symBinAddr: 0x10000542C, symSize: 0x34 }
  - { offsetInCU: 0x6B226, offset: 0x6B226, size: 0x8, addend: 0x0, symName: __ZNSt3__113basic_ostreamIcNS_11char_traitsIcEEElsB8ue170006EPFRS3_S4_E, symObjAddr: 0x2F00, symBinAddr: 0x1000054A8, symSize: 0x2C }
  - { offsetInCU: 0x6B25A, offset: 0x6B25A, size: 0x8, addend: 0x0, symName: __ZNK5Eigen9EigenBaseINS_6MatrixIdLin1ELin1ELi0ELin1ELin1EEEE4sizeEv, symObjAddr: 0x2F84, symBinAddr: 0x10000552C, symSize: 0x44 }
  - { offsetInCU: 0x6B280, offset: 0x6B280, size: 0x8, addend: 0x0, symName: __ZNK5Eigen10MatrixBaseINS_6MatrixIdLin1ELin1ELi0ELin1ELin1EEEE12cwiseProductIS2_EEKNS_13CwiseBinaryOpINS_8internal17scalar_product_opIdNS6_6traitsIT_E6ScalarEEEKS2_KS9_EERKNS0_IS9_EE, symObjAddr: 0x2FC8, symBinAddr: 0x100005570, symSize: 0x60 }
  - { offsetInCU: 0x6B2BD, offset: 0x6B2BD, size: 0x8, addend: 0x0, symName: __ZNK5Eigen10MatrixBaseINS_13CwiseBinaryOpINS_8internal17scalar_product_opIddEEKNS_6MatrixIdLin1ELin1ELi0ELin1ELin1EEES7_EEEplINS1_IS4_KNS1_INS2_20scalar_difference_opIddEEKNS_14CwiseNullaryOpINS2_18scalar_constant_opIdEES6_EES7_EES7_EEEEKNS1_INS2_13scalar_sum_opIdNS2_6traitsIT_E6ScalarEEEKS8_KSN_EERKNS0_ISN_EE, symObjAddr: 0x3028, symBinAddr: 0x1000055D0, symSize: 0x60 }
  - { offsetInCU: 0x6B2FA, offset: 0x6B2FA, size: 0x8, addend: 0x0, symName: __ZN5Eigen9DenseBaseINS_6MatrixIdLin1ELin1ELi0ELin1ELin1EEEE4OnesEll, symObjAddr: 0x3088, symBinAddr: 0x100005630, symSize: 0x40 }
  - { offsetInCU: 0x6B330, offset: 0x6B330, size: 0x8, addend: 0x0, symName: __ZNK5Eigen10MatrixBaseINS_14CwiseNullaryOpINS_8internal18scalar_constant_opIdEENS_6MatrixIdLin1ELin1ELi0ELin1ELin1EEEEEEmiIS6_EEKNS_13CwiseBinaryOpINS2_20scalar_difference_opIdNS2_6traitsIT_E6ScalarEEEKS7_KSD_EERKNS0_ISD_EE, symObjAddr: 0x30C8, symBinAddr: 0x100005670, symSize: 0x60 }
  - { offsetInCU: 0x6B36D, offset: 0x6B36D, size: 0x8, addend: 0x0, symName: __ZNK5Eigen10MatrixBaseINS_13CwiseBinaryOpINS_8internal20scalar_difference_opIddEEKNS_14CwiseNullaryOpINS2_18scalar_constant_opIdEENS_6MatrixIdLin1ELin1ELi0ELin1ELin1EEEEEKS9_EEE12cwiseProductIS9_EEKNS1_INS2_17scalar_product_opIdNS2_6traitsIT_E6ScalarEEEKSD_KSI_EERKNS0_ISI_EE, symObjAddr: 0x3128, symBinAddr: 0x1000056D0, symSize: 0x60 }
  - { offsetInCU: 0x6B3AA, offset: 0x6B3AA, size: 0x8, addend: 0x0, symName: __ZN5Eigen6MatrixIdLin1ELin1ELi0ELin1ELin1EEaSINS_13CwiseBinaryOpINS_8internal13scalar_sum_opIddEEKNS3_INS4_17scalar_product_opIddEEKS1_S9_EEKNS3_IS8_KNS3_INS4_20scalar_difference_opIddEEKNS_14CwiseNullaryOpINS4_18scalar_constant_opIdEES1_EES9_EES9_EEEEEERS1_RKNS_9DenseBaseIT_EE, symObjAddr: 0x3188, symBinAddr: 0x100005730, symSize: 0x2C }
  - { offsetInCU: 0x6B3EC, offset: 0x6B3EC, size: 0x8, addend: 0x0, symName: __ZN5Eigen6MatrixIdLin1ELin1ELi0ELin1ELin1EEC1INS_14CwiseNullaryOpINS_8internal16scalar_random_opIdEES1_EEEERKNS_9EigenBaseIT_EE, symObjAddr: 0x31B4, symBinAddr: 0x10000575C, symSize: 0x34 }
  - { offsetInCU: 0x6B42E, offset: 0x6B42E, size: 0x8, addend: 0x0, symName: __ZN8AI_Snake22generate_random_matrixEdRN5Eigen6MatrixIdLin1ELin1ELi0ELin1ELin1EEE, symObjAddr: 0x31E8, symBinAddr: 0x100005790, symSize: 0x120 }
  - { offsetInCU: 0x6B524, offset: 0x6B524, size: 0x8, addend: 0x0, symName: __ZNKSt3__16chrono10time_pointINS0_12system_clockENS0_8durationIxNS_5ratioILl1ELl1000000EEEEEE16time_since_epochB8ue170006Ev, symObjAddr: 0x3308, symBinAddr: 0x1000058B0, symSize: 0x20 }
  - { offsetInCU: 0x6B54A, offset: 0x6B54A, size: 0x8, addend: 0x0, symName: __ZNKSt3__16chrono8durationIxNS_5ratioILl1ELl1000000EEEE5countB8ue170006Ev, symObjAddr: 0x3328, symBinAddr: 0x1000058D0, symSize: 0x18 }
  - { offsetInCU: 0x6B570, offset: 0x6B570, size: 0x8, addend: 0x0, symName: __ZNSt3__126linear_congruential_engineIjLj48271ELj0ELj2147483647EEC1B8ue170006Ej, symObjAddr: 0x3340, symBinAddr: 0x1000058E8, symSize: 0x34 }
  - { offsetInCU: 0x6B5CB, offset: 0x6B5CB, size: 0x8, addend: 0x0, symName: __ZNSt3__119normal_distributionIdEC1B8ue170006Edd, symObjAddr: 0x3374, symBinAddr: 0x10000591C, symSize: 0x3C }
  - { offsetInCU: 0x6B616, offset: 0x6B616, size: 0x8, addend: 0x0, symName: __ZNSt3__119normal_distributionIdEclB8ue170006INS_26linear_congruential_engineIjLj48271ELj0ELj2147483647EEEEEdRT_, symObjAddr: 0x33B0, symBinAddr: 0x100005958, symSize: 0x30 }
  - { offsetInCU: 0x6B653, offset: 0x6B653, size: 0x8, addend: 0x0, symName: __ZN5Eigen9DenseBaseINS_6MatrixIdLin1ELin1ELi0ELin1ELin1EEEElsERKd, symObjAddr: 0x35E8, symBinAddr: 0x100005B90, symSize: 0x40 }
  - { offsetInCU: 0x6B68A, offset: 0x6B68A, size: 0x8, addend: 0x0, symName: __ZN5Eigen16CommaInitializerINS_6MatrixIdLin1ELin1ELi0ELin1ELin1EEEEcmERKd, symObjAddr: 0x3628, symBinAddr: 0x100005BD0, symSize: 0x1B8 }
  - { offsetInCU: 0x6B6BE, offset: 0x6B6BE, size: 0x8, addend: 0x0, symName: __ZN5Eigen16CommaInitializerINS_6MatrixIdLin1ELin1ELi0ELin1ELin1EEEED1Ev, symObjAddr: 0x37E0, symBinAddr: 0x100005D88, symSize: 0x2C }
  - { offsetInCU: 0x6B6E8, offset: 0x6B6E8, size: 0x8, addend: 0x0, symName: __ZN8AI_SnakeD1Ev, symObjAddr: 0x380C, symBinAddr: 0x100005DB4, symSize: 0x2C }
  - { offsetInCU: 0x6B714, offset: 0x6B714, size: 0x8, addend: 0x0, symName: __ZN8AI_SnakeD0Ev, symObjAddr: 0x3838, symBinAddr: 0x100005DE0, symSize: 0x30 }
  - { offsetInCU: 0x6B740, offset: 0x6B740, size: 0x8, addend: 0x0, symName: __ZN5Eigen8internal8FixedIntILi1EEC1Ev, symObjAddr: 0x3868, symBinAddr: 0x100005E10, symSize: 0x2C }
  - { offsetInCU: 0x6B76A, offset: 0x6B76A, size: 0x8, addend: 0x0, symName: __ZN5Eigen8internal8FixedIntILi0EEC1Ev, symObjAddr: 0x3894, symBinAddr: 0x100005E3C, symSize: 0x2C }
  - { offsetInCU: 0x6B794, offset: 0x6B794, size: 0x8, addend: 0x0, symName: __ZN5Eigen8internal8FixedIntILi2EEC1Ev, symObjAddr: 0x38C0, symBinAddr: 0x100005E68, symSize: 0x2C }
  - { offsetInCU: 0x6B7BE, offset: 0x6B7BE, size: 0x8, addend: 0x0, symName: __ZN5Eigen8internal8FixedIntILi3EEC1Ev, symObjAddr: 0x38EC, symBinAddr: 0x100005E94, symSize: 0x2C }
  - { offsetInCU: 0x6B7E8, offset: 0x6B7E8, size: 0x8, addend: 0x0, symName: __ZN5Eigen8internal5all_tC2Ev, symObjAddr: 0x3918, symBinAddr: 0x100005EC0, symSize: 0x14 }
  - { offsetInCU: 0x6B817, offset: 0x6B817, size: 0x8, addend: 0x0, symName: __ZNSt3__112basic_stringIcNS_11char_traitsIcEENS_9allocatorIcEEEC1B8ue170006ILi0EEEPKc, symObjAddr: 0x392C, symBinAddr: 0x100005ED4, symSize: 0x34 }
  - { offsetInCU: 0x6B857, offset: 0x6B857, size: 0x8, addend: 0x0, symName: __ZNSt3__112basic_stringIcNS_11char_traitsIcEENS_9allocatorIcEEEC2B8ue170006ILi0EEEPKc, symObjAddr: 0x3960, symBinAddr: 0x100005F08, symSize: 0x58 }
  - { offsetInCU: 0x6B89D, offset: 0x6B89D, size: 0x8, addend: 0x0, symName: __ZNSt3__117__compressed_pairINS_12basic_stringIcNS_11char_traitsIcEENS_9allocatorIcEEE5__repES5_EC1B8ue170006INS_18__default_init_tagESA_EEOT_OT0_, symObjAddr: 0x39B8, symBinAddr: 0x100005F60, symSize: 0x3C }
  - { offsetInCU: 0x6B8F5, offset: 0x6B8F5, size: 0x8, addend: 0x0, symName: __ZNSt3__111char_traitsIcE6lengthB8ue170006EPKc, symObjAddr: 0x39F4, symBinAddr: 0x100005F9C, symSize: 0x34 }
  - { offsetInCU: 0x6B918, offset: 0x6B918, size: 0x8, addend: 0x0, symName: __ZNSt3__117__compressed_pairINS_12basic_stringIcNS_11char_traitsIcEENS_9allocatorIcEEE5__repES5_EC2B8ue170006INS_18__default_init_tagESA_EEOT_OT0_, symObjAddr: 0x3A28, symBinAddr: 0x100005FD0, symSize: 0x3C }
  - { offsetInCU: 0x6B970, offset: 0x6B970, size: 0x8, addend: 0x0, symName: __ZNSt3__122__compressed_pair_elemINS_12basic_stringIcNS_11char_traitsIcEENS_9allocatorIcEEE5__repELi0ELb0EEC2B8ue170006ENS_18__default_init_tagE, symObjAddr: 0x3A64, symBinAddr: 0x10000600C, symSize: 0x14 }
  - { offsetInCU: 0x6B9A5, offset: 0x6B9A5, size: 0x8, addend: 0x0, symName: __ZNSt3__122__compressed_pair_elemINS_9allocatorIcEELi1ELb1EEC2B8ue170006ENS_18__default_init_tagE, symObjAddr: 0x3A78, symBinAddr: 0x100006020, symSize: 0x2C }
  - { offsetInCU: 0x6B9DA, offset: 0x6B9DA, size: 0x8, addend: 0x0, symName: __ZNSt3__19allocatorIcEC2B8ue170006Ev, symObjAddr: 0x3AA4, symBinAddr: 0x10000604C, symSize: 0x2C }
  - { offsetInCU: 0x6BA04, offset: 0x6BA04, size: 0x8, addend: 0x0, symName: __ZNSt3__116__non_trivial_ifILb1ENS_9allocatorIcEEEC2B8ue170006Ev, symObjAddr: 0x3AD0, symBinAddr: 0x100006078, symSize: 0x14 }
  - { offsetInCU: 0x6BA2E, offset: 0x6BA2E, size: 0x8, addend: 0x0, symName: __ZN5Eigen6MatrixIdLin1ELin1ELi0ELin1ELin1EED2Ev, symObjAddr: 0x3B14, symBinAddr: 0x1000060BC, symSize: 0x2C }
  - { offsetInCU: 0x6BA5A, offset: 0x6BA5A, size: 0x8, addend: 0x0, symName: __ZN5Eigen15PlainObjectBaseINS_6MatrixIdLin1ELin1ELi0ELin1ELin1EEEED2Ev, symObjAddr: 0x3B40, symBinAddr: 0x1000060E8, symSize: 0x2C }
  - { offsetInCU: 0x6BA86, offset: 0x6BA86, size: 0x8, addend: 0x0, symName: __ZN5Eigen12DenseStorageIdLin1ELin1ELin1ELi0EED1Ev, symObjAddr: 0x3B6C, symBinAddr: 0x100006114, symSize: 0x2C }
  - { offsetInCU: 0x6BAB0, offset: 0x6BAB0, size: 0x8, addend: 0x0, symName: __ZN5Eigen12DenseStorageIdLin1ELin1ELin1ELi0EED2Ev, symObjAddr: 0x3B98, symBinAddr: 0x100006140, symSize: 0x44 }
  - { offsetInCU: 0x6BADA, offset: 0x6BADA, size: 0x8, addend: 0x0, symName: __ZNSt3__16vectorIN6global8PositionENS_9allocatorIS2_EEED1B8ue170006Ev, symObjAddr: 0x3C4C, symBinAddr: 0x1000061F4, symSize: 0x2C }
  - { offsetInCU: 0x6BB04, offset: 0x6BB04, size: 0x8, addend: 0x0, symName: __ZN5SnakeD1Ev, symObjAddr: 0x3C78, symBinAddr: 0x100006220, symSize: 0x14 }
  - { offsetInCU: 0x6BB2E, offset: 0x6BB2E, size: 0x8, addend: 0x0, symName: __ZN5SnakeD0Ev, symObjAddr: 0x3C8C, symBinAddr: 0x100006234, symSize: 0xC }
  - { offsetInCU: 0x6BB58, offset: 0x6BB58, size: 0x8, addend: 0x0, symName: __ZNSt3__16vectorIN6global8PositionENS_9allocatorIS2_EEED2B8ue170006Ev, symObjAddr: 0x3C98, symBinAddr: 0x100006240, symSize: 0x44 }
  - { offsetInCU: 0x6BB82, offset: 0x6BB82, size: 0x8, addend: 0x0, symName: __ZNSt3__16vectorIN6global8PositionENS_9allocatorIS2_EEE16__destroy_vectorC1B8ue170006ERS5_, symObjAddr: 0x3CDC, symBinAddr: 0x100006284, symSize: 0x34 }
  - { offsetInCU: 0x6BBBB, offset: 0x6BBBB, size: 0x8, addend: 0x0, symName: __ZNSt3__16vectorIN6global8PositionENS_9allocatorIS2_EEE16__destroy_vectorclB8ue170006Ev, symObjAddr: 0x3D10, symBinAddr: 0x1000062B8, symSize: 0x90 }
  - { offsetInCU: 0x6BBE1, offset: 0x6BBE1, size: 0x8, addend: 0x0, symName: __ZNSt3__16vectorIN6global8PositionENS_9allocatorIS2_EEE16__destroy_vectorC2B8ue170006ERS5_, symObjAddr: 0x3DA0, symBinAddr: 0x100006348, symSize: 0x20 }
  - { offsetInCU: 0x6BC1A, offset: 0x6BC1A, size: 0x8, addend: 0x0, symName: __ZNSt3__16vectorIN6global8PositionENS_9allocatorIS2_EEE7__clearB8ue170006Ev, symObjAddr: 0x3DC0, symBinAddr: 0x100006368, symSize: 0x28 }
  - { offsetInCU: 0x6BC40, offset: 0x6BC40, size: 0x8, addend: 0x0, symName: __ZNKSt3__16vectorIN6global8PositionENS_9allocatorIS2_EEE17__annotate_deleteB8ue170006Ev, symObjAddr: 0x3DE8, symBinAddr: 0x100006390, symSize: 0xB8 }
  - { offsetInCU: 0x6BC66, offset: 0x6BC66, size: 0x8, addend: 0x0, symName: __ZNSt3__116allocator_traitsINS_9allocatorIN6global8PositionEEEE10deallocateB8ue170006ERS4_PS3_m, symObjAddr: 0x3EA0, symBinAddr: 0x100006448, symSize: 0x34 }
  - { offsetInCU: 0x6BCA8, offset: 0x6BCA8, size: 0x8, addend: 0x0, symName: __ZNSt3__16vectorIN6global8PositionENS_9allocatorIS2_EEE7__allocB8ue170006Ev, symObjAddr: 0x3ED4, symBinAddr: 0x10000647C, symSize: 0x28 }
  - { offsetInCU: 0x6BCCE, offset: 0x6BCCE, size: 0x8, addend: 0x0, symName: __ZNKSt3__16vectorIN6global8PositionENS_9allocatorIS2_EEE8capacityB8ue170006Ev, symObjAddr: 0x3EFC, symBinAddr: 0x1000064A4, symSize: 0x40 }
  - { offsetInCU: 0x6BCF4, offset: 0x6BCF4, size: 0x8, addend: 0x0, symName: __ZNSt3__16vectorIN6global8PositionENS_9allocatorIS2_EEE22__base_destruct_at_endB8ue170006EPS2_, symObjAddr: 0x3F3C, symBinAddr: 0x1000064E4, symSize: 0x8C }
  - { offsetInCU: 0x6BD38, offset: 0x6BD38, size: 0x8, addend: 0x0, symName: __ZNSt3__116allocator_traitsINS_9allocatorIN6global8PositionEEEE7destroyB8ue170006IS3_vEEvRS4_PT_, symObjAddr: 0x3FC8, symBinAddr: 0x100006570, symSize: 0x2C }
  - { offsetInCU: 0x6BD76, offset: 0x6BD76, size: 0x8, addend: 0x0, symName: __ZNSt3__19allocatorIN6global8PositionEE7destroyB8ue170006EPS2_, symObjAddr: 0x4008, symBinAddr: 0x1000065B0, symSize: 0x14 }
  - { offsetInCU: 0x6BDAA, offset: 0x6BDAA, size: 0x8, addend: 0x0, symName: __ZNKSt3__16vectorIN6global8PositionENS_9allocatorIS2_EEE31__annotate_contiguous_containerB8ue170006EPKvS7_S7_S7_, symObjAddr: 0x401C, symBinAddr: 0x1000065C4, symSize: 0x20 }
  - { offsetInCU: 0x6BDFC, offset: 0x6BDFC, size: 0x8, addend: 0x0, symName: __ZNKSt3__16vectorIN6global8PositionENS_9allocatorIS2_EEE4dataB8ue170006Ev, symObjAddr: 0x403C, symBinAddr: 0x1000065E4, symSize: 0x28 }
  - { offsetInCU: 0x6BE22, offset: 0x6BE22, size: 0x8, addend: 0x0, symName: __ZNKSt3__16vectorIN6global8PositionENS_9allocatorIS2_EEE4sizeB8ue170006Ev, symObjAddr: 0x4064, symBinAddr: 0x10000660C, symSize: 0x28 }
  - { offsetInCU: 0x6BE48, offset: 0x6BE48, size: 0x8, addend: 0x0, symName: __ZNSt3__19allocatorIN6global8PositionEE10deallocateB8ue170006EPS2_m, symObjAddr: 0x408C, symBinAddr: 0x100006634, symSize: 0x40 }
  - { offsetInCU: 0x6BE8A, offset: 0x6BE8A, size: 0x8, addend: 0x0, symName: __ZNSt3__117__compressed_pairIPN6global8PositionENS_9allocatorIS2_EEE6secondB8ue170006Ev, symObjAddr: 0x41F4, symBinAddr: 0x10000679C, symSize: 0x24 }
  - { offsetInCU: 0x6BEB0, offset: 0x6BEB0, size: 0x8, addend: 0x0, symName: __ZNSt3__122__compressed_pair_elemINS_9allocatorIN6global8PositionEEELi1ELb1EE5__getB8ue170006Ev, symObjAddr: 0x4218, symBinAddr: 0x1000067C0, symSize: 0x14 }
  - { offsetInCU: 0x6BED6, offset: 0x6BED6, size: 0x8, addend: 0x0, symName: __ZNKSt3__16vectorIN6global8PositionENS_9allocatorIS2_EEE9__end_capB8ue170006Ev, symObjAddr: 0x422C, symBinAddr: 0x1000067D4, symSize: 0x28 }
  - { offsetInCU: 0x6BEFC, offset: 0x6BEFC, size: 0x8, addend: 0x0, symName: __ZNKSt3__117__compressed_pairIPN6global8PositionENS_9allocatorIS2_EEE5firstB8ue170006Ev, symObjAddr: 0x4254, symBinAddr: 0x1000067FC, symSize: 0x24 }
  - { offsetInCU: 0x6BF22, offset: 0x6BF22, size: 0x8, addend: 0x0, symName: __ZNKSt3__122__compressed_pair_elemIPN6global8PositionELi0ELb0EE5__getB8ue170006Ev, symObjAddr: 0x4278, symBinAddr: 0x100006820, symSize: 0x14 }
  - { offsetInCU: 0x6BF4D, offset: 0x6BF4D, size: 0x8, addend: 0x0, symName: __ZN5Eigen5ArrayIdLin1ELi1ELi0ELin1ELi1EEC1INS_6MatrixIdLin1ELin1ELi0ELin1ELin1EEEEERKNS_9EigenBaseIT_EENS_8internal9enable_ifIXsr8internal14is_convertibleINS6_6ScalarEdEE5valueENS1_11PrivateTypeEE4typeE, symObjAddr: 0x44F0, symBinAddr: 0x100006A98, symSize: 0x34 }
  - { offsetInCU: 0x6BF9A, offset: 0x6BF9A, size: 0x8, addend: 0x0, symName: __ZNK5Eigen10MatrixBaseINS_6MatrixIdLin1ELin1ELi0ELin1ELin1EEEEmlIS2_EEKNS_7ProductIS2_T_Li0EEERKNS0_IS6_EE, symObjAddr: 0x4524, symBinAddr: 0x100006ACC, symSize: 0x4C }
  - { offsetInCU: 0x6BFDA, offset: 0x6BFDA, size: 0x8, addend: 0x0, symName: __ZNK5Eigen10MatrixBaseINS_7ProductINS_6MatrixIdLin1ELin1ELi0ELin1ELin1EEES3_Li0EEEEplIS3_EEKNS_13CwiseBinaryOpINS_8internal13scalar_sum_opIdNS8_6traitsIT_E6ScalarEEEKS4_KSB_EERKNS0_ISB_EE, symObjAddr: 0x4570, symBinAddr: 0x100006B18, symSize: 0x60 }
  - { offsetInCU: 0x6C01C, offset: 0x6C01C, size: 0x8, addend: 0x0, symName: __ZN5Eigen6MatrixIdLin1ELin1ELi0ELin1ELin1EEC1INS_13CwiseBinaryOpINS_8internal13scalar_sum_opIddEEKNS_7ProductIS1_S1_Li0EEEKS1_EEEERKNS_9EigenBaseIT_EE, symObjAddr: 0x45D0, symBinAddr: 0x100006B78, symSize: 0x34 }
  - { offsetInCU: 0x6C05E, offset: 0x6C05E, size: 0x8, addend: 0x0, symName: __ZNK5Eigen9EigenBaseINS_6MatrixIdLin1ELin1ELi0ELin1ELin1EEEE7derivedEv, symObjAddr: 0x4650, symBinAddr: 0x100006BF8, symSize: 0x14 }
  - { offsetInCU: 0x6C084, offset: 0x6C084, size: 0x8, addend: 0x0, symName: __ZN5Eigen7ProductINS_6MatrixIdLin1ELin1ELi0ELin1ELin1EEES2_Li0EEC1ERKS2_S5_, symObjAddr: 0x4664, symBinAddr: 0x100006C0C, symSize: 0x3C }
  - { offsetInCU: 0x6C0CA, offset: 0x6C0CA, size: 0x8, addend: 0x0, symName: __ZN5Eigen7ProductINS_6MatrixIdLin1ELin1ELi0ELin1ELin1EEES2_Li0EEC2ERKS2_S5_, symObjAddr: 0x46A0, symBinAddr: 0x100006C48, symSize: 0xC0 }
  - { offsetInCU: 0x6C115, offset: 0x6C115, size: 0x8, addend: 0x0, symName: __ZN5Eigen11ProductImplINS_6MatrixIdLin1ELin1ELi0ELin1ELin1EEES2_Li0ENS_5DenseEEC2Ev, symObjAddr: 0x4760, symBinAddr: 0x100006D08, symSize: 0x2C }
  - { offsetInCU: 0x6C146, offset: 0x6C146, size: 0x8, addend: 0x0, symName: __ZN5Eigen8internal18dense_product_baseINS_6MatrixIdLin1ELin1ELi0ELin1ELin1EEES3_Li0ELi8EEC2Ev, symObjAddr: 0x478C, symBinAddr: 0x100006D34, symSize: 0x2C }
  - { offsetInCU: 0x6C172, offset: 0x6C172, size: 0x8, addend: 0x0, symName: __ZN5Eigen10MatrixBaseINS_7ProductINS_6MatrixIdLin1ELin1ELi0ELin1ELin1EEES3_Li0EEEEC2Ev, symObjAddr: 0x47B8, symBinAddr: 0x100006D60, symSize: 0x2C }
  - { offsetInCU: 0x6C19C, offset: 0x6C19C, size: 0x8, addend: 0x0, symName: __ZN5Eigen9DenseBaseINS_7ProductINS_6MatrixIdLin1ELin1ELi0ELin1ELin1EEES3_Li0EEEEC2Ev, symObjAddr: 0x47E4, symBinAddr: 0x100006D8C, symSize: 0x14 }
  - { offsetInCU: 0x6C1C6, offset: 0x6C1C6, size: 0x8, addend: 0x0, symName: __ZNK5Eigen9EigenBaseINS_7ProductINS_6MatrixIdLin1ELin1ELi0ELin1ELin1EEES3_Li0EEEE7derivedEv, symObjAddr: 0x47F8, symBinAddr: 0x100006DA0, symSize: 0x14 }
  - { offsetInCU: 0x6C1EC, offset: 0x6C1EC, size: 0x8, addend: 0x0, symName: __ZN5Eigen8internal13scalar_sum_opIddEC1Ev, symObjAddr: 0x480C, symBinAddr: 0x100006DB4, symSize: 0x2C }
  - { offsetInCU: 0x6C216, offset: 0x6C216, size: 0x8, addend: 0x0, symName: __ZN5Eigen13CwiseBinaryOpINS_8internal13scalar_sum_opIddEEKNS_7ProductINS_6MatrixIdLin1ELin1ELi0ELin1ELin1EEES6_Li0EEEKS6_EC1ERS8_RS9_RKS3_, symObjAddr: 0x4838, symBinAddr: 0x100006DE0, symSize: 0x44 }
  - { offsetInCU: 0x6C26A, offset: 0x6C26A, size: 0x8, addend: 0x0, symName: __ZN5Eigen8internal13scalar_sum_opIddEC2Ev, symObjAddr: 0x487C, symBinAddr: 0x100006E24, symSize: 0x14 }
  - { offsetInCU: 0x6C294, offset: 0x6C294, size: 0x8, addend: 0x0, symName: __ZN5Eigen13CwiseBinaryOpINS_8internal13scalar_sum_opIddEEKNS_7ProductINS_6MatrixIdLin1ELin1ELi0ELin1ELin1EEES6_Li0EEEKS6_EC2ERS8_RS9_RKS3_, symObjAddr: 0x4890, symBinAddr: 0x100006E38, symSize: 0xF4 }
  - { offsetInCU: 0x6C2ED, offset: 0x6C2ED, size: 0x8, addend: 0x0, symName: __ZN5Eigen17CwiseBinaryOpImplINS_8internal13scalar_sum_opIddEEKNS_7ProductINS_6MatrixIdLin1ELin1ELi0ELin1ELin1EEES6_Li0EEEKS6_NS_5DenseEEC2Ev, symObjAddr: 0x4984, symBinAddr: 0x100006F2C, symSize: 0x2C }
  - { offsetInCU: 0x6C319, offset: 0x6C319, size: 0x8, addend: 0x0, symName: __ZN5Eigen8internal13scalar_sum_opIddEC1ERKS2_, symObjAddr: 0x49B0, symBinAddr: 0x100006F58, symSize: 0x34 }
  - { offsetInCU: 0x6C34E, offset: 0x6C34E, size: 0x8, addend: 0x0, symName: __ZNK5Eigen7ProductINS_6MatrixIdLin1ELin1ELi0ELin1ELin1EEES2_Li0EE4rowsEv, symObjAddr: 0x49E4, symBinAddr: 0x100006F8C, symSize: 0x28 }
  - { offsetInCU: 0x6C374, offset: 0x6C374, size: 0x8, addend: 0x0, symName: __ZNK5Eigen7ProductINS_6MatrixIdLin1ELin1ELi0ELin1ELin1EEES2_Li0EE4colsEv, symObjAddr: 0x4A0C, symBinAddr: 0x100006FB4, symSize: 0x28 }
  - { offsetInCU: 0x6C39A, offset: 0x6C39A, size: 0x8, addend: 0x0, symName: __ZN5Eigen10MatrixBaseINS_13CwiseBinaryOpINS_8internal13scalar_sum_opIddEEKNS_7ProductINS_6MatrixIdLin1ELin1ELi0ELin1ELin1EEES7_Li0EEEKS7_EEEC2Ev, symObjAddr: 0x4A34, symBinAddr: 0x100006FDC, symSize: 0x2C }
  - { offsetInCU: 0x6C3C4, offset: 0x6C3C4, size: 0x8, addend: 0x0, symName: __ZN5Eigen9DenseBaseINS_13CwiseBinaryOpINS_8internal13scalar_sum_opIddEEKNS_7ProductINS_6MatrixIdLin1ELin1ELi0ELin1ELin1EEES7_Li0EEEKS7_EEEC2Ev, symObjAddr: 0x4A60, symBinAddr: 0x100007008, symSize: 0x14 }
  - { offsetInCU: 0x6C3EE, offset: 0x6C3EE, size: 0x8, addend: 0x0, symName: __ZN5Eigen8internal13scalar_sum_opIddEC2ERKS2_, symObjAddr: 0x4A74, symBinAddr: 0x10000701C, symSize: 0x18 }
  - { offsetInCU: 0x6C423, offset: 0x6C423, size: 0x8, addend: 0x0, symName: __ZN5Eigen6MatrixIdLin1ELin1ELi0ELin1ELin1EEC2INS_13CwiseBinaryOpINS_8internal13scalar_sum_opIddEEKNS_7ProductIS1_S1_Li0EEEKS1_EEEERKNS_9EigenBaseIT_EE, symObjAddr: 0x4A8C, symBinAddr: 0x100007034, symSize: 0x40 }
  - { offsetInCU: 0x6C465, offset: 0x6C465, size: 0x8, addend: 0x0, symName: __ZNK5Eigen9EigenBaseINS_13CwiseBinaryOpINS_8internal13scalar_sum_opIddEEKNS_7ProductINS_6MatrixIdLin1ELin1ELi0ELin1ELin1EEES7_Li0EEEKS7_EEE7derivedEv, symObjAddr: 0x4ACC, symBinAddr: 0x100007074, symSize: 0x14 }
  - { offsetInCU: 0x6C48B, offset: 0x6C48B, size: 0x8, addend: 0x0, symName: __ZN5Eigen15PlainObjectBaseINS_6MatrixIdLin1ELin1ELi0ELin1ELin1EEEEC2INS_13CwiseBinaryOpINS_8internal13scalar_sum_opIddEEKNS_7ProductIS2_S2_Li0EEEKS2_EEEERKNS_9DenseBaseIT_EE, symObjAddr: 0x4AE0, symBinAddr: 0x100007088, symSize: 0x84 }
  - { offsetInCU: 0x6C4CD, offset: 0x6C4CD, size: 0x8, addend: 0x0, symName: __ZN5Eigen10MatrixBaseINS_6MatrixIdLin1ELin1ELi0ELin1ELin1EEEEC2Ev, symObjAddr: 0x4B64, symBinAddr: 0x10000710C, symSize: 0x2C }
  - { offsetInCU: 0x6C4F7, offset: 0x6C4F7, size: 0x8, addend: 0x0, symName: __ZN5Eigen12DenseStorageIdLin1ELin1ELin1ELi0EEC1Ev, symObjAddr: 0x4B90, symBinAddr: 0x100007138, symSize: 0x2C }
  - { offsetInCU: 0x6C521, offset: 0x6C521, size: 0x8, addend: 0x0, symName: __ZN5Eigen15PlainObjectBaseINS_6MatrixIdLin1ELin1ELi0ELin1ELin1EEEE22_check_template_paramsEv, symObjAddr: 0x4BBC, symBinAddr: 0x100007164, symSize: 0x4 }
  - { offsetInCU: 0x6C576, offset: 0x6C576, size: 0x8, addend: 0x0, symName: __ZN5Eigen15PlainObjectBaseINS_6MatrixIdLin1ELin1ELi0ELin1ELin1EEEE10resizeLikeINS_13CwiseBinaryOpINS_8internal13scalar_sum_opIddEEKNS_7ProductIS2_S2_Li0EEEKS2_EEEEvRKNS_9EigenBaseIT_EE, symObjAddr: 0x4BC0, symBinAddr: 0x100007168, symSize: 0x11C }
  - { offsetInCU: 0x6C60A, offset: 0x6C60A, size: 0x8, addend: 0x0, symName: __ZN5Eigen15PlainObjectBaseINS_6MatrixIdLin1ELin1ELi0ELin1ELin1EEEE12_set_noaliasINS_13CwiseBinaryOpINS_8internal13scalar_sum_opIddEEKNS_7ProductIS2_S2_Li0EEEKS2_EEEERS2_RKNS_9DenseBaseIT_EE, symObjAddr: 0x4CDC, symBinAddr: 0x100007284, symSize: 0x60 }
  - { offsetInCU: 0x6C648, offset: 0x6C648, size: 0x8, addend: 0x0, symName: __ZN5Eigen9DenseBaseINS_6MatrixIdLin1ELin1ELi0ELin1ELin1EEEEC2Ev, symObjAddr: 0x4D3C, symBinAddr: 0x1000072E4, symSize: 0x14 }
  - { offsetInCU: 0x6C672, offset: 0x6C672, size: 0x8, addend: 0x0, symName: __ZN5Eigen12DenseStorageIdLin1ELin1ELin1ELi0EEC2Ev, symObjAddr: 0x4D50, symBinAddr: 0x1000072F8, symSize: 0x20 }
  - { offsetInCU: 0x6C69C, offset: 0x6C69C, size: 0x8, addend: 0x0, symName: __ZNK5Eigen13CwiseBinaryOpINS_8internal13scalar_sum_opIddEEKNS_7ProductINS_6MatrixIdLin1ELin1ELi0ELin1ELin1EEES6_Li0EEEKS6_E4rowsEv, symObjAddr: 0x4D70, symBinAddr: 0x100007318, symSize: 0x28 }
  - { offsetInCU: 0x6C6C2, offset: 0x6C6C2, size: 0x8, addend: 0x0, symName: __ZNK5Eigen13CwiseBinaryOpINS_8internal13scalar_sum_opIddEEKNS_7ProductINS_6MatrixIdLin1ELin1ELi0ELin1ELin1EEES6_Li0EEEKS6_E4colsEv, symObjAddr: 0x4D98, symBinAddr: 0x100007340, symSize: 0x28 }
  - { offsetInCU: 0x6C6E8, offset: 0x6C6E8, size: 0x8, addend: 0x0, symName: __ZN5Eigen15PlainObjectBaseINS_6MatrixIdLin1ELin1ELi0ELin1ELin1EEEE6resizeEll, symObjAddr: 0x4DC0, symBinAddr: 0x100007368, symSize: 0x14C }
  - { offsetInCU: 0x6C764, offset: 0x6C764, size: 0x8, addend: 0x0, symName: __ZN5Eigen12DenseStorageIdLin1ELin1ELin1ELi0EE6resizeElll, symObjAddr: 0x4F40, symBinAddr: 0x1000074E8, symSize: 0xB4 }
  - { offsetInCU: 0x6C7B7, offset: 0x6C7B7, size: 0x8, addend: 0x0, symName: __ZN5Eigen9EigenBaseINS_6MatrixIdLin1ELin1ELi0ELin1ELin1EEEE7derivedEv, symObjAddr: 0x51B8, symBinAddr: 0x100007760, symSize: 0x14 }
  - { offsetInCU: 0x6C7DD, offset: 0x6C7DD, size: 0x8, addend: 0x0, symName: __ZN5Eigen8internal9assign_opIddEC1Ev, symObjAddr: 0x51CC, symBinAddr: 0x100007774, symSize: 0x2C }
  - { offsetInCU: 0x6C807, offset: 0x6C807, size: 0x8, addend: 0x0, symName: __ZN5Eigen8internal10AssignmentINS_6MatrixIdLin1ELin1ELi0ELin1ELin1EEENS_13CwiseBinaryOpINS0_13scalar_sum_opIddEEKNS_7ProductIS3_S3_Li0EEEKS3_EENS0_9assign_opIddEENS0_11Dense2DenseEvE3runERS3_RKSB_RKSD_, symObjAddr: 0x51F8, symBinAddr: 0x1000077A0, symSize: 0x40 }
  - { offsetInCU: 0x6C849, offset: 0x6C849, size: 0x8, addend: 0x0, symName: __ZN5Eigen8internal27checkTransposeAliasing_implINS_6MatrixIdLin1ELin1ELi0ELin1ELin1EEENS_13CwiseBinaryOpINS0_13scalar_sum_opIddEEKNS_7ProductIS3_S3_Li0EEEKS3_EELb0EE3runERSA_RKSB_, symObjAddr: 0x5378, symBinAddr: 0x100007920, symSize: 0x14 }
  - { offsetInCU: 0x6C874, offset: 0x6C874, size: 0x8, addend: 0x0, symName: __ZN5Eigen8internal9evaluatorINS_13CwiseBinaryOpINS0_13scalar_sum_opIddEEKNS_7ProductINS_6MatrixIdLin1ELin1ELi0ELin1ELin1EEES7_Li0EEEKS7_EEEC1ERKSB_, symObjAddr: 0x538C, symBinAddr: 0x100007934, symSize: 0x34 }
  - { offsetInCU: 0x6C8AD, offset: 0x6C8AD, size: 0x8, addend: 0x0, symName: __ZN5Eigen8internal9evaluatorINS_6MatrixIdLin1ELin1ELi0ELin1ELin1EEEEC1ERKS3_, symObjAddr: 0x54B8, symBinAddr: 0x100007A60, symSize: 0x34 }
  - { offsetInCU: 0x6C8E6, offset: 0x6C8E6, size: 0x8, addend: 0x0, symName: __ZNK5Eigen9EigenBaseINS_6MatrixIdLin1ELin1ELi0ELin1ELin1EEEE18const_cast_derivedEv, symObjAddr: 0x54EC, symBinAddr: 0x100007A94, symSize: 0x14 }
  - { offsetInCU: 0x6C90C, offset: 0x6C90C, size: 0x8, addend: 0x0, symName: __ZN5Eigen8internal31generic_dense_assignment_kernelINS0_9evaluatorINS_6MatrixIdLin1ELin1ELi0ELin1ELin1EEEEENS2_INS_13CwiseBinaryOpINS0_13scalar_sum_opIddEEKNS_7ProductIS4_S4_Li0EEEKS4_EEEENS0_9assign_opIddEELi0EEC1ERS5_RKSE_RKSG_RS4_, symObjAddr: 0x5500, symBinAddr: 0x100007AA8, symSize: 0x4C }
  - { offsetInCU: 0x6C972, offset: 0x6C972, size: 0x8, addend: 0x0, symName: __ZN5Eigen8internal9evaluatorINS_6MatrixIdLin1ELin1ELi0ELin1ELin1EEEED1Ev, symObjAddr: 0x55F4, symBinAddr: 0x100007B9C, symSize: 0x2C }
  - { offsetInCU: 0x6C99F, offset: 0x6C99F, size: 0x8, addend: 0x0, symName: __ZN5Eigen8internal9evaluatorINS_13CwiseBinaryOpINS0_13scalar_sum_opIddEEKNS_7ProductINS_6MatrixIdLin1ELin1ELi0ELin1ELin1EEES7_Li0EEEKS7_EEED1Ev, symObjAddr: 0x5620, symBinAddr: 0x100007BC8, symSize: 0x2C }
  - { offsetInCU: 0x6C9CC, offset: 0x6C9CC, size: 0x8, addend: 0x0, symName: __ZN5Eigen8internal9evaluatorINS_13CwiseBinaryOpINS0_13scalar_sum_opIddEEKNS_7ProductINS_6MatrixIdLin1ELin1ELi0ELin1ELin1EEES7_Li0EEEKS7_EEEC2ERKSB_, symObjAddr: 0x564C, symBinAddr: 0x100007BF4, symSize: 0x34 }
  - { offsetInCU: 0x6CA05, offset: 0x6CA05, size: 0x8, addend: 0x0, symName: __ZN5Eigen8internal16binary_evaluatorINS_13CwiseBinaryOpINS0_13scalar_sum_opIddEEKNS_7ProductINS_6MatrixIdLin1ELin1ELi0ELin1ELin1EEES7_Li0EEEKS7_EENS0_10IndexBasedESC_ddEC2ERKSB_, symObjAddr: 0x5680, symBinAddr: 0x100007C28, symSize: 0x64 }
  - { offsetInCU: 0x6CA3E, offset: 0x6CA3E, size: 0x8, addend: 0x0, symName: __ZN5Eigen8internal14evaluator_baseINS_13CwiseBinaryOpINS0_13scalar_sum_opIddEEKNS_7ProductINS_6MatrixIdLin1ELin1ELi0ELin1ELin1EEES7_Li0EEEKS7_EEEC2Ev, symObjAddr: 0x56E4, symBinAddr: 0x100007C8C, symSize: 0x14 }
  - { offsetInCU: 0x6CA68, offset: 0x6CA68, size: 0x8, addend: 0x0, symName: __ZN5Eigen8internal16binary_evaluatorINS_13CwiseBinaryOpINS0_13scalar_sum_opIddEEKNS_7ProductINS_6MatrixIdLin1ELin1ELi0ELin1ELin1EEES7_Li0EEEKS7_EENS0_10IndexBasedESC_ddE4DataC1ERKSB_, symObjAddr: 0x56F8, symBinAddr: 0x100007CA0, symSize: 0x34 }
  - { offsetInCU: 0x6CAA1, offset: 0x6CAA1, size: 0x8, addend: 0x0, symName: __ZN5Eigen8internal14evaluator_baseINS_13CwiseBinaryOpINS0_13scalar_sum_opIddEEKNS_7ProductINS_6MatrixIdLin1ELin1ELi0ELin1ELin1EEES7_Li0EEEKS7_EEED2Ev, symObjAddr: 0x572C, symBinAddr: 0x100007CD4, symSize: 0x14 }
  - { offsetInCU: 0x6CACB, offset: 0x6CACB, size: 0x8, addend: 0x0, symName: __ZN5Eigen8internal16binary_evaluatorINS_13CwiseBinaryOpINS0_13scalar_sum_opIddEEKNS_7ProductINS_6MatrixIdLin1ELin1ELi0ELin1ELin1EEES7_Li0EEEKS7_EENS0_10IndexBasedESC_ddE4DataC2ERKSB_, symObjAddr: 0x5740, symBinAddr: 0x100007CE8, symSize: 0xA8 }
  - { offsetInCU: 0x6CB04, offset: 0x6CB04, size: 0x8, addend: 0x0, symName: __ZNK5Eigen13CwiseBinaryOpINS_8internal13scalar_sum_opIddEEKNS_7ProductINS_6MatrixIdLin1ELin1ELi0ELin1ELin1EEES6_Li0EEEKS6_E7functorEv, symObjAddr: 0x57E8, symBinAddr: 0x100007D90, symSize: 0x18 }
  - { offsetInCU: 0x6CB2A, offset: 0x6CB2A, size: 0x8, addend: 0x0, symName: __ZNK5Eigen13CwiseBinaryOpINS_8internal13scalar_sum_opIddEEKNS_7ProductINS_6MatrixIdLin1ELin1ELi0ELin1ELin1EEES6_Li0EEEKS6_E3lhsEv, symObjAddr: 0x5800, symBinAddr: 0x100007DA8, symSize: 0x14 }
  - { offsetInCU: 0x6CB50, offset: 0x6CB50, size: 0x8, addend: 0x0, symName: __ZN5Eigen8internal9evaluatorIKNS_7ProductINS_6MatrixIdLin1ELin1ELi0ELin1ELin1EEES4_Li0EEEEC1ERS6_, symObjAddr: 0x5814, symBinAddr: 0x100007DBC, symSize: 0x34 }
  - { offsetInCU: 0x6CB88, offset: 0x6CB88, size: 0x8, addend: 0x0, symName: __ZNK5Eigen13CwiseBinaryOpINS_8internal13scalar_sum_opIddEEKNS_7ProductINS_6MatrixIdLin1ELin1ELi0ELin1ELin1EEES6_Li0EEEKS6_E3rhsEv, symObjAddr: 0x5848, symBinAddr: 0x100007DF0, symSize: 0x18 }
  - { offsetInCU: 0x6CBAE, offset: 0x6CBAE, size: 0x8, addend: 0x0, symName: __ZN5Eigen8internal9evaluatorIKNS_6MatrixIdLin1ELin1ELi0ELin1ELin1EEEEC1ERS4_, symObjAddr: 0x5860, symBinAddr: 0x100007E08, symSize: 0x34 }
  - { offsetInCU: 0x6CBE6, offset: 0x6CBE6, size: 0x8, addend: 0x0, symName: __ZN5Eigen8internal9evaluatorIKNS_7ProductINS_6MatrixIdLin1ELin1ELi0ELin1ELin1EEES4_Li0EEEED1Ev, symObjAddr: 0x5894, symBinAddr: 0x100007E3C, symSize: 0x2C }
  - { offsetInCU: 0x6CC12, offset: 0x6CC12, size: 0x8, addend: 0x0, symName: __ZN5Eigen8internal9evaluatorIKNS_7ProductINS_6MatrixIdLin1ELin1ELi0ELin1ELin1EEES4_Li0EEEEC2ERS6_, symObjAddr: 0x58C0, symBinAddr: 0x100007E68, symSize: 0x34 }
  - { offsetInCU: 0x6CC4A, offset: 0x6CC4A, size: 0x8, addend: 0x0, symName: __ZN5Eigen8internal9evaluatorINS_7ProductINS_6MatrixIdLin1ELin1ELi0ELin1ELin1EEES4_Li0EEEEC2ERKS5_, symObjAddr: 0x58F4, symBinAddr: 0x100007E9C, symSize: 0x34 }
  - { offsetInCU: 0x6CC82, offset: 0x6CC82, size: 0x8, addend: 0x0, symName: __ZN5Eigen8internal17product_evaluatorINS_7ProductINS_6MatrixIdLin1ELin1ELi0ELin1ELin1EEES4_Li0EEELi8ENS_10DenseShapeES6_ddEC2ERKS5_, symObjAddr: 0x5928, symBinAddr: 0x100007ED0, symSize: 0x108 }
  - { offsetInCU: 0x6CCBA, offset: 0x6CCBA, size: 0x8, addend: 0x0, symName: __ZN5Eigen8internal9evaluatorINS_6MatrixIdLin1ELin1ELi0ELin1ELin1EEEEC2Ev, symObjAddr: 0x5A30, symBinAddr: 0x100007FD8, symSize: 0x2C }
  - { offsetInCU: 0x6CCE9, offset: 0x6CCE9, size: 0x8, addend: 0x0, symName: __ZN5Eigen6MatrixIdLin1ELin1ELi0ELin1ELin1EEC1IllEERKT_RKT0_, symObjAddr: 0x5A5C, symBinAddr: 0x100008004, symSize: 0x3C }
  - { offsetInCU: 0x6CD43, offset: 0x6CD43, size: 0x8, addend: 0x0, symName: __ZN5Eigen8internal20generic_product_implINS_6MatrixIdLin1ELin1ELi0ELin1ELin1EEES3_NS_10DenseShapeES4_Li8EE6evalToIS3_EEvRT_RKS3_SA_, symObjAddr: 0x5A98, symBinAddr: 0x100008040, symSize: 0xE4 }
  - { offsetInCU: 0x6CD8E, offset: 0x6CD8E, size: 0x8, addend: 0x0, symName: __ZNK5Eigen7ProductINS_6MatrixIdLin1ELin1ELi0ELin1ELin1EEES2_Li0EE3lhsEv, symObjAddr: 0x5B7C, symBinAddr: 0x100008124, symSize: 0x18 }
  - { offsetInCU: 0x6CDB4, offset: 0x6CDB4, size: 0x8, addend: 0x0, symName: __ZNK5Eigen7ProductINS_6MatrixIdLin1ELin1ELi0ELin1ELin1EEES2_Li0EE3rhsEv, symObjAddr: 0x5B94, symBinAddr: 0x10000813C, symSize: 0x18 }
  - { offsetInCU: 0x6CDDA, offset: 0x6CDDA, size: 0x8, addend: 0x0, symName: __ZN5Eigen8internal9evaluatorINS_6MatrixIdLin1ELin1ELi0ELin1ELin1EEEED2Ev, symObjAddr: 0x5BAC, symBinAddr: 0x100008154, symSize: 0x2C }
  - { offsetInCU: 0x6CE07, offset: 0x6CE07, size: 0x8, addend: 0x0, symName: __ZN5Eigen8internal9evaluatorINS_15PlainObjectBaseINS_6MatrixIdLin1ELin1ELi0ELin1ELin1EEEEEEC2Ev, symObjAddr: 0x5BD8, symBinAddr: 0x100008180, symSize: 0x64 }
  - { offsetInCU: 0x6CE31, offset: 0x6CE31, size: 0x8, addend: 0x0, symName: __ZN5Eigen8internal14evaluator_baseINS_6MatrixIdLin1ELin1ELi0ELin1ELin1EEEEC2Ev, symObjAddr: 0x5C3C, symBinAddr: 0x1000081E4, symSize: 0x14 }
  - { offsetInCU: 0x6CE5B, offset: 0x6CE5B, size: 0x8, addend: 0x0, symName: __ZN5Eigen8internal30plainobjectbase_evaluator_dataIdLin1EEC1EPKdl, symObjAddr: 0x5C50, symBinAddr: 0x1000081F8, symSize: 0x3C }
  - { offsetInCU: 0x6CEA1, offset: 0x6CEA1, size: 0x8, addend: 0x0, symName: __ZN5Eigen8internal14evaluator_baseINS_6MatrixIdLin1ELin1ELi0ELin1ELin1EEEED2Ev, symObjAddr: 0x5C8C, symBinAddr: 0x100008234, symSize: 0x14 }
  - { offsetInCU: 0x6CECB, offset: 0x6CECB, size: 0x8, addend: 0x0, symName: __ZN5Eigen8internal30plainobjectbase_evaluator_dataIdLin1EEC2EPKdl, symObjAddr: 0x5CA0, symBinAddr: 0x100008248, symSize: 0x2C }
  - { offsetInCU: 0x6CF11, offset: 0x6CF11, size: 0x8, addend: 0x0, symName: __ZN5Eigen6MatrixIdLin1ELin1ELi0ELin1ELin1EEC2IllEERKT_RKT0_, symObjAddr: 0x5CCC, symBinAddr: 0x100008274, symSize: 0x7C }
  - { offsetInCU: 0x6CF6B, offset: 0x6CF6B, size: 0x8, addend: 0x0, symName: __ZN5Eigen15PlainObjectBaseINS_6MatrixIdLin1ELin1ELi0ELin1ELin1EEEEC2Ev, symObjAddr: 0x5D48, symBinAddr: 0x1000082F0, symSize: 0x34 }
  - { offsetInCU: 0x6CF9A, offset: 0x6CF9A, size: 0x8, addend: 0x0, symName: __ZN5Eigen15PlainObjectBaseINS_6MatrixIdLin1ELin1ELi0ELin1ELin1EEEE6_init2IllEEvllPNS_8internal9enable_ifILb1ET_E4typeE, symObjAddr: 0x5D7C, symBinAddr: 0x100008324, symSize: 0x44 }
  - { offsetInCU: 0x6D039, offset: 0x6D039, size: 0x8, addend: 0x0, symName: __ZN5Eigen8internal20generic_product_implINS_6MatrixIdLin1ELin1ELi0ELin1ELin1EEES3_NS_10DenseShapeES4_Li3EE12eval_dynamicIS3_NS0_9assign_opIddEEEEvRT_RKS3_SC_RKT0_, symObjAddr: 0x5DC0, symBinAddr: 0x100008368, symSize: 0xB0 }
  - { offsetInCU: 0x6D0F7, offset: 0x6D0F7, size: 0x8, addend: 0x0, symName: __ZN5Eigen9DenseBaseINS_6MatrixIdLin1ELin1ELi0ELin1ELin1EEEE7setZeroEv, symObjAddr: 0x5E70, symBinAddr: 0x100008418, symSize: 0x30 }
  - { offsetInCU: 0x6D156, offset: 0x6D156, size: 0x8, addend: 0x0, symName: __ZN5Eigen8internal20generic_product_implINS_6MatrixIdLin1ELin1ELi0ELin1ELin1EEES3_NS_10DenseShapeES4_Li8EE13scaleAndAddToIS3_EEvRT_RKS3_SA_RKd, symObjAddr: 0x5EA0, symBinAddr: 0x100008448, symSize: 0x394 }
  - { offsetInCU: 0x6D298, offset: 0x6D298, size: 0x8, addend: 0x0, symName: __ZN5Eigen8internal20generic_product_implINS_6MatrixIdLin1ELin1ELi0ELin1ELin1EEES3_NS_10DenseShapeES4_Li3EE17eval_dynamic_implIS3_S3_S3_NS0_9assign_opIddEEdEEvRT_RKT0_RKT1_RKT2_RKT3_NS0_10false_typeE, symObjAddr: 0x6234, symBinAddr: 0x1000087DC, symSize: 0x68 }
  - { offsetInCU: 0x6D330, offset: 0x6D330, size: 0x8, addend: 0x0, symName: __ZN5Eigen8internal11blas_traitsINS_6MatrixIdLin1ELin1ELi0ELin1ELin1EEEE7extractERKS3_, symObjAddr: 0x629C, symBinAddr: 0x100008844, symSize: 0x14 }
  - { offsetInCU: 0x6D354, offset: 0x6D354, size: 0x8, addend: 0x0, symName: __ZNK5Eigen9DenseBaseINS_6MatrixIdLin1ELin1ELi0ELin1ELin1EEEE11conjugateIfILb0EEENS_8internal11conditionalIXT_ERKS2_S8_E4typeEv, symObjAddr: 0x62B0, symBinAddr: 0x100008858, symSize: 0x24 }
  - { offsetInCU: 0x6D384, offset: 0x6D384, size: 0x8, addend: 0x0, symName: __ZN5Eigen8internal11blas_traitsINS_6MatrixIdLin1ELin1ELi0ELin1ELin1EEEE19extractScalarFactorERKS3_, symObjAddr: 0x62D4, symBinAddr: 0x10000887C, symSize: 0x14 }
  - { offsetInCU: 0x6D3A4, offset: 0x6D3A4, size: 0x8, addend: 0x0, symName: __ZNK5Eigen10MatrixBaseINS_6MatrixIdLin1ELin1ELi0ELin1ELin1EEEE11lazyProductIS2_EEKNS_7ProductIS2_T_Li1EEERKNS0_IS6_EE, symObjAddr: 0x63D8, symBinAddr: 0x100008980, symSize: 0x4C }
  - { offsetInCU: 0x6D3E4, offset: 0x6D3E4, size: 0x8, addend: 0x0, symName: __ZN5Eigen8internal9evaluatorINS_7ProductINS_6MatrixIdLin1ELin1ELi0ELin1ELin1EEES4_Li1EEEEC1ERKS5_, symObjAddr: 0x6424, symBinAddr: 0x1000089CC, symSize: 0x34 }
  - { offsetInCU: 0x6D41C, offset: 0x6D41C, size: 0x8, addend: 0x0, symName: __ZN5Eigen8internal41restricted_packet_dense_assignment_kernelINS0_9evaluatorINS_6MatrixIdLin1ELin1ELi0ELin1ELin1EEEEENS2_INS_7ProductIS4_S4_Li1EEEEENS0_9assign_opIddEEEC1ERS5_RKS8_RKSA_RS4_, symObjAddr: 0x6550, symBinAddr: 0x100008AF8, symSize: 0x4C }
  - { offsetInCU: 0x6D482, offset: 0x6D482, size: 0x8, addend: 0x0, symName: __ZN5Eigen8internal9evaluatorINS_7ProductINS_6MatrixIdLin1ELin1ELi0ELin1ELin1EEES4_Li1EEEED1Ev, symObjAddr: 0x6774, symBinAddr: 0x100008D1C, symSize: 0x2C }
  - { offsetInCU: 0x6D4AE, offset: 0x6D4AE, size: 0x8, addend: 0x0, symName: __ZN5Eigen8internal9evaluatorINS_7ProductINS_6MatrixIdLin1ELin1ELi0ELin1ELin1EEES4_Li1EEEEC2ERKS5_, symObjAddr: 0x67A0, symBinAddr: 0x100008D48, symSize: 0x34 }
  - { offsetInCU: 0x6D4E6, offset: 0x6D4E6, size: 0x8, addend: 0x0, symName: __ZN5Eigen8internal17product_evaluatorINS_7ProductINS_6MatrixIdLin1ELin1ELi0ELin1ELin1EEES4_Li1EEELi8ENS_10DenseShapeES6_ddEC2ERKS5_, symObjAddr: 0x67D4, symBinAddr: 0x100008D7C, symSize: 0x110 }
  - { offsetInCU: 0x6D51F, offset: 0x6D51F, size: 0x8, addend: 0x0, symName: __ZN5Eigen8internal14evaluator_baseINS_7ProductINS_6MatrixIdLin1ELin1ELi0ELin1ELin1EEES4_Li1EEEEC2Ev, symObjAddr: 0x68E4, symBinAddr: 0x100008E8C, symSize: 0x14 }
  - { offsetInCU: 0x6D549, offset: 0x6D549, size: 0x8, addend: 0x0, symName: __ZNK5Eigen7ProductINS_6MatrixIdLin1ELin1ELi0ELin1ELin1EEES2_Li1EE3lhsEv, symObjAddr: 0x68F8, symBinAddr: 0x100008EA0, symSize: 0x18 }
  - { offsetInCU: 0x6D56F, offset: 0x6D56F, size: 0x8, addend: 0x0, symName: __ZNK5Eigen7ProductINS_6MatrixIdLin1ELin1ELi0ELin1ELin1EEES2_Li1EE3rhsEv, symObjAddr: 0x6910, symBinAddr: 0x100008EB8, symSize: 0x18 }
  - { offsetInCU: 0x6D595, offset: 0x6D595, size: 0x8, addend: 0x0, symName: __ZN5Eigen8internal14evaluator_baseINS_7ProductINS_6MatrixIdLin1ELin1ELi0ELin1ELin1EEES4_Li1EEEED2Ev, symObjAddr: 0x6928, symBinAddr: 0x100008ED0, symSize: 0x14 }
  - { offsetInCU: 0x6D5BF, offset: 0x6D5BF, size: 0x8, addend: 0x0, symName: __ZNK5Eigen7ProductINS_6MatrixIdLin1ELin1ELi0ELin1ELin1EEES2_Li1EE4rowsEv, symObjAddr: 0x693C, symBinAddr: 0x100008EE4, symSize: 0x28 }
  - { offsetInCU: 0x6D5E5, offset: 0x6D5E5, size: 0x8, addend: 0x0, symName: __ZNK5Eigen7ProductINS_6MatrixIdLin1ELin1ELi0ELin1ELin1EEES2_Li1EE4colsEv, symObjAddr: 0x6964, symBinAddr: 0x100008F0C, symSize: 0x28 }
  - { offsetInCU: 0x6D60B, offset: 0x6D60B, size: 0x8, addend: 0x0, symName: __ZN5Eigen8internal41restricted_packet_dense_assignment_kernelINS0_9evaluatorINS_6MatrixIdLin1ELin1ELi0ELin1ELin1EEEEENS2_INS_7ProductIS4_S4_Li1EEEEENS0_9assign_opIddEEEC2ERS5_RKS8_RKSA_RS4_, symObjAddr: 0x698C, symBinAddr: 0x100008F34, symSize: 0x4C }
  - { offsetInCU: 0x6D671, offset: 0x6D671, size: 0x8, addend: 0x0, symName: __ZN5Eigen8internal31generic_dense_assignment_kernelINS0_9evaluatorINS_6MatrixIdLin1ELin1ELi0ELin1ELin1EEEEENS2_INS_7ProductIS4_S4_Li1EEEEENS0_9assign_opIddEELi1EEC2ERS5_RKS8_RKSA_RS4_, symObjAddr: 0x69D8, symBinAddr: 0x100008F80, symSize: 0x44 }
  - { offsetInCU: 0x6D6D7, offset: 0x6D6D7, size: 0x8, addend: 0x0, symName: __ZNK5Eigen8internal31generic_dense_assignment_kernelINS0_9evaluatorINS_6MatrixIdLin1ELin1ELi0ELin1ELin1EEEEENS2_INS_7ProductIS4_S4_Li1EEEEENS0_9assign_opIddEELi1EE10dstDataPtrEv, symObjAddr: 0x6A1C, symBinAddr: 0x100008FC4, symSize: 0x28 }
  - { offsetInCU: 0x6D6FD, offset: 0x6D6FD, size: 0x8, addend: 0x0, symName: __ZNK5Eigen8internal31generic_dense_assignment_kernelINS0_9evaluatorINS_6MatrixIdLin1ELin1ELi0ELin1ELin1EEEEENS2_INS_7ProductIS4_S4_Li1EEEEENS0_9assign_opIddEELi1EE9innerSizeEv, symObjAddr: 0x6A44, symBinAddr: 0x100008FEC, symSize: 0x38 }
  - { offsetInCU: 0x6D723, offset: 0x6D723, size: 0x8, addend: 0x0, symName: __ZNK5Eigen8internal31generic_dense_assignment_kernelINS0_9evaluatorINS_6MatrixIdLin1ELin1ELi0ELin1ELin1EEEEENS2_INS_7ProductIS4_S4_Li1EEEEENS0_9assign_opIddEELi1EE9outerSizeEv, symObjAddr: 0x6A7C, symBinAddr: 0x100009024, symSize: 0x38 }
  - { offsetInCU: 0x6D749, offset: 0x6D749, size: 0x8, addend: 0x0, symName: __ZNK5Eigen8internal31generic_dense_assignment_kernelINS0_9evaluatorINS_6MatrixIdLin1ELin1ELi0ELin1ELin1EEEEENS2_INS_7ProductIS4_S4_Li1EEEEENS0_9assign_opIddEELi1EE11outerStrideEv, symObjAddr: 0x6AB4, symBinAddr: 0x10000905C, symSize: 0x28 }
  - { offsetInCU: 0x6D76F, offset: 0x6D76F, size: 0x8, addend: 0x0, symName: __ZN5Eigen8internal31generic_dense_assignment_kernelINS0_9evaluatorINS_6MatrixIdLin1ELin1ELi0ELin1ELin1EEEEENS2_INS_7ProductIS4_S4_Li1EEEEENS0_9assign_opIddEELi1EE23assignCoeffByOuterInnerEll, symObjAddr: 0x6ADC, symBinAddr: 0x100009084, symSize: 0x60 }
  - { offsetInCU: 0x6D7D1, offset: 0x6D7D1, size: 0x8, addend: 0x0, symName: __ZN5Eigen8internal31generic_dense_assignment_kernelINS0_9evaluatorINS_6MatrixIdLin1ELin1ELi0ELin1ELin1EEEEENS2_INS_7ProductIS4_S4_Li1EEEEENS0_9assign_opIddEELi1EE24assignPacketByOuterInnerILi16ELi0E19__simd128_float64_tEEvll, symObjAddr: 0x6B3C, symBinAddr: 0x1000090E4, symSize: 0x60 }
  - { offsetInCU: 0x6D850, offset: 0x6D850, size: 0x8, addend: 0x0, symName: __ZN5Eigen15PlainObjectBaseINS_6MatrixIdLin1ELin1ELi0ELin1ELin1EEEE4dataEv, symObjAddr: 0x6B9C, symBinAddr: 0x100009144, symSize: 0x24 }
  - { offsetInCU: 0x6D876, offset: 0x6D876, size: 0x8, addend: 0x0, symName: __ZN5Eigen12DenseStorageIdLin1ELin1ELin1ELi0EE4dataEv, symObjAddr: 0x6BC0, symBinAddr: 0x100009168, symSize: 0x18 }
  - { offsetInCU: 0x6D89C, offset: 0x6D89C, size: 0x8, addend: 0x0, symName: __ZNK5Eigen9DenseBaseINS_6MatrixIdLin1ELin1ELi0ELin1ELin1EEEE9innerSizeEv, symObjAddr: 0x6BD8, symBinAddr: 0x100009180, symSize: 0x24 }
  - { offsetInCU: 0x6D8C2, offset: 0x6D8C2, size: 0x8, addend: 0x0, symName: __ZNK5Eigen9EigenBaseINS_6MatrixIdLin1ELin1ELi0ELin1ELin1EEEE4rowsEv, symObjAddr: 0x6BFC, symBinAddr: 0x1000091A4, symSize: 0x28 }
  - { offsetInCU: 0x6D8E8, offset: 0x6D8E8, size: 0x8, addend: 0x0, symName: __ZNK5Eigen9DenseBaseINS_6MatrixIdLin1ELin1ELi0ELin1ELin1EEEE9outerSizeEv, symObjAddr: 0x6C24, symBinAddr: 0x1000091CC, symSize: 0x24 }
  - { offsetInCU: 0x6D90E, offset: 0x6D90E, size: 0x8, addend: 0x0, symName: __ZNK5Eigen9EigenBaseINS_6MatrixIdLin1ELin1ELi0ELin1ELin1EEEE4colsEv, symObjAddr: 0x6C48, symBinAddr: 0x1000091F0, symSize: 0x28 }
  - { offsetInCU: 0x6D934, offset: 0x6D934, size: 0x8, addend: 0x0, symName: __ZNK5Eigen6MatrixIdLin1ELin1ELi0ELin1ELin1EE11outerStrideEv, symObjAddr: 0x6C70, symBinAddr: 0x100009218, symSize: 0x24 }
  - { offsetInCU: 0x6D95A, offset: 0x6D95A, size: 0x8, addend: 0x0, symName: __ZN5Eigen8internal31generic_dense_assignment_kernelINS0_9evaluatorINS_6MatrixIdLin1ELin1ELi0ELin1ELin1EEEEENS2_INS_7ProductIS4_S4_Li1EEEEENS0_9assign_opIddEELi1EE20rowIndexByOuterInnerEll, symObjAddr: 0x6C94, symBinAddr: 0x10000923C, symSize: 0x18 }
  - { offsetInCU: 0x6D98D, offset: 0x6D98D, size: 0x8, addend: 0x0, symName: __ZN5Eigen8internal31generic_dense_assignment_kernelINS0_9evaluatorINS_6MatrixIdLin1ELin1ELi0ELin1ELin1EEEEENS2_INS_7ProductIS4_S4_Li1EEEEENS0_9assign_opIddEELi1EE20colIndexByOuterInnerEll, symObjAddr: 0x6CAC, symBinAddr: 0x100009254, symSize: 0x18 }
  - { offsetInCU: 0x6D9C0, offset: 0x6D9C0, size: 0x8, addend: 0x0, symName: __ZN5Eigen8internal31generic_dense_assignment_kernelINS0_9evaluatorINS_6MatrixIdLin1ELin1ELi0ELin1ELin1EEEEENS2_INS_7ProductIS4_S4_Li1EEEEENS0_9assign_opIddEELi1EE11assignCoeffEll, symObjAddr: 0x6CC4, symBinAddr: 0x10000926C, symSize: 0x70 }
  - { offsetInCU: 0x6DA04, offset: 0x6DA04, size: 0x8, addend: 0x0, symName: __ZNK5Eigen8internal9assign_opIddE11assignCoeffERdRKd, symObjAddr: 0x6D34, symBinAddr: 0x1000092DC, symSize: 0x28 }
  - { offsetInCU: 0x6DA46, offset: 0x6DA46, size: 0x8, addend: 0x0, symName: __ZN5Eigen8internal9evaluatorINS_15PlainObjectBaseINS_6MatrixIdLin1ELin1ELi0ELin1ELin1EEEEEE8coeffRefEll, symObjAddr: 0x6D5C, symBinAddr: 0x100009304, symSize: 0x5C }
  - { offsetInCU: 0x6DA88, offset: 0x6DA88, size: 0x8, addend: 0x0, symName: __ZNK5Eigen8internal17product_evaluatorINS_7ProductINS_6MatrixIdLin1ELin1ELi0ELin1ELin1EEES4_Li1EEELi8ENS_10DenseShapeES6_ddE5coeffEll, symObjAddr: 0x6DB8, symBinAddr: 0x100009360, symSize: 0x8C }
  - { offsetInCU: 0x6DACC, offset: 0x6DACC, size: 0x8, addend: 0x0, symName: __ZNK5Eigen8internal30plainobjectbase_evaluator_dataIdLin1EE11outerStrideEv, symObjAddr: 0x6E44, symBinAddr: 0x1000093EC, symSize: 0x18 }
  - { offsetInCU: 0x6DAF2, offset: 0x6DAF2, size: 0x8, addend: 0x0, symName: __ZNK5Eigen9DenseBaseINS_6MatrixIdLin1ELin1ELi0ELin1ELin1EEEE3rowEl, symObjAddr: 0x6E5C, symBinAddr: 0x100009404, symSize: 0x3C }
  - { offsetInCU: 0x6DB27, offset: 0x6DB27, size: 0x8, addend: 0x0, symName: __ZNK5Eigen9DenseBaseINS_5BlockIKNS_6MatrixIdLin1ELin1ELi0ELin1ELin1EEELi1ELin1ELb0EEEE9transposeEv, symObjAddr: 0x6E98, symBinAddr: 0x100009440, symSize: 0x34 }
  - { offsetInCU: 0x6DB4F, offset: 0x6DB4F, size: 0x8, addend: 0x0, symName: __ZNK5Eigen10MatrixBaseINS_9TransposeIKNS_5BlockIKNS_6MatrixIdLin1ELin1ELi0ELin1ELin1EEELi1ELin1ELb0EEEEEE12cwiseProductINS2_IS5_Lin1ELi1ELb1EEEEEKNS_13CwiseBinaryOpINS_8internal17scalar_product_opIdNSD_6traitsIT_E6ScalarEEEKS8_KSG_EERKNS0_ISG_EE, symObjAddr: 0x6ECC, symBinAddr: 0x100009474, symSize: 0x60 }
  - { offsetInCU: 0x6DB8C, offset: 0x6DB8C, size: 0x8, addend: 0x0, symName: __ZNK5Eigen9DenseBaseINS_6MatrixIdLin1ELin1ELi0ELin1ELin1EEEE3colEl, symObjAddr: 0x6F2C, symBinAddr: 0x1000094D4, symSize: 0x3C }
  - { offsetInCU: 0x6DBC1, offset: 0x6DBC1, size: 0x8, addend: 0x0, symName: __ZNK5Eigen9DenseBaseINS_13CwiseBinaryOpINS_8internal17scalar_product_opIddEEKNS_9TransposeIKNS_5BlockIKNS_6MatrixIdLin1ELin1ELi0ELin1ELin1EEELi1ELin1ELb0EEEEEKNS6_IS9_Lin1ELi1ELb1EEEEEE3sumEv, symObjAddr: 0x6F68, symBinAddr: 0x100009510, symSize: 0x74 }
  - { offsetInCU: 0x6DBEA, offset: 0x6DBEA, size: 0x8, addend: 0x0, symName: __ZN5Eigen5BlockIKNS_6MatrixIdLin1ELin1ELi0ELin1ELin1EEELi1ELin1ELb0EEC1ERS3_l, symObjAddr: 0x6FDC, symBinAddr: 0x100009584, symSize: 0x3C }
  - { offsetInCU: 0x6DC30, offset: 0x6DC30, size: 0x8, addend: 0x0, symName: __ZN5Eigen5BlockIKNS_6MatrixIdLin1ELin1ELi0ELin1ELin1EEELi1ELin1ELb0EEC2ERS3_l, symObjAddr: 0x7018, symBinAddr: 0x1000095C0, symSize: 0xCC }
  - { offsetInCU: 0x6DC76, offset: 0x6DC76, size: 0x8, addend: 0x0, symName: __ZN5Eigen9BlockImplIKNS_6MatrixIdLin1ELin1ELi0ELin1ELin1EEELi1ELin1ELb0ENS_5DenseEEC2ERS3_l, symObjAddr: 0x70E4, symBinAddr: 0x10000968C, symSize: 0x3C }
  - { offsetInCU: 0x6DCBC, offset: 0x6DCBC, size: 0x8, addend: 0x0, symName: __ZN5Eigen8internal15BlockImpl_denseIKNS_6MatrixIdLin1ELin1ELi0ELin1ELin1EEELi1ELin1ELb0ELb1EEC2ERS4_l, symObjAddr: 0x7120, symBinAddr: 0x1000096C8, symSize: 0xAC }
  - { offsetInCU: 0x6DD04, offset: 0x6DD04, size: 0x8, addend: 0x0, symName: __ZNK5Eigen15PlainObjectBaseINS_6MatrixIdLin1ELin1ELi0ELin1ELin1EEEE4dataEv, symObjAddr: 0x71CC, symBinAddr: 0x100009774, symSize: 0x24 }
  - { offsetInCU: 0x6DD2A, offset: 0x6DD2A, size: 0x8, addend: 0x0, symName: __ZNK5Eigen6MatrixIdLin1ELin1ELi0ELin1ELin1EE11innerStrideEv, symObjAddr: 0x71F0, symBinAddr: 0x100009798, symSize: 0x14 }
  - { offsetInCU: 0x6DD50, offset: 0x6DD50, size: 0x8, addend: 0x0, symName: __ZN5Eigen7MapBaseINS_5BlockIKNS_6MatrixIdLin1ELin1ELi0ELin1ELin1EEELi1ELin1ELb0EEELi0EEC2EPKdll, symObjAddr: 0x7204, symBinAddr: 0x1000097AC, symSize: 0x130 }
  - { offsetInCU: 0x6DDA4, offset: 0x6DDA4, size: 0x8, addend: 0x0, symName: __ZN5Eigen8internal19variable_if_dynamicIlLin1EEC1El, symObjAddr: 0x7334, symBinAddr: 0x1000098DC, symSize: 0x34 }
  - { offsetInCU: 0x6DDDC, offset: 0x6DDDC, size: 0x8, addend: 0x0, symName: __ZN5Eigen8internal15BlockImpl_denseIKNS_6MatrixIdLin1ELin1ELi0ELin1ELin1EEELi1ELin1ELb0ELb1EE4initEv, symObjAddr: 0x7368, symBinAddr: 0x100009910, symSize: 0x34 }
  - { offsetInCU: 0x6DE02, offset: 0x6DE02, size: 0x8, addend: 0x0, symName: __ZNK5Eigen12DenseStorageIdLin1ELin1ELin1ELi0EE4dataEv, symObjAddr: 0x739C, symBinAddr: 0x100009944, symSize: 0x18 }
  - { offsetInCU: 0x6DE28, offset: 0x6DE28, size: 0x8, addend: 0x0, symName: __ZN5Eigen10MatrixBaseINS_5BlockIKNS_6MatrixIdLin1ELin1ELi0ELin1ELin1EEELi1ELin1ELb0EEEEC2Ev, symObjAddr: 0x73B4, symBinAddr: 0x10000995C, symSize: 0x2C }
  - { offsetInCU: 0x6DE52, offset: 0x6DE52, size: 0x8, addend: 0x0, symName: __ZN5Eigen8internal19variable_if_dynamicIlLi1EEC1El, symObjAddr: 0x73E0, symBinAddr: 0x100009988, symSize: 0x34 }
  - { offsetInCU: 0x6DE8A, offset: 0x6DE8A, size: 0x8, addend: 0x0, symName: __ZNK5Eigen7MapBaseINS_5BlockIKNS_6MatrixIdLin1ELin1ELi0ELin1ELin1EEELi1ELin1ELb0EEELi0EE11checkSanityIS5_EEvNS_8internal9enable_ifIXeqsr8internal6traitsIT_EE9AlignmentLi0EEPvE4typeE, symObjAddr: 0x7414, symBinAddr: 0x1000099BC, symSize: 0x14 }
  - { offsetInCU: 0x6DEC4, offset: 0x6DEC4, size: 0x8, addend: 0x0, symName: __ZN5Eigen9DenseBaseINS_5BlockIKNS_6MatrixIdLin1ELin1ELi0ELin1ELin1EEELi1ELin1ELb0EEEEC2Ev, symObjAddr: 0x7428, symBinAddr: 0x1000099D0, symSize: 0x14 }
  - { offsetInCU: 0x6DEEE, offset: 0x6DEEE, size: 0x8, addend: 0x0, symName: __ZN5Eigen8internal19variable_if_dynamicIlLi1EEC2El, symObjAddr: 0x743C, symBinAddr: 0x1000099E4, symSize: 0x64 }
  - { offsetInCU: 0x6DF26, offset: 0x6DF26, size: 0x8, addend: 0x0, symName: __ZN5Eigen8internal19variable_if_dynamicIlLin1EEC2El, symObjAddr: 0x74A0, symBinAddr: 0x100009A48, symSize: 0x20 }
  - { offsetInCU: 0x6DF5E, offset: 0x6DF5E, size: 0x8, addend: 0x0, symName: __ZNK5Eigen9EigenBaseINS_5BlockIKNS_6MatrixIdLin1ELin1ELi0ELin1ELin1EEELi1ELin1ELb0EEEE7derivedEv, symObjAddr: 0x74C0, symBinAddr: 0x100009A68, symSize: 0x14 }
  - { offsetInCU: 0x6DF84, offset: 0x6DF84, size: 0x8, addend: 0x0, symName: __ZN5Eigen9TransposeIKNS_5BlockIKNS_6MatrixIdLin1ELin1ELi0ELin1ELin1EEELi1ELin1ELb0EEEEC1ERS6_, symObjAddr: 0x74D4, symBinAddr: 0x100009A7C, symSize: 0x34 }
  - { offsetInCU: 0x6DFBC, offset: 0x6DFBC, size: 0x8, addend: 0x0, symName: __ZN5Eigen9TransposeIKNS_5BlockIKNS_6MatrixIdLin1ELin1ELi0ELin1ELin1EEELi1ELin1ELb0EEEEC2ERS6_, symObjAddr: 0x7508, symBinAddr: 0x100009AB0, symSize: 0x40 }
  - { offsetInCU: 0x6DFF4, offset: 0x6DFF4, size: 0x8, addend: 0x0, symName: __ZN5Eigen13TransposeImplIKNS_5BlockIKNS_6MatrixIdLin1ELin1ELi0ELin1ELin1EEELi1ELin1ELb0EEENS_5DenseEEC2Ev, symObjAddr: 0x7548, symBinAddr: 0x100009AF0, symSize: 0x2C }
  - { offsetInCU: 0x6E01E, offset: 0x6E01E, size: 0x8, addend: 0x0, symName: __ZN5Eigen10MatrixBaseINS_9TransposeIKNS_5BlockIKNS_6MatrixIdLin1ELin1ELi0ELin1ELin1EEELi1ELin1ELb0EEEEEEC2Ev, symObjAddr: 0x7574, symBinAddr: 0x100009B1C, symSize: 0x2C }
  - { offsetInCU: 0x6E048, offset: 0x6E048, size: 0x8, addend: 0x0, symName: __ZN5Eigen9DenseBaseINS_9TransposeIKNS_5BlockIKNS_6MatrixIdLin1ELin1ELi0ELin1ELin1EEELi1ELin1ELb0EEEEEEC2Ev, symObjAddr: 0x75A0, symBinAddr: 0x100009B48, symSize: 0x14 }
  - { offsetInCU: 0x6E072, offset: 0x6E072, size: 0x8, addend: 0x0, symName: __ZNK5Eigen9EigenBaseINS_9TransposeIKNS_5BlockIKNS_6MatrixIdLin1ELin1ELi0ELin1ELin1EEELi1ELin1ELb0EEEEEE7derivedEv, symObjAddr: 0x75B4, symBinAddr: 0x100009B5C, symSize: 0x14 }
  - { offsetInCU: 0x6E098, offset: 0x6E098, size: 0x8, addend: 0x0, symName: __ZNK5Eigen9EigenBaseINS_5BlockIKNS_6MatrixIdLin1ELin1ELi0ELin1ELin1EEELin1ELi1ELb1EEEE7derivedEv, symObjAddr: 0x75C8, symBinAddr: 0x100009B70, symSize: 0x14 }
  - { offsetInCU: 0x6E0BE, offset: 0x6E0BE, size: 0x8, addend: 0x0, symName: __ZN5Eigen8internal17scalar_product_opIddEC1Ev, symObjAddr: 0x75DC, symBinAddr: 0x100009B84, symSize: 0x2C }
  - { offsetInCU: 0x6E0E8, offset: 0x6E0E8, size: 0x8, addend: 0x0, symName: __ZN5Eigen13CwiseBinaryOpINS_8internal17scalar_product_opIddEEKNS_9TransposeIKNS_5BlockIKNS_6MatrixIdLin1ELin1ELi0ELin1ELin1EEELi1ELin1ELb0EEEEEKNS5_IS8_Lin1ELi1ELb1EEEEC1ERSC_RSE_RKS3_, symObjAddr: 0x7608, symBinAddr: 0x100009BB0, symSize: 0x44 }
  - { offsetInCU: 0x6E13C, offset: 0x6E13C, size: 0x8, addend: 0x0, symName: __ZN5Eigen8internal17scalar_product_opIddEC2Ev, symObjAddr: 0x764C, symBinAddr: 0x100009BF4, symSize: 0x14 }
  - { offsetInCU: 0x6E166, offset: 0x6E166, size: 0x8, addend: 0x0, symName: __ZN5Eigen13CwiseBinaryOpINS_8internal17scalar_product_opIddEEKNS_9TransposeIKNS_5BlockIKNS_6MatrixIdLin1ELin1ELi0ELin1ELin1EEELi1ELin1ELb0EEEEEKNS5_IS8_Lin1ELi1ELb1EEEEC2ERSC_RSE_RKS3_, symObjAddr: 0x7660, symBinAddr: 0x100009C08, symSize: 0x104 }
  - { offsetInCU: 0x6E1BF, offset: 0x6E1BF, size: 0x8, addend: 0x0, symName: __ZN5Eigen17CwiseBinaryOpImplINS_8internal17scalar_product_opIddEEKNS_9TransposeIKNS_5BlockIKNS_6MatrixIdLin1ELin1ELi0ELin1ELin1EEELi1ELin1ELb0EEEEEKNS5_IS8_Lin1ELi1ELb1EEENS_5DenseEEC2Ev, symObjAddr: 0x7764, symBinAddr: 0x100009D0C, symSize: 0x2C }
  - { offsetInCU: 0x6E1EB, offset: 0x6E1EB, size: 0x8, addend: 0x0, symName: __ZN5Eigen8internal17scalar_product_opIddEC1ERKS2_, symObjAddr: 0x7790, symBinAddr: 0x100009D38, symSize: 0x34 }
  - { offsetInCU: 0x6E220, offset: 0x6E220, size: 0x8, addend: 0x0, symName: __ZNK5Eigen9TransposeIKNS_5BlockIKNS_6MatrixIdLin1ELin1ELi0ELin1ELin1EEELi1ELin1ELb0EEEE4rowsEv, symObjAddr: 0x77C4, symBinAddr: 0x100009D6C, symSize: 0x24 }
  - { offsetInCU: 0x6E246, offset: 0x6E246, size: 0x8, addend: 0x0, symName: __ZNK5Eigen7MapBaseINS_5BlockIKNS_6MatrixIdLin1ELin1ELi0ELin1ELin1EEELin1ELi1ELb1EEELi0EE4rowsEv, symObjAddr: 0x77E8, symBinAddr: 0x100009D90, symSize: 0x28 }
  - { offsetInCU: 0x6E26C, offset: 0x6E26C, size: 0x8, addend: 0x0, symName: __ZNK5Eigen9TransposeIKNS_5BlockIKNS_6MatrixIdLin1ELin1ELi0ELin1ELin1EEELi1ELin1ELb0EEEE4colsEv, symObjAddr: 0x7810, symBinAddr: 0x100009DB8, symSize: 0x24 }
  - { offsetInCU: 0x6E292, offset: 0x6E292, size: 0x8, addend: 0x0, symName: __ZNK5Eigen7MapBaseINS_5BlockIKNS_6MatrixIdLin1ELin1ELi0ELin1ELin1EEELin1ELi1ELb1EEELi0EE4colsEv, symObjAddr: 0x7834, symBinAddr: 0x100009DDC, symSize: 0x20 }
  - { offsetInCU: 0x6E2B8, offset: 0x6E2B8, size: 0x8, addend: 0x0, symName: __ZN5Eigen10MatrixBaseINS_13CwiseBinaryOpINS_8internal17scalar_product_opIddEEKNS_9TransposeIKNS_5BlockIKNS_6MatrixIdLin1ELin1ELi0ELin1ELin1EEELi1ELin1ELb0EEEEEKNS6_IS9_Lin1ELi1ELb1EEEEEEC2Ev, symObjAddr: 0x7854, symBinAddr: 0x100009DFC, symSize: 0x2C }
  - { offsetInCU: 0x6E2E2, offset: 0x6E2E2, size: 0x8, addend: 0x0, symName: __ZN5Eigen9DenseBaseINS_13CwiseBinaryOpINS_8internal17scalar_product_opIddEEKNS_9TransposeIKNS_5BlockIKNS_6MatrixIdLin1ELin1ELi0ELin1ELin1EEELi1ELin1ELb0EEEEEKNS6_IS9_Lin1ELi1ELb1EEEEEEC2Ev, symObjAddr: 0x7880, symBinAddr: 0x100009E28, symSize: 0x14 }
  - { offsetInCU: 0x6E30C, offset: 0x6E30C, size: 0x8, addend: 0x0, symName: __ZN5Eigen8internal17scalar_product_opIddEC2ERKS2_, symObjAddr: 0x7894, symBinAddr: 0x100009E3C, symSize: 0x18 }
  - { offsetInCU: 0x6E341, offset: 0x6E341, size: 0x8, addend: 0x0, symName: __ZNK5Eigen7MapBaseINS_5BlockIKNS_6MatrixIdLin1ELin1ELi0ELin1ELin1EEELi1ELin1ELb0EEELi0EE4colsEv, symObjAddr: 0x78AC, symBinAddr: 0x100009E54, symSize: 0x38 }
  - { offsetInCU: 0x6E367, offset: 0x6E367, size: 0x8, addend: 0x0, symName: __ZNK5Eigen8internal19variable_if_dynamicIlLin1EE5valueEv, symObjAddr: 0x78E4, symBinAddr: 0x100009E8C, symSize: 0x18 }
  - { offsetInCU: 0x6E38D, offset: 0x6E38D, size: 0x8, addend: 0x0, symName: __ZNK5Eigen7MapBaseINS_5BlockIKNS_6MatrixIdLin1ELin1ELi0ELin1ELin1EEELi1ELin1ELb0EEELi0EE4rowsEv, symObjAddr: 0x78FC, symBinAddr: 0x100009EA4, symSize: 0x30 }
  - { offsetInCU: 0x6E3B3, offset: 0x6E3B3, size: 0x8, addend: 0x0, symName: __ZN5Eigen8internal19variable_if_dynamicIlLi1EE5valueEv, symObjAddr: 0x792C, symBinAddr: 0x100009ED4, symSize: 0x8 }
  - { offsetInCU: 0x6E3C7, offset: 0x6E3C7, size: 0x8, addend: 0x0, symName: __ZN5Eigen5BlockIKNS_6MatrixIdLin1ELin1ELi0ELin1ELin1EEELin1ELi1ELb1EEC1ERS3_l, symObjAddr: 0x7934, symBinAddr: 0x100009EDC, symSize: 0x3C }
  - { offsetInCU: 0x6E40D, offset: 0x6E40D, size: 0x8, addend: 0x0, symName: __ZN5Eigen5BlockIKNS_6MatrixIdLin1ELin1ELi0ELin1ELin1EEELin1ELi1ELb1EEC2ERS3_l, symObjAddr: 0x7970, symBinAddr: 0x100009F18, symSize: 0xAC }
  - { offsetInCU: 0x6E453, offset: 0x6E453, size: 0x8, addend: 0x0, symName: __ZN5Eigen9BlockImplIKNS_6MatrixIdLin1ELin1ELi0ELin1ELin1EEELin1ELi1ELb1ENS_5DenseEEC2ERS3_l, symObjAddr: 0x7A1C, symBinAddr: 0x100009FC4, symSize: 0x3C }
  - { offsetInCU: 0x6E499, offset: 0x6E499, size: 0x8, addend: 0x0, symName: __ZN5Eigen8internal15BlockImpl_denseIKNS_6MatrixIdLin1ELin1ELi0ELin1ELin1EEELin1ELi1ELb1ELb1EEC2ERS4_l, symObjAddr: 0x7A58, symBinAddr: 0x10000A000, symSize: 0xAC }
  - { offsetInCU: 0x6E4E1, offset: 0x6E4E1, size: 0x8, addend: 0x0, symName: __ZN5Eigen7MapBaseINS_5BlockIKNS_6MatrixIdLin1ELin1ELi0ELin1ELin1EEELin1ELi1ELb1EEELi0EEC2EPKdll, symObjAddr: 0x7B04, symBinAddr: 0x10000A0AC, symSize: 0x11C }
  - { offsetInCU: 0x6E535, offset: 0x6E535, size: 0x8, addend: 0x0, symName: __ZN5Eigen8internal15BlockImpl_denseIKNS_6MatrixIdLin1ELin1ELi0ELin1ELin1EEELin1ELi1ELb1ELb1EE4initEv, symObjAddr: 0x7C20, symBinAddr: 0x10000A1C8, symSize: 0x34 }
  - { offsetInCU: 0x6E55B, offset: 0x6E55B, size: 0x8, addend: 0x0, symName: __ZN5Eigen10MatrixBaseINS_5BlockIKNS_6MatrixIdLin1ELin1ELi0ELin1ELin1EEELin1ELi1ELb1EEEEC2Ev, symObjAddr: 0x7C54, symBinAddr: 0x10000A1FC, symSize: 0x2C }
  - { offsetInCU: 0x6E585, offset: 0x6E585, size: 0x8, addend: 0x0, symName: __ZNK5Eigen7MapBaseINS_5BlockIKNS_6MatrixIdLin1ELin1ELi0ELin1ELin1EEELin1ELi1ELb1EEELi0EE11checkSanityIS5_EEvNS_8internal9enable_ifIXeqsr8internal6traitsIT_EE9AlignmentLi0EEPvE4typeE, symObjAddr: 0x7C80, symBinAddr: 0x10000A228, symSize: 0x14 }
  - { offsetInCU: 0x6E5BF, offset: 0x6E5BF, size: 0x8, addend: 0x0, symName: __ZN5Eigen9DenseBaseINS_5BlockIKNS_6MatrixIdLin1ELin1ELi0ELin1ELin1EEELin1ELi1ELb1EEEEC2Ev, symObjAddr: 0x7C94, symBinAddr: 0x10000A23C, symSize: 0x14 }
  - { offsetInCU: 0x6E5E9, offset: 0x6E5E9, size: 0x8, addend: 0x0, symName: __ZNK5Eigen9EigenBaseINS_13CwiseBinaryOpINS_8internal17scalar_product_opIddEEKNS_9TransposeIKNS_5BlockIKNS_6MatrixIdLin1ELin1ELi0ELin1ELin1EEELi1ELin1ELb0EEEEEKNS6_IS9_Lin1ELi1ELb1EEEEEE4sizeEv, symObjAddr: 0x7CA8, symBinAddr: 0x10000A250, symSize: 0x44 }
  - { offsetInCU: 0x6E60F, offset: 0x6E60F, size: 0x8, addend: 0x0, symName: __ZNK5Eigen9EigenBaseINS_13CwiseBinaryOpINS_8internal17scalar_product_opIddEEKNS_9TransposeIKNS_5BlockIKNS_6MatrixIdLin1ELin1ELi0ELin1ELin1EEELi1ELin1ELb0EEEEEKNS6_IS9_Lin1ELi1ELb1EEEEEE7derivedEv, symObjAddr: 0x7CEC, symBinAddr: 0x10000A294, symSize: 0x14 }
  - { offsetInCU: 0x6E635, offset: 0x6E635, size: 0x8, addend: 0x0, symName: __ZNK5Eigen9DenseBaseINS_13CwiseBinaryOpINS_8internal17scalar_product_opIddEEKNS_9TransposeIKNS_5BlockIKNS_6MatrixIdLin1ELin1ELi0ELin1ELin1EEELi1ELin1ELb0EEEEEKNS6_IS9_Lin1ELi1ELb1EEEEEE5reduxINS2_13scalar_sum_opIddEEEEdRKT_, symObjAddr: 0x7D00, symBinAddr: 0x10000A2A8, symSize: 0x10C }
  - { offsetInCU: 0x6E691, offset: 0x6E691, size: 0x8, addend: 0x0, symName: __ZNK5Eigen9EigenBaseINS_13CwiseBinaryOpINS_8internal17scalar_product_opIddEEKNS_9TransposeIKNS_5BlockIKNS_6MatrixIdLin1ELin1ELi0ELin1ELin1EEELi1ELin1ELb0EEEEEKNS6_IS9_Lin1ELi1ELb1EEEEEE4rowsEv, symObjAddr: 0x7E0C, symBinAddr: 0x10000A3B4, symSize: 0x38 }
  - { offsetInCU: 0x6E6B7, offset: 0x6E6B7, size: 0x8, addend: 0x0, symName: __ZNK5Eigen9EigenBaseINS_13CwiseBinaryOpINS_8internal17scalar_product_opIddEEKNS_9TransposeIKNS_5BlockIKNS_6MatrixIdLin1ELin1ELi0ELin1ELin1EEELi1ELin1ELb0EEEEEKNS6_IS9_Lin1ELi1ELb1EEEEEE4colsEv, symObjAddr: 0x7E44, symBinAddr: 0x10000A3EC, symSize: 0x38 }
  - { offsetInCU: 0x6E6DD, offset: 0x6E6DD, size: 0x8, addend: 0x0, symName: __ZNK5Eigen13CwiseBinaryOpINS_8internal17scalar_product_opIddEEKNS_9TransposeIKNS_5BlockIKNS_6MatrixIdLin1ELin1ELi0ELin1ELin1EEELi1ELin1ELb0EEEEEKNS5_IS8_Lin1ELi1ELb1EEEE4rowsEv, symObjAddr: 0x7E7C, symBinAddr: 0x10000A424, symSize: 0x28 }
  - { offsetInCU: 0x6E703, offset: 0x6E703, size: 0x8, addend: 0x0, symName: __ZNK5Eigen13CwiseBinaryOpINS_8internal17scalar_product_opIddEEKNS_9TransposeIKNS_5BlockIKNS_6MatrixIdLin1ELin1ELi0ELin1ELin1EEELi1ELin1ELb0EEEEEKNS5_IS8_Lin1ELi1ELb1EEEE4colsEv, symObjAddr: 0x7EA4, symBinAddr: 0x10000A44C, symSize: 0x24 }
  - { offsetInCU: 0x6E80A, offset: 0x6E80A, size: 0x8, addend: 0x0, symName: __ZN5Eigen8internal15redux_evaluatorINS_13CwiseBinaryOpINS0_17scalar_product_opIddEEKNS_9TransposeIKNS_5BlockIKNS_6MatrixIdLin1ELin1ELi0ELin1ELin1EEELi1ELin1ELb0EEEEEKNS6_IS9_Lin1ELi1ELb1EEEEEEC1ERKSG_, symObjAddr: 0x7EC8, symBinAddr: 0x10000A470, symSize: 0x34 }
  - { offsetInCU: 0x6E848, offset: 0x6E848, size: 0x8, addend: 0x0, symName: __ZN5Eigen8internal10redux_implINS0_13scalar_sum_opIddEENS0_15redux_evaluatorINS_13CwiseBinaryOpINS0_17scalar_product_opIddEEKNS_9TransposeIKNS_5BlockIKNS_6MatrixIdLin1ELin1ELi0ELin1ELin1EEELi1ELin1ELb0EEEEEKNS9_ISC_Lin1ELi1ELb1EEEEEEELi0ELi0EE3runISJ_EEdRKSK_RKS3_RKT_, symObjAddr: 0x7EFC, symBinAddr: 0x10000A4A4, symSize: 0x1E0 }
  - { offsetInCU: 0x6E8F3, offset: 0x6E8F3, size: 0x8, addend: 0x0, symName: __ZN5Eigen8internal15redux_evaluatorINS_13CwiseBinaryOpINS0_17scalar_product_opIddEEKNS_9TransposeIKNS_5BlockIKNS_6MatrixIdLin1ELin1ELi0ELin1ELin1EEELi1ELin1ELb0EEEEEKNS6_IS9_Lin1ELi1ELb1EEEEEED1Ev, symObjAddr: 0x80DC, symBinAddr: 0x10000A684, symSize: 0x2C }
  - { offsetInCU: 0x6E920, offset: 0x6E920, size: 0x8, addend: 0x0, symName: __ZN5Eigen8internal15redux_evaluatorINS_13CwiseBinaryOpINS0_17scalar_product_opIddEEKNS_9TransposeIKNS_5BlockIKNS_6MatrixIdLin1ELin1ELi0ELin1ELin1EEELi1ELin1ELb0EEEEEKNS6_IS9_Lin1ELi1ELb1EEEEEEC2ERKSG_, symObjAddr: 0x8108, symBinAddr: 0x10000A6B0, symSize: 0x34 }
  - { offsetInCU: 0x6E959, offset: 0x6E959, size: 0x8, addend: 0x0, symName: __ZN5Eigen8internal9evaluatorINS_13CwiseBinaryOpINS0_17scalar_product_opIddEEKNS_9TransposeIKNS_5BlockIKNS_6MatrixIdLin1ELin1ELi0ELin1ELin1EEELi1ELin1ELb0EEEEEKNS6_IS9_Lin1ELi1ELb1EEEEEEC2ERKSG_, symObjAddr: 0x813C, symBinAddr: 0x10000A6E4, symSize: 0x34 }
  - { offsetInCU: 0x6E992, offset: 0x6E992, size: 0x8, addend: 0x0, symName: __ZN5Eigen8internal16binary_evaluatorINS_13CwiseBinaryOpINS0_17scalar_product_opIddEEKNS_9TransposeIKNS_5BlockIKNS_6MatrixIdLin1ELin1ELi0ELin1ELin1EEELi1ELin1ELb0EEEEEKNS6_IS9_Lin1ELi1ELb1EEEEENS0_10IndexBasedESH_ddEC2ERKSG_, symObjAddr: 0x8170, symBinAddr: 0x10000A718, symSize: 0x64 }
  - { offsetInCU: 0x6E9CB, offset: 0x6E9CB, size: 0x8, addend: 0x0, symName: __ZN5Eigen8internal14evaluator_baseINS_13CwiseBinaryOpINS0_17scalar_product_opIddEEKNS_9TransposeIKNS_5BlockIKNS_6MatrixIdLin1ELin1ELi0ELin1ELin1EEELi1ELin1ELb0EEEEEKNS6_IS9_Lin1ELi1ELb1EEEEEEC2Ev, symObjAddr: 0x81D4, symBinAddr: 0x10000A77C, symSize: 0x14 }
  - { offsetInCU: 0x6E9F5, offset: 0x6E9F5, size: 0x8, addend: 0x0, symName: __ZN5Eigen8internal16binary_evaluatorINS_13CwiseBinaryOpINS0_17scalar_product_opIddEEKNS_9TransposeIKNS_5BlockIKNS_6MatrixIdLin1ELin1ELi0ELin1ELin1EEELi1ELin1ELb0EEEEEKNS6_IS9_Lin1ELi1ELb1EEEEENS0_10IndexBasedESH_ddE4DataC1ERKSG_, symObjAddr: 0x81E8, symBinAddr: 0x10000A790, symSize: 0x34 }
  - { offsetInCU: 0x6EA2E, offset: 0x6EA2E, size: 0x8, addend: 0x0, symName: __ZN5Eigen8internal14evaluator_baseINS_13CwiseBinaryOpINS0_17scalar_product_opIddEEKNS_9TransposeIKNS_5BlockIKNS_6MatrixIdLin1ELin1ELi0ELin1ELin1EEELi1ELin1ELb0EEEEEKNS6_IS9_Lin1ELi1ELb1EEEEEED2Ev, symObjAddr: 0x821C, symBinAddr: 0x10000A7C4, symSize: 0x14 }
  - { offsetInCU: 0x6EA58, offset: 0x6EA58, size: 0x8, addend: 0x0, symName: __ZN5Eigen8internal16binary_evaluatorINS_13CwiseBinaryOpINS0_17scalar_product_opIddEEKNS_9TransposeIKNS_5BlockIKNS_6MatrixIdLin1ELin1ELi0ELin1ELin1EEELi1ELin1ELb0EEEEEKNS6_IS9_Lin1ELi1ELb1EEEEENS0_10IndexBasedESH_ddE4DataC2ERKSG_, symObjAddr: 0x8230, symBinAddr: 0x10000A7D8, symSize: 0xA8 }
  - { offsetInCU: 0x6EA91, offset: 0x6EA91, size: 0x8, addend: 0x0, symName: __ZNK5Eigen13CwiseBinaryOpINS_8internal17scalar_product_opIddEEKNS_9TransposeIKNS_5BlockIKNS_6MatrixIdLin1ELin1ELi0ELin1ELin1EEELi1ELin1ELb0EEEEEKNS5_IS8_Lin1ELi1ELb1EEEE7functorEv, symObjAddr: 0x82D8, symBinAddr: 0x10000A880, symSize: 0x18 }
  - { offsetInCU: 0x6EAB7, offset: 0x6EAB7, size: 0x8, addend: 0x0, symName: __ZNK5Eigen13CwiseBinaryOpINS_8internal17scalar_product_opIddEEKNS_9TransposeIKNS_5BlockIKNS_6MatrixIdLin1ELin1ELi0ELin1ELin1EEELi1ELin1ELb0EEEEEKNS5_IS8_Lin1ELi1ELb1EEEE3lhsEv, symObjAddr: 0x82F0, symBinAddr: 0x10000A898, symSize: 0x14 }
  - { offsetInCU: 0x6EADD, offset: 0x6EADD, size: 0x8, addend: 0x0, symName: __ZN5Eigen8internal9evaluatorIKNS_9TransposeIKNS_5BlockIKNS_6MatrixIdLin1ELin1ELi0ELin1ELin1EEELi1ELin1ELb0EEEEEEC1ERSA_, symObjAddr: 0x8304, symBinAddr: 0x10000A8AC, symSize: 0x34 }
  - { offsetInCU: 0x6EB15, offset: 0x6EB15, size: 0x8, addend: 0x0, symName: __ZNK5Eigen13CwiseBinaryOpINS_8internal17scalar_product_opIddEEKNS_9TransposeIKNS_5BlockIKNS_6MatrixIdLin1ELin1ELi0ELin1ELin1EEELi1ELin1ELb0EEEEEKNS5_IS8_Lin1ELi1ELb1EEEE3rhsEv, symObjAddr: 0x8338, symBinAddr: 0x10000A8E0, symSize: 0x18 }
  - { offsetInCU: 0x6EB3B, offset: 0x6EB3B, size: 0x8, addend: 0x0, symName: __ZN5Eigen8internal9evaluatorIKNS_5BlockIKNS_6MatrixIdLin1ELin1ELi0ELin1ELin1EEELin1ELi1ELb1EEEEC1ERS7_, symObjAddr: 0x8350, symBinAddr: 0x10000A8F8, symSize: 0x34 }
  - { offsetInCU: 0x6EB73, offset: 0x6EB73, size: 0x8, addend: 0x0, symName: __ZN5Eigen8internal9evaluatorIKNS_9TransposeIKNS_5BlockIKNS_6MatrixIdLin1ELin1ELi0ELin1ELin1EEELi1ELin1ELb0EEEEEED1Ev, symObjAddr: 0x8384, symBinAddr: 0x10000A92C, symSize: 0x2C }
  - { offsetInCU: 0x6EB9F, offset: 0x6EB9F, size: 0x8, addend: 0x0, symName: __ZN5Eigen8internal9evaluatorIKNS_9TransposeIKNS_5BlockIKNS_6MatrixIdLin1ELin1ELi0ELin1ELin1EEELi1ELin1ELb0EEEEEEC2ERSA_, symObjAddr: 0x83B0, symBinAddr: 0x10000A958, symSize: 0x34 }
  - { offsetInCU: 0x6EBD7, offset: 0x6EBD7, size: 0x8, addend: 0x0, symName: __ZN5Eigen8internal9evaluatorINS_9TransposeIKNS_5BlockIKNS_6MatrixIdLin1ELin1ELi0ELin1ELin1EEELi1ELin1ELb0EEEEEEC2ERKS9_, symObjAddr: 0x83E4, symBinAddr: 0x10000A98C, symSize: 0x34 }
  - { offsetInCU: 0x6EC0F, offset: 0x6EC0F, size: 0x8, addend: 0x0, symName: __ZN5Eigen8internal15unary_evaluatorINS_9TransposeIKNS_5BlockIKNS_6MatrixIdLin1ELin1ELi0ELin1ELin1EEELi1ELin1ELb0EEEEENS0_10IndexBasedEdEC2ERKS9_, symObjAddr: 0x8418, symBinAddr: 0x10000A9C0, symSize: 0x74 }
  - { offsetInCU: 0x6EC48, offset: 0x6EC48, size: 0x8, addend: 0x0, symName: __ZN5Eigen8internal14evaluator_baseINS_9TransposeIKNS_5BlockIKNS_6MatrixIdLin1ELin1ELi0ELin1ELin1EEELi1ELin1ELb0EEEEEEC2Ev, symObjAddr: 0x848C, symBinAddr: 0x10000AA34, symSize: 0x14 }
  - { offsetInCU: 0x6EC72, offset: 0x6EC72, size: 0x8, addend: 0x0, symName: __ZNK5Eigen9TransposeIKNS_5BlockIKNS_6MatrixIdLin1ELin1ELi0ELin1ELin1EEELi1ELin1ELb0EEEE16nestedExpressionEv, symObjAddr: 0x84A0, symBinAddr: 0x10000AA48, symSize: 0x14 }
  - { offsetInCU: 0x6EC98, offset: 0x6EC98, size: 0x8, addend: 0x0, symName: __ZN5Eigen8internal9evaluatorIKNS_5BlockIKNS_6MatrixIdLin1ELin1ELi0ELin1ELin1EEELi1ELin1ELb0EEEEC1ERS7_, symObjAddr: 0x84B4, symBinAddr: 0x10000AA5C, symSize: 0x34 }
  - { offsetInCU: 0x6ECD0, offset: 0x6ECD0, size: 0x8, addend: 0x0, symName: __ZN5Eigen8internal14evaluator_baseINS_9TransposeIKNS_5BlockIKNS_6MatrixIdLin1ELin1ELi0ELin1ELin1EEELi1ELin1ELb0EEEEEED2Ev, symObjAddr: 0x84E8, symBinAddr: 0x10000AA90, symSize: 0x14 }
  - { offsetInCU: 0x6ECFA, offset: 0x6ECFA, size: 0x8, addend: 0x0, symName: __ZN5Eigen8internal9evaluatorIKNS_5BlockIKNS_6MatrixIdLin1ELin1ELi0ELin1ELin1EEELi1ELin1ELb0EEEEC2ERS7_, symObjAddr: 0x84FC, symBinAddr: 0x10000AAA4, symSize: 0x34 }
  - { offsetInCU: 0x6ED32, offset: 0x6ED32, size: 0x8, addend: 0x0, symName: __ZN5Eigen8internal9evaluatorINS_5BlockIKNS_6MatrixIdLin1ELin1ELi0ELin1ELin1EEELi1ELin1ELb0EEEEC2ERKS6_, symObjAddr: 0x8530, symBinAddr: 0x10000AAD8, symSize: 0x34 }
  - { offsetInCU: 0x6ED6B, offset: 0x6ED6B, size: 0x8, addend: 0x0, symName: __ZN5Eigen8internal15block_evaluatorIKNS_6MatrixIdLin1ELin1ELi0ELin1ELin1EEELi1ELin1ELb0ELb1EEC2ERKNS_5BlockIS4_Li1ELin1ELb0EEE, symObjAddr: 0x8564, symBinAddr: 0x10000AB0C, symSize: 0xDC }
  - { offsetInCU: 0x6EDA4, offset: 0x6EDA4, size: 0x8, addend: 0x0, symName: __ZN5Eigen8internal17mapbase_evaluatorINS_5BlockIKNS_6MatrixIdLin1ELin1ELi0ELin1ELin1EEELi1ELin1ELb0EEENS3_IdLi1ELin1ELi1ELi1ELin1EEEEC2ERKS6_, symObjAddr: 0x8640, symBinAddr: 0x10000ABE8, symSize: 0xB0 }
  - { offsetInCU: 0x6EDDD, offset: 0x6EDDD, size: 0x8, addend: 0x0, symName: __ZNK5Eigen7MapBaseINS_5BlockIKNS_6MatrixIdLin1ELin1ELi0ELin1ELin1EEELi1ELin1ELb0EEELi0EE4dataEv, symObjAddr: 0x86F0, symBinAddr: 0x10000AC98, symSize: 0x18 }
  - { offsetInCU: 0x6EE03, offset: 0x6EE03, size: 0x8, addend: 0x0, symName: __ZN5Eigen8internal17mapbase_evaluatorINS_5BlockIKNS_6MatrixIdLin1ELin1ELi0ELin1ELin1EEELi1ELin1ELb0EEENS3_IdLi1ELin1ELi1ELi1ELin1EEEED2Ev, symObjAddr: 0x8708, symBinAddr: 0x10000ACB0, symSize: 0x2C }
  - { offsetInCU: 0x6EE30, offset: 0x6EE30, size: 0x8, addend: 0x0, symName: __ZN5Eigen8internal14evaluator_baseINS_5BlockIKNS_6MatrixIdLin1ELin1ELi0ELin1ELin1EEELi1ELin1ELb0EEEEC2Ev, symObjAddr: 0x8734, symBinAddr: 0x10000ACDC, symSize: 0x14 }
  - { offsetInCU: 0x6EE5A, offset: 0x6EE5A, size: 0x8, addend: 0x0, symName: __ZNK5Eigen8internal15BlockImpl_denseIKNS_6MatrixIdLin1ELin1ELi0ELin1ELin1EEELi1ELin1ELb0ELb1EE11innerStrideEv, symObjAddr: 0x8748, symBinAddr: 0x10000ACF0, symSize: 0x28 }
  - { offsetInCU: 0x6EE80, offset: 0x6EE80, size: 0x8, addend: 0x0, symName: __ZNK5Eigen8internal15BlockImpl_denseIKNS_6MatrixIdLin1ELin1ELi0ELin1ELin1EEELi1ELin1ELb0ELb1EE11outerStrideEv, symObjAddr: 0x8770, symBinAddr: 0x10000AD18, symSize: 0x28 }
  - { offsetInCU: 0x6EEA6, offset: 0x6EEA6, size: 0x8, addend: 0x0, symName: __ZN5Eigen8internal14evaluator_baseINS_5BlockIKNS_6MatrixIdLin1ELin1ELi0ELin1ELin1EEELi1ELin1ELb0EEEED2Ev, symObjAddr: 0x8798, symBinAddr: 0x10000AD40, symSize: 0x14 }
  - { offsetInCU: 0x6EED0, offset: 0x6EED0, size: 0x8, addend: 0x0, symName: __ZN5Eigen8internal9evaluatorIKNS_5BlockIKNS_6MatrixIdLin1ELin1ELi0ELin1ELin1EEELin1ELi1ELb1EEEEC2ERS7_, symObjAddr: 0x87AC, symBinAddr: 0x10000AD54, symSize: 0x34 }
  - { offsetInCU: 0x6EF08, offset: 0x6EF08, size: 0x8, addend: 0x0, symName: __ZN5Eigen8internal9evaluatorINS_5BlockIKNS_6MatrixIdLin1ELin1ELi0ELin1ELin1EEELin1ELi1ELb1EEEEC2ERKS6_, symObjAddr: 0x87E0, symBinAddr: 0x10000AD88, symSize: 0x34 }
  - { offsetInCU: 0x6EF41, offset: 0x6EF41, size: 0x8, addend: 0x0, symName: __ZN5Eigen8internal15block_evaluatorIKNS_6MatrixIdLin1ELin1ELi0ELin1ELin1EEELin1ELi1ELb1ELb1EEC2ERKNS_5BlockIS4_Lin1ELi1ELb1EEE, symObjAddr: 0x8814, symBinAddr: 0x10000ADBC, symSize: 0xDC }
  - { offsetInCU: 0x6EF7A, offset: 0x6EF7A, size: 0x8, addend: 0x0, symName: __ZN5Eigen8internal17mapbase_evaluatorINS_5BlockIKNS_6MatrixIdLin1ELin1ELi0ELin1ELin1EEELin1ELi1ELb1EEENS3_IdLin1ELi1ELi0ELin1ELi1EEEEC2ERKS6_, symObjAddr: 0x88F0, symBinAddr: 0x10000AE98, symSize: 0xB0 }
  - { offsetInCU: 0x6EFB3, offset: 0x6EFB3, size: 0x8, addend: 0x0, symName: __ZNK5Eigen7MapBaseINS_5BlockIKNS_6MatrixIdLin1ELin1ELi0ELin1ELin1EEELin1ELi1ELb1EEELi0EE4dataEv, symObjAddr: 0x89A0, symBinAddr: 0x10000AF48, symSize: 0x18 }
  - { offsetInCU: 0x6EFD9, offset: 0x6EFD9, size: 0x8, addend: 0x0, symName: __ZN5Eigen8internal17mapbase_evaluatorINS_5BlockIKNS_6MatrixIdLin1ELin1ELi0ELin1ELin1EEELin1ELi1ELb1EEENS3_IdLin1ELi1ELi0ELin1ELi1EEEED2Ev, symObjAddr: 0x89B8, symBinAddr: 0x10000AF60, symSize: 0x2C }
  - { offsetInCU: 0x6F006, offset: 0x6F006, size: 0x8, addend: 0x0, symName: __ZN5Eigen8internal14evaluator_baseINS_5BlockIKNS_6MatrixIdLin1ELin1ELi0ELin1ELin1EEELin1ELi1ELb1EEEEC2Ev, symObjAddr: 0x89E4, symBinAddr: 0x10000AF8C, symSize: 0x14 }
  - { offsetInCU: 0x6F030, offset: 0x6F030, size: 0x8, addend: 0x0, symName: __ZNK5Eigen8internal15BlockImpl_denseIKNS_6MatrixIdLin1ELin1ELi0ELin1ELin1EEELin1ELi1ELb1ELb1EE11innerStrideEv, symObjAddr: 0x89F8, symBinAddr: 0x10000AFA0, symSize: 0x28 }
  - { offsetInCU: 0x6F056, offset: 0x6F056, size: 0x8, addend: 0x0, symName: __ZNK5Eigen8internal15BlockImpl_denseIKNS_6MatrixIdLin1ELin1ELi0ELin1ELin1EEELin1ELi1ELb1ELb1EE11outerStrideEv, symObjAddr: 0x8A20, symBinAddr: 0x10000AFC8, symSize: 0x28 }
  - { offsetInCU: 0x6F07C, offset: 0x6F07C, size: 0x8, addend: 0x0, symName: __ZN5Eigen8internal14evaluator_baseINS_5BlockIKNS_6MatrixIdLin1ELin1ELi0ELin1ELin1EEELin1ELi1ELb1EEEED2Ev, symObjAddr: 0x8A48, symBinAddr: 0x10000AFF0, symSize: 0x14 }
  - { offsetInCU: 0x6F0A6, offset: 0x6F0A6, size: 0x8, addend: 0x0, symName: __ZN5Eigen8internal9evaluatorIKNS_9TransposeIKNS_5BlockIKNS_6MatrixIdLin1ELin1ELi0ELin1ELin1EEELi1ELin1ELb0EEEEEED2Ev, symObjAddr: 0x8A5C, symBinAddr: 0x10000B004, symSize: 0x2C }
  - { offsetInCU: 0x6F0D2, offset: 0x6F0D2, size: 0x8, addend: 0x0, symName: __ZN5Eigen8internal9evaluatorINS_9TransposeIKNS_5BlockIKNS_6MatrixIdLin1ELin1ELi0ELin1ELin1EEELi1ELin1ELb0EEEEEED2Ev, symObjAddr: 0x8A88, symBinAddr: 0x10000B030, symSize: 0x2C }
  - { offsetInCU: 0x6F0FE, offset: 0x6F0FE, size: 0x8, addend: 0x0, symName: __ZN5Eigen8internal15unary_evaluatorINS_9TransposeIKNS_5BlockIKNS_6MatrixIdLin1ELin1ELi0ELin1ELin1EEELi1ELin1ELb0EEEEENS0_10IndexBasedEdED2Ev, symObjAddr: 0x8AB4, symBinAddr: 0x10000B05C, symSize: 0x34 }
  - { offsetInCU: 0x6F12A, offset: 0x6F12A, size: 0x8, addend: 0x0, symName: __ZN5Eigen8internal9evaluatorIKNS_5BlockIKNS_6MatrixIdLin1ELin1ELi0ELin1ELin1EEELi1ELin1ELb0EEEED1Ev, symObjAddr: 0x8AE8, symBinAddr: 0x10000B090, symSize: 0x2C }
  - { offsetInCU: 0x6F156, offset: 0x6F156, size: 0x8, addend: 0x0, symName: __ZN5Eigen8internal9evaluatorIKNS_5BlockIKNS_6MatrixIdLin1ELin1ELi0ELin1ELin1EEELi1ELin1ELb0EEEED2Ev, symObjAddr: 0x8B14, symBinAddr: 0x10000B0BC, symSize: 0x2C }
  - { offsetInCU: 0x6F182, offset: 0x6F182, size: 0x8, addend: 0x0, symName: __ZN5Eigen8internal9evaluatorINS_5BlockIKNS_6MatrixIdLin1ELin1ELi0ELin1ELin1EEELi1ELin1ELb0EEEED2Ev, symObjAddr: 0x8B40, symBinAddr: 0x10000B0E8, symSize: 0x2C }
  - { offsetInCU: 0x6F1AF, offset: 0x6F1AF, size: 0x8, addend: 0x0, symName: __ZN5Eigen8internal15block_evaluatorIKNS_6MatrixIdLin1ELin1ELi0ELin1ELin1EEELi1ELin1ELb0ELb1EED2Ev, symObjAddr: 0x8B6C, symBinAddr: 0x10000B114, symSize: 0x2C }
  - { offsetInCU: 0x6F1DC, offset: 0x6F1DC, size: 0x8, addend: 0x0, symName: __ZNK5Eigen8internal15redux_evaluatorINS_13CwiseBinaryOpINS0_17scalar_product_opIddEEKNS_9TransposeIKNS_5BlockIKNS_6MatrixIdLin1ELin1ELi0ELin1ELin1EEELi1ELin1ELb0EEEEEKNS6_IS9_Lin1ELi1ELb1EEEEEE17coeffByOuterInnerEll, symObjAddr: 0x8B98, symBinAddr: 0x10000B140, symSize: 0x34 }
  - { offsetInCU: 0x6F220, offset: 0x6F220, size: 0x8, addend: 0x0, symName: __ZNK5Eigen9DenseBaseINS_13CwiseBinaryOpINS_8internal17scalar_product_opIddEEKNS_9TransposeIKNS_5BlockIKNS_6MatrixIdLin1ELin1ELi0ELin1ELin1EEELi1ELin1ELb0EEEEEKNS6_IS9_Lin1ELi1ELb1EEEEEE9innerSizeEv, symObjAddr: 0x8BCC, symBinAddr: 0x10000B174, symSize: 0x24 }
  - { offsetInCU: 0x6F246, offset: 0x6F246, size: 0x8, addend: 0x0, symName: __ZNK5Eigen8internal13scalar_sum_opIddEclERKdS4_, symObjAddr: 0x8BF0, symBinAddr: 0x10000B198, symSize: 0x2C }
  - { offsetInCU: 0x6F288, offset: 0x6F288, size: 0x8, addend: 0x0, symName: __ZNK5Eigen9DenseBaseINS_13CwiseBinaryOpINS_8internal17scalar_product_opIddEEKNS_9TransposeIKNS_5BlockIKNS_6MatrixIdLin1ELin1ELi0ELin1ELin1EEELi1ELin1ELb0EEEEEKNS6_IS9_Lin1ELi1ELb1EEEEEE9outerSizeEv, symObjAddr: 0x8C1C, symBinAddr: 0x10000B1C4, symSize: 0x14 }
  - { offsetInCU: 0x6F2AE, offset: 0x6F2AE, size: 0x8, addend: 0x0, symName: __ZNK5Eigen8internal16binary_evaluatorINS_13CwiseBinaryOpINS0_17scalar_product_opIddEEKNS_9TransposeIKNS_5BlockIKNS_6MatrixIdLin1ELin1ELi0ELin1ELin1EEELi1ELin1ELb0EEEEEKNS6_IS9_Lin1ELi1ELb1EEEEENS0_10IndexBasedESH_ddE5coeffEll, symObjAddr: 0x8C30, symBinAddr: 0x10000B1D8, symSize: 0x7C }
  - { offsetInCU: 0x6F2F2, offset: 0x6F2F2, size: 0x8, addend: 0x0, symName: __ZNK5Eigen8internal16binary_evaluatorINS_13CwiseBinaryOpINS0_17scalar_product_opIddEEKNS_9TransposeIKNS_5BlockIKNS_6MatrixIdLin1ELin1ELi0ELin1ELin1EEELi1ELin1ELb0EEEEEKNS6_IS9_Lin1ELi1ELb1EEEEENS0_10IndexBasedESH_ddE4Data4funcEv, symObjAddr: 0x8CAC, symBinAddr: 0x10000B254, symSize: 0x14 }
  - { offsetInCU: 0x6F318, offset: 0x6F318, size: 0x8, addend: 0x0, symName: __ZNK5Eigen8internal17scalar_product_opIddEclERKdS4_, symObjAddr: 0x8CC0, symBinAddr: 0x10000B268, symSize: 0x2C }
  - { offsetInCU: 0x6F35A, offset: 0x6F35A, size: 0x8, addend: 0x0, symName: __ZNK5Eigen8internal15unary_evaluatorINS_9TransposeIKNS_5BlockIKNS_6MatrixIdLin1ELin1ELi0ELin1ELin1EEELi1ELin1ELb0EEEEENS0_10IndexBasedEdE5coeffEll, symObjAddr: 0x8CEC, symBinAddr: 0x10000B294, symSize: 0x34 }
  - { offsetInCU: 0x6F39E, offset: 0x6F39E, size: 0x8, addend: 0x0, symName: __ZNK5Eigen8internal17mapbase_evaluatorINS_5BlockIKNS_6MatrixIdLin1ELin1ELi0ELin1ELin1EEELin1ELi1ELb1EEENS3_IdLin1ELi1ELi0ELin1ELi1EEEE5coeffEll, symObjAddr: 0x8D20, symBinAddr: 0x10000B2C8, symSize: 0x78 }
  - { offsetInCU: 0x6F3E2, offset: 0x6F3E2, size: 0x8, addend: 0x0, symName: __ZNK5Eigen8internal17mapbase_evaluatorINS_5BlockIKNS_6MatrixIdLin1ELin1ELi0ELin1ELin1EEELi1ELin1ELb0EEENS3_IdLi1ELin1ELi1ELi1ELin1EEEE5coeffEll, symObjAddr: 0x8D98, symBinAddr: 0x10000B340, symSize: 0x78 }
  - { offsetInCU: 0x6F426, offset: 0x6F426, size: 0x8, addend: 0x0, symName: __ZNK5Eigen8internal17mapbase_evaluatorINS_5BlockIKNS_6MatrixIdLin1ELin1ELi0ELin1ELin1EEELi1ELin1ELb0EEENS3_IdLi1ELin1ELi1ELi1ELin1EEEE9colStrideEv, symObjAddr: 0x8E10, symBinAddr: 0x10000B3B8, symSize: 0x28 }
  - { offsetInCU: 0x6F44C, offset: 0x6F44C, size: 0x8, addend: 0x0, symName: __ZNK5Eigen8internal17mapbase_evaluatorINS_5BlockIKNS_6MatrixIdLin1ELin1ELi0ELin1ELin1EEELi1ELin1ELb0EEENS3_IdLi1ELin1ELi1ELi1ELin1EEEE9rowStrideEv, symObjAddr: 0x8E38, symBinAddr: 0x10000B3E0, symSize: 0x20 }
  - { offsetInCU: 0x6F472, offset: 0x6F472, size: 0x8, addend: 0x0, symName: __ZNK5Eigen8internal17mapbase_evaluatorINS_5BlockIKNS_6MatrixIdLin1ELin1ELi0ELin1ELin1EEELin1ELi1ELb1EEENS3_IdLin1ELi1ELi0ELin1ELi1EEEE9colStrideEv, symObjAddr: 0x8E58, symBinAddr: 0x10000B400, symSize: 0x28 }
  - { offsetInCU: 0x6F498, offset: 0x6F498, size: 0x8, addend: 0x0, symName: __ZNK5Eigen8internal17mapbase_evaluatorINS_5BlockIKNS_6MatrixIdLin1ELin1ELi0ELin1ELin1EEELin1ELi1ELb1EEENS3_IdLin1ELi1ELi0ELin1ELi1EEEE9rowStrideEv, symObjAddr: 0x8E80, symBinAddr: 0x10000B428, symSize: 0x20 }
  - { offsetInCU: 0x6F4BE, offset: 0x6F4BE, size: 0x8, addend: 0x0, symName: __ZN5Eigen8internal15redux_evaluatorINS_13CwiseBinaryOpINS0_17scalar_product_opIddEEKNS_9TransposeIKNS_5BlockIKNS_6MatrixIdLin1ELin1ELi0ELin1ELin1EEELi1ELin1ELb0EEEEEKNS6_IS9_Lin1ELi1ELb1EEEEEED2Ev, symObjAddr: 0x8EA0, symBinAddr: 0x10000B448, symSize: 0x2C }
  - { offsetInCU: 0x6F4EB, offset: 0x6F4EB, size: 0x8, addend: 0x0, symName: __ZN5Eigen8internal9evaluatorINS_13CwiseBinaryOpINS0_17scalar_product_opIddEEKNS_9TransposeIKNS_5BlockIKNS_6MatrixIdLin1ELin1ELi0ELin1ELin1EEELi1ELin1ELb0EEEEEKNS6_IS9_Lin1ELi1ELb1EEEEEED2Ev, symObjAddr: 0x8ECC, symBinAddr: 0x10000B474, symSize: 0x2C }
  - { offsetInCU: 0x6F518, offset: 0x6F518, size: 0x8, addend: 0x0, symName: __ZN5Eigen8internal16binary_evaluatorINS_13CwiseBinaryOpINS0_17scalar_product_opIddEEKNS_9TransposeIKNS_5BlockIKNS_6MatrixIdLin1ELin1ELi0ELin1ELin1EEELi1ELin1ELb0EEEEEKNS6_IS9_Lin1ELi1ELb1EEEEENS0_10IndexBasedESH_ddED2Ev, symObjAddr: 0x8EF8, symBinAddr: 0x10000B4A0, symSize: 0x34 }
  - { offsetInCU: 0x6F544, offset: 0x6F544, size: 0x8, addend: 0x0, symName: __ZN5Eigen8internal16binary_evaluatorINS_13CwiseBinaryOpINS0_17scalar_product_opIddEEKNS_9TransposeIKNS_5BlockIKNS_6MatrixIdLin1ELin1ELi0ELin1ELin1EEELi1ELin1ELb0EEEEEKNS6_IS9_Lin1ELi1ELb1EEEEENS0_10IndexBasedESH_ddE4DataD1Ev, symObjAddr: 0x8F2C, symBinAddr: 0x10000B4D4, symSize: 0x2C }
  - { offsetInCU: 0x6F571, offset: 0x6F571, size: 0x8, addend: 0x0, symName: __ZN5Eigen8internal16binary_evaluatorINS_13CwiseBinaryOpINS0_17scalar_product_opIddEEKNS_9TransposeIKNS_5BlockIKNS_6MatrixIdLin1ELin1ELi0ELin1ELin1EEELi1ELin1ELb0EEEEEKNS6_IS9_Lin1ELi1ELb1EEEEENS0_10IndexBasedESH_ddE4DataD2Ev, symObjAddr: 0x8F58, symBinAddr: 0x10000B500, symSize: 0x3C }
  - { offsetInCU: 0x6F59E, offset: 0x6F59E, size: 0x8, addend: 0x0, symName: __ZN5Eigen8internal9evaluatorIKNS_5BlockIKNS_6MatrixIdLin1ELin1ELi0ELin1ELin1EEELin1ELi1ELb1EEEED1Ev, symObjAddr: 0x8F94, symBinAddr: 0x10000B53C, symSize: 0x2C }
  - { offsetInCU: 0x6F5CA, offset: 0x6F5CA, size: 0x8, addend: 0x0, symName: __ZN5Eigen8internal9evaluatorIKNS_5BlockIKNS_6MatrixIdLin1ELin1ELi0ELin1ELin1EEELin1ELi1ELb1EEEED2Ev, symObjAddr: 0x8FC0, symBinAddr: 0x10000B568, symSize: 0x2C }
  - { offsetInCU: 0x6F5F6, offset: 0x6F5F6, size: 0x8, addend: 0x0, symName: __ZN5Eigen8internal9evaluatorINS_5BlockIKNS_6MatrixIdLin1ELin1ELi0ELin1ELin1EEELin1ELi1ELb1EEEED2Ev, symObjAddr: 0x8FEC, symBinAddr: 0x10000B594, symSize: 0x2C }
  - { offsetInCU: 0x6F623, offset: 0x6F623, size: 0x8, addend: 0x0, symName: __ZN5Eigen8internal15block_evaluatorIKNS_6MatrixIdLin1ELin1ELi0ELin1ELin1EEELin1ELi1ELb1ELb1EED2Ev, symObjAddr: 0x9018, symBinAddr: 0x10000B5C0, symSize: 0x2C }
  - { offsetInCU: 0x6F650, offset: 0x6F650, size: 0x8, addend: 0x0, symName: __ZN5Eigen8internal31generic_dense_assignment_kernelINS0_9evaluatorINS_6MatrixIdLin1ELin1ELi0ELin1ELin1EEEEENS2_INS_7ProductIS4_S4_Li1EEEEENS0_9assign_opIddEELi1EE12assignPacketILi16ELi0E19__simd128_float64_tEEvll, symObjAddr: 0x9044, symBinAddr: 0x10000B5EC, symSize: 0x70 }
  - { offsetInCU: 0x6F6B1, offset: 0x6F6B1, size: 0x8, addend: 0x0, symName: __ZNK5Eigen8internal9assign_opIddE12assignPacketILi16E19__simd128_float64_tEEvPdRKT0_, symObjAddr: 0x90B4, symBinAddr: 0x10000B65C, symSize: 0x40 }
  - { offsetInCU: 0x6F72B, offset: 0x6F72B, size: 0x8, addend: 0x0, symName: __ZNK5Eigen8internal17product_evaluatorINS_7ProductINS_6MatrixIdLin1ELin1ELi0ELin1ELin1EEES4_Li1EEELi8ENS_10DenseShapeES6_ddE6packetILi0E19__simd128_float64_tEEKT0_ll, symObjAddr: 0x90F4, symBinAddr: 0x10000B69C, symSize: 0x48 }
  - { offsetInCU: 0x6F7A0, offset: 0x6F7A0, size: 0x8, addend: 0x0, symName: __ZN5Eigen8internal24etor_product_packet_implILi0ELin1ENS0_9evaluatorINS_6MatrixIdLin1ELin1ELi0ELin1ELin1EEEEES5_19__simd128_float64_tLi0EE3runEllRKS5_S9_lRS6_, symObjAddr: 0x9168, symBinAddr: 0x10000B710, symSize: 0xC8 }
  - { offsetInCU: 0x6F836, offset: 0x6F836, size: 0x8, addend: 0x0, symName: __ZNK5Eigen8internal9evaluatorINS_15PlainObjectBaseINS_6MatrixIdLin1ELin1ELi0ELin1ELin1EEEEEE6packetILi0E19__simd128_float64_tEET0_ll, symObjAddr: 0x92C8, symBinAddr: 0x10000B870, symSize: 0x60 }
  - { offsetInCU: 0x6F8A8, offset: 0x6F8A8, size: 0x8, addend: 0x0, symName: __ZNK5Eigen8internal9evaluatorINS_15PlainObjectBaseINS_6MatrixIdLin1ELin1ELi0ELin1ELin1EEEEEE5coeffEll, symObjAddr: 0x9328, symBinAddr: 0x10000B8D0, symSize: 0x5C }
  - { offsetInCU: 0x6F8F4, offset: 0x6F8F4, size: 0x8, addend: 0x0, symName: __ZNKSt3__16__lessIvvEclB8ue170006IllEEbRKT_RKT0_, symObjAddr: 0x942C, symBinAddr: 0x10000B9D4, symSize: 0x34 }
  - { offsetInCU: 0x6F948, offset: 0x6F948, size: 0x8, addend: 0x0, symName: __ZN5Eigen8internal9evaluatorINS_7ProductINS_6MatrixIdLin1ELin1ELi0ELin1ELin1EEES4_Li1EEEED2Ev, symObjAddr: 0x9460, symBinAddr: 0x10000BA08, symSize: 0x2C }
  - { offsetInCU: 0x6F974, offset: 0x6F974, size: 0x8, addend: 0x0, symName: __ZN5Eigen8internal17product_evaluatorINS_7ProductINS_6MatrixIdLin1ELin1ELi0ELin1ELin1EEES4_Li1EEELi8ENS_10DenseShapeES6_ddED2Ev, symObjAddr: 0x948C, symBinAddr: 0x10000BA34, symSize: 0x44 }
  - { offsetInCU: 0x6F9A0, offset: 0x6F9A0, size: 0x8, addend: 0x0, symName: __ZN5Eigen7ProductINS_6MatrixIdLin1ELin1ELi0ELin1ELin1EEES2_Li1EEC1ERKS2_S5_, symObjAddr: 0x94D0, symBinAddr: 0x10000BA78, symSize: 0x3C }
  - { offsetInCU: 0x6F9E6, offset: 0x6F9E6, size: 0x8, addend: 0x0, symName: __ZN5Eigen7ProductINS_6MatrixIdLin1ELin1ELi0ELin1ELin1EEES2_Li1EEC2ERKS2_S5_, symObjAddr: 0x950C, symBinAddr: 0x10000BAB4, symSize: 0xC0 }
  - { offsetInCU: 0x6FA31, offset: 0x6FA31, size: 0x8, addend: 0x0, symName: __ZN5Eigen11ProductImplINS_6MatrixIdLin1ELin1ELi0ELin1ELin1EEES2_Li1ENS_5DenseEEC2Ev, symObjAddr: 0x95CC, symBinAddr: 0x10000BB74, symSize: 0x2C }
  - { offsetInCU: 0x6FA62, offset: 0x6FA62, size: 0x8, addend: 0x0, symName: __ZN5Eigen8internal18dense_product_baseINS_6MatrixIdLin1ELin1ELi0ELin1ELin1EEES3_Li1ELi8EEC2Ev, symObjAddr: 0x95F8, symBinAddr: 0x10000BBA0, symSize: 0x2C }
  - { offsetInCU: 0x6FA8E, offset: 0x6FA8E, size: 0x8, addend: 0x0, symName: __ZN5Eigen10MatrixBaseINS_7ProductINS_6MatrixIdLin1ELin1ELi0ELin1ELin1EEES3_Li1EEEEC2Ev, symObjAddr: 0x9624, symBinAddr: 0x10000BBCC, symSize: 0x2C }
  - { offsetInCU: 0x6FAB8, offset: 0x6FAB8, size: 0x8, addend: 0x0, symName: __ZN5Eigen9DenseBaseINS_7ProductINS_6MatrixIdLin1ELin1ELi0ELin1ELin1EEES3_Li1EEEEC2Ev, symObjAddr: 0x9650, symBinAddr: 0x10000BBF8, symSize: 0x14 }
  - { offsetInCU: 0x6FAE2, offset: 0x6FAE2, size: 0x8, addend: 0x0, symName: __ZN5Eigen9DenseBaseINS_6MatrixIdLin1ELin1ELi0ELin1ELin1EEEE11setConstantERKd, symObjAddr: 0x9664, symBinAddr: 0x10000BC0C, symSize: 0x64 }
  - { offsetInCU: 0x6FB1A, offset: 0x6FB1A, size: 0x8, addend: 0x0, symName: __ZN5Eigen9DenseBaseINS_6MatrixIdLin1ELin1ELi0ELin1ELin1EEEE8ConstantEllRKd, symObjAddr: 0x96C8, symBinAddr: 0x10000BC70, symSize: 0x60 }
  - { offsetInCU: 0x6FB5E, offset: 0x6FB5E, size: 0x8, addend: 0x0, symName: __ZN5Eigen6MatrixIdLin1ELin1ELi0ELin1ELin1EEaSINS_14CwiseNullaryOpINS_8internal18scalar_constant_opIdEES1_EEEERS1_RKNS_9DenseBaseIT_EE, symObjAddr: 0x9728, symBinAddr: 0x10000BCD0, symSize: 0x2C }
  - { offsetInCU: 0x6FB9B, offset: 0x6FB9B, size: 0x8, addend: 0x0, symName: __ZN5Eigen9DenseBaseINS_6MatrixIdLin1ELin1ELi0ELin1ELin1EEEE11NullaryExprINS_8internal18scalar_constant_opIdEEEEKNS_14CwiseNullaryOpIT_S2_EEllRKS9_, symObjAddr: 0x9754, symBinAddr: 0x10000BCFC, symSize: 0x48 }
  - { offsetInCU: 0x6FBE8, offset: 0x6FBE8, size: 0x8, addend: 0x0, symName: __ZN5Eigen8internal18scalar_constant_opIdEC1ERKd, symObjAddr: 0x979C, symBinAddr: 0x10000BD44, symSize: 0x34 }
  - { offsetInCU: 0x6FC20, offset: 0x6FC20, size: 0x8, addend: 0x0, symName: __ZN5Eigen14CwiseNullaryOpINS_8internal18scalar_constant_opIdEENS_6MatrixIdLin1ELin1ELi0ELin1ELin1EEEEC1EllRKS3_, symObjAddr: 0x97D0, symBinAddr: 0x10000BD78, symSize: 0x44 }
  - { offsetInCU: 0x6FC74, offset: 0x6FC74, size: 0x8, addend: 0x0, symName: __ZN5Eigen14CwiseNullaryOpINS_8internal18scalar_constant_opIdEENS_6MatrixIdLin1ELin1ELi0ELin1ELin1EEEEC2EllRKS3_, symObjAddr: 0x9814, symBinAddr: 0x10000BDBC, symSize: 0xDC }
  - { offsetInCU: 0x6FCC8, offset: 0x6FCC8, size: 0x8, addend: 0x0, symName: __ZN5Eigen10MatrixBaseINS_14CwiseNullaryOpINS_8internal18scalar_constant_opIdEENS_6MatrixIdLin1ELin1ELi0ELin1ELin1EEEEEEC2Ev, symObjAddr: 0x98F0, symBinAddr: 0x10000BE98, symSize: 0x2C }
  - { offsetInCU: 0x6FCF2, offset: 0x6FCF2, size: 0x8, addend: 0x0, symName: __ZN5Eigen8internal18scalar_constant_opIdEC1ERKS2_, symObjAddr: 0x991C, symBinAddr: 0x10000BEC4, symSize: 0x34 }
  - { offsetInCU: 0x6FD2A, offset: 0x6FD2A, size: 0x8, addend: 0x0, symName: __ZN5Eigen9DenseBaseINS_14CwiseNullaryOpINS_8internal18scalar_constant_opIdEENS_6MatrixIdLin1ELin1ELi0ELin1ELin1EEEEEEC2Ev, symObjAddr: 0x9950, symBinAddr: 0x10000BEF8, symSize: 0x14 }
  - { offsetInCU: 0x6FD54, offset: 0x6FD54, size: 0x8, addend: 0x0, symName: __ZN5Eigen8internal18scalar_constant_opIdEC2ERKS2_, symObjAddr: 0x9964, symBinAddr: 0x10000BF0C, symSize: 0x24 }
  - { offsetInCU: 0x6FD8C, offset: 0x6FD8C, size: 0x8, addend: 0x0, symName: __ZN5Eigen8internal18scalar_constant_opIdEC2ERKd, symObjAddr: 0x9988, symBinAddr: 0x10000BF30, symSize: 0x24 }
  - { offsetInCU: 0x6FDC4, offset: 0x6FDC4, size: 0x8, addend: 0x0, symName: __ZN5Eigen15PlainObjectBaseINS_6MatrixIdLin1ELin1ELi0ELin1ELin1EEEE4_setINS_14CwiseNullaryOpINS_8internal18scalar_constant_opIdEES2_EEEERS2_RKNS_9DenseBaseIT_EE, symObjAddr: 0x99AC, symBinAddr: 0x10000BF54, symSize: 0x4C }
  - { offsetInCU: 0x6FE02, offset: 0x6FE02, size: 0x8, addend: 0x0, symName: __ZNK5Eigen9EigenBaseINS_14CwiseNullaryOpINS_8internal18scalar_constant_opIdEENS_6MatrixIdLin1ELin1ELi0ELin1ELin1EEEEEE7derivedEv, symObjAddr: 0x9A48, symBinAddr: 0x10000BFF0, symSize: 0x14 }
  - { offsetInCU: 0x6FE28, offset: 0x6FE28, size: 0x8, addend: 0x0, symName: __ZN5Eigen8internal10AssignmentINS_6MatrixIdLin1ELin1ELi0ELin1ELin1EEENS_14CwiseNullaryOpINS0_18scalar_constant_opIdEES3_EENS0_9assign_opIddEENS0_11Dense2DenseEvE3runERS3_RKS7_RKS9_, symObjAddr: 0x9AD0, symBinAddr: 0x10000C078, symSize: 0x40 }
  - { offsetInCU: 0x6FE6A, offset: 0x6FE6A, size: 0x8, addend: 0x0, symName: __ZN5Eigen8internal27checkTransposeAliasing_implINS_6MatrixIdLin1ELin1ELi0ELin1ELin1EEENS_14CwiseNullaryOpINS0_18scalar_constant_opIdEES3_EELb0EE3runERKS3_RKS7_, symObjAddr: 0x9BDC, symBinAddr: 0x10000C184, symSize: 0x14 }
  - { offsetInCU: 0x6FE95, offset: 0x6FE95, size: 0x8, addend: 0x0, symName: __ZNK5Eigen14CwiseNullaryOpINS_8internal18scalar_constant_opIdEENS_6MatrixIdLin1ELin1ELi0ELin1ELin1EEEE7functorEv, symObjAddr: 0x9D2C, symBinAddr: 0x10000C2D4, symSize: 0x18 }
  - { offsetInCU: 0x6FEBB, offset: 0x6FEBB, size: 0x8, addend: 0x0, symName: __ZNK5Eigen8internal18scalar_constant_opIdEclEv, symObjAddr: 0x9D44, symBinAddr: 0x10000C2EC, symSize: 0x18 }
  - { offsetInCU: 0x6FEE1, offset: 0x6FEE1, size: 0x8, addend: 0x0, symName: __ZNK5Eigen14CwiseNullaryOpINS_8internal18scalar_constant_opIdEENS_6MatrixIdLin1ELin1ELi0ELin1ELin1EEEE4rowsEv, symObjAddr: 0x9D5C, symBinAddr: 0x10000C304, symSize: 0x24 }
  - { offsetInCU: 0x6FF07, offset: 0x6FF07, size: 0x8, addend: 0x0, symName: __ZNK5Eigen14CwiseNullaryOpINS_8internal18scalar_constant_opIdEENS_6MatrixIdLin1ELin1ELi0ELin1ELin1EEEE4colsEv, symObjAddr: 0x9D80, symBinAddr: 0x10000C328, symSize: 0x28 }
  - { offsetInCU: 0x6FF2D, offset: 0x6FF2D, size: 0x8, addend: 0x0, symName: __ZN5Eigen9DenseBaseINS_6MatrixIdLin1ELin1ELi0ELin1ELin1EEEE3colEl, symObjAddr: 0x9E20, symBinAddr: 0x10000C3C8, symSize: 0x3C }
  - { offsetInCU: 0x7011F, offset: 0x7011F, size: 0x8, addend: 0x0, symName: __ZN5Eigen8internal20generic_product_implINS_6MatrixIdLin1ELin1ELi0ELin1ELin1EEEKNS_5BlockIKS3_Lin1ELi1ELb1EEENS_10DenseShapeES8_Li7EE13scaleAndAddToINS4_IS3_Lin1ELi1ELb1EEEEEvRT_RS5_RS7_RKd, symObjAddr: 0x9E5C, symBinAddr: 0x10000C404, symSize: 0x110 }
  - { offsetInCU: 0x70199, offset: 0x70199, size: 0x8, addend: 0x0, symName: __ZN5Eigen9DenseBaseINS_6MatrixIdLin1ELin1ELi0ELin1ELin1EEEE3rowEl, symObjAddr: 0x9F6C, symBinAddr: 0x10000C514, symSize: 0x3C }
  - { offsetInCU: 0x7038B, offset: 0x7038B, size: 0x8, addend: 0x0, symName: __ZN5Eigen8internal20generic_product_implIKNS_5BlockIKNS_6MatrixIdLin1ELin1ELi0ELin1ELin1EEELi1ELin1ELb0EEES4_NS_10DenseShapeES8_Li7EE13scaleAndAddToINS2_IS4_Li1ELin1ELb0EEEEEvRT_RS7_RS5_RKd, symObjAddr: 0x9FA8, symBinAddr: 0x10000C550, symSize: 0x110 }
  - { offsetInCU: 0x70423, offset: 0x70423, size: 0x8, addend: 0x0, symName: __ZN5Eigen8internal19gemm_blocking_spaceILi0EddLin1ELin1ELin1ELi1ELb0EEC1Ellllb, symObjAddr: 0xA0B8, symBinAddr: 0x10000C660, symSize: 0x60 }
  - { offsetInCU: 0x704BB, offset: 0x704BB, size: 0x8, addend: 0x0, symName: __ZN5Eigen8internal12gemm_functorIdlNS0_29general_matrix_matrix_productIldLi0ELb0EdLi0ELb0ELi0ELi1EEENS_6MatrixIdLin1ELin1ELi0ELin1ELin1EEES5_S5_NS0_19gemm_blocking_spaceILi0EddLin1ELin1ELin1ELi1ELb0EEEEC1ERKS5_SA_RS5_RKdRS7_, symObjAddr: 0xA17C, symBinAddr: 0x10000C724, symSize: 0x54 }
  - { offsetInCU: 0x7052B, offset: 0x7052B, size: 0x8, addend: 0x0, symName: __ZN5Eigen8internal19gemm_blocking_spaceILi0EddLin1ELin1ELin1ELi1ELb0EED1Ev, symObjAddr: 0xA1D0, symBinAddr: 0x10000C778, symSize: 0x2C }
  - { offsetInCU: 0x70555, offset: 0x70555, size: 0x8, addend: 0x0, symName: __ZN5Eigen5BlockINS_6MatrixIdLin1ELin1ELi0ELin1ELin1EEELin1ELi1ELb1EEC1ERS2_l, symObjAddr: 0xA1FC, symBinAddr: 0x10000C7A4, symSize: 0x3C }
  - { offsetInCU: 0x7059B, offset: 0x7059B, size: 0x8, addend: 0x0, symName: __ZN5Eigen5BlockINS_6MatrixIdLin1ELin1ELi0ELin1ELin1EEELin1ELi1ELb1EEC2ERS2_l, symObjAddr: 0xA238, symBinAddr: 0x10000C7E0, symSize: 0xAC }
  - { offsetInCU: 0x705E1, offset: 0x705E1, size: 0x8, addend: 0x0, symName: __ZN5Eigen9BlockImplINS_6MatrixIdLin1ELin1ELi0ELin1ELin1EEELin1ELi1ELb1ENS_5DenseEEC2ERS2_l, symObjAddr: 0xA2E4, symBinAddr: 0x10000C88C, symSize: 0x3C }
  - { offsetInCU: 0x70627, offset: 0x70627, size: 0x8, addend: 0x0, symName: __ZN5Eigen8internal15BlockImpl_denseINS_6MatrixIdLin1ELin1ELi0ELin1ELin1EEELin1ELi1ELb1ELb1EEC2ERS3_l, symObjAddr: 0xA320, symBinAddr: 0x10000C8C8, symSize: 0xAC }
  - { offsetInCU: 0x7066F, offset: 0x7066F, size: 0x8, addend: 0x0, symName: __ZN5Eigen7MapBaseINS_5BlockINS_6MatrixIdLin1ELin1ELi0ELin1ELin1EEELin1ELi1ELb1EEELi1EEC2EPdll, symObjAddr: 0xA3CC, symBinAddr: 0x10000C974, symSize: 0x44 }
  - { offsetInCU: 0x706C6, offset: 0x706C6, size: 0x8, addend: 0x0, symName: __ZN5Eigen8internal15BlockImpl_denseINS_6MatrixIdLin1ELin1ELi0ELin1ELin1EEELin1ELi1ELb1ELb1EE4initEv, symObjAddr: 0xA410, symBinAddr: 0x10000C9B8, symSize: 0x34 }
  - { offsetInCU: 0x706EC, offset: 0x706EC, size: 0x8, addend: 0x0, symName: __ZN5Eigen7MapBaseINS_5BlockINS_6MatrixIdLin1ELin1ELi0ELin1ELin1EEELin1ELi1ELb1EEELi0EEC2EPdll, symObjAddr: 0xA444, symBinAddr: 0x10000C9EC, symSize: 0x11C }
  - { offsetInCU: 0x70740, offset: 0x70740, size: 0x8, addend: 0x0, symName: __ZN5Eigen10MatrixBaseINS_5BlockINS_6MatrixIdLin1ELin1ELi0ELin1ELin1EEELin1ELi1ELb1EEEEC2Ev, symObjAddr: 0xA560, symBinAddr: 0x10000CB08, symSize: 0x2C }
  - { offsetInCU: 0x7076A, offset: 0x7076A, size: 0x8, addend: 0x0, symName: __ZNK5Eigen7MapBaseINS_5BlockINS_6MatrixIdLin1ELin1ELi0ELin1ELin1EEELin1ELi1ELb1EEELi0EE11checkSanityIS4_EEvNS_8internal9enable_ifIXeqsr8internal6traitsIT_EE9AlignmentLi0EEPvE4typeE, symObjAddr: 0xA58C, symBinAddr: 0x10000CB34, symSize: 0x14 }
  - { offsetInCU: 0x707A4, offset: 0x707A4, size: 0x8, addend: 0x0, symName: __ZN5Eigen9DenseBaseINS_5BlockINS_6MatrixIdLin1ELin1ELi0ELin1ELin1EEELin1ELi1ELb1EEEEC2Ev, symObjAddr: 0xA5A0, symBinAddr: 0x10000CB48, symSize: 0x14 }
  - { offsetInCU: 0x707CE, offset: 0x707CE, size: 0x8, addend: 0x0, symName: __ZNK5Eigen9DenseBaseINS_5BlockIKNS_6MatrixIdLin1ELin1ELi0ELin1ELin1EEELi1ELin1ELb0EEEE9conjugateEv, symObjAddr: 0xA5B4, symBinAddr: 0x10000CB5C, symSize: 0x24 }
  - { offsetInCU: 0x707F4, offset: 0x707F4, size: 0x8, addend: 0x0, symName: __ZNK5Eigen10MatrixBaseINS_5BlockIKNS_6MatrixIdLin1ELin1ELi0ELin1ELin1EEELi1ELin1ELb0EEEE3dotINS1_IKNS1_IS4_Lin1ELi1ELb1EEELin1ELi1ELb1EEEEENS_20ScalarBinaryOpTraitsIdNS_8internal6traitsIT_E6ScalarENSC_17scalar_product_opIdSG_EEE10ReturnTypeERKNS0_ISE_EE, symObjAddr: 0xA5D8, symBinAddr: 0x10000CB80, symSize: 0x80 }
  - { offsetInCU: 0x70833, offset: 0x70833, size: 0x8, addend: 0x0, symName: __ZNK5Eigen9DenseBaseINS_5BlockIKNS_6MatrixIdLin1ELin1ELi0ELin1ELin1EEELin1ELi1ELb1EEEE3colEl, symObjAddr: 0xA658, symBinAddr: 0x10000CC00, symSize: 0x3C }
  - { offsetInCU: 0x70868, offset: 0x70868, size: 0x8, addend: 0x0, symName: __ZN5Eigen7MapBaseINS_5BlockINS_6MatrixIdLin1ELin1ELi0ELin1ELin1EEELin1ELi1ELb1EEELi1EE8coeffRefEll, symObjAddr: 0xA694, symBinAddr: 0x10000CC3C, symSize: 0x78 }
  - { offsetInCU: 0x70A3A, offset: 0x70A3A, size: 0x8, addend: 0x0, symName: __ZN5Eigen8internal19gemv_dense_selectorILi2ELi0ELb1EE3runINS_6MatrixIdLin1ELin1ELi0ELin1ELin1EEENS_5BlockIKS5_Lin1ELi1ELb1EEENS6_IS5_Lin1ELi1ELb1EEEEEvRKT_RKT0_RT1_RKNSG_6ScalarE, symObjAddr: 0xA70C, symBinAddr: 0x10000CCB4, symSize: 0x260 }
  - { offsetInCU: 0x70CA1, offset: 0x70CA1, size: 0x8, addend: 0x0, symName: __ZNK5Eigen9EigenBaseINS_5BlockIKNS_6MatrixIdLin1ELin1ELi0ELin1ELin1EEELi1ELin1ELb0EEEE4sizeEv, symObjAddr: 0xA96C, symBinAddr: 0x10000CF14, symSize: 0x44 }
  - { offsetInCU: 0x70CC7, offset: 0x70CC7, size: 0x8, addend: 0x0, symName: __ZNK5Eigen9EigenBaseINS_5BlockIKNS1_IKNS_6MatrixIdLin1ELin1ELi0ELin1ELin1EEELin1ELi1ELb1EEELin1ELi1ELb1EEEE4sizeEv, symObjAddr: 0xA9B0, symBinAddr: 0x10000CF58, symSize: 0x44 }
  - { offsetInCU: 0x70CED, offset: 0x70CED, size: 0x8, addend: 0x0, symName: __ZN5Eigen8internal11dot_nocheckINS_5BlockIKNS_6MatrixIdLin1ELin1ELi0ELin1ELin1EEELi1ELin1ELb0EEENS2_IKNS2_IS5_Lin1ELi1ELb1EEELin1ELi1ELb1EEELb1EE3runERKNS_10MatrixBaseIS6_EERKNSB_IS9_EE, symObjAddr: 0xA9F4, symBinAddr: 0x10000CF9C, symSize: 0x78 }
  - { offsetInCU: 0x70D1E, offset: 0x70D1E, size: 0x8, addend: 0x0, symName: __ZNK5Eigen9EigenBaseINS_5BlockIKNS_6MatrixIdLin1ELin1ELi0ELin1ELin1EEELi1ELin1ELb0EEEE4rowsEv, symObjAddr: 0xAA6C, symBinAddr: 0x10000D014, symSize: 0x28 }
  - { offsetInCU: 0x70D44, offset: 0x70D44, size: 0x8, addend: 0x0, symName: __ZNK5Eigen9EigenBaseINS_5BlockIKNS_6MatrixIdLin1ELin1ELi0ELin1ELin1EEELi1ELin1ELb0EEEE4colsEv, symObjAddr: 0xAA94, symBinAddr: 0x10000D03C, symSize: 0x28 }
  - { offsetInCU: 0x70D6A, offset: 0x70D6A, size: 0x8, addend: 0x0, symName: __ZNK5Eigen9EigenBaseINS_5BlockIKNS1_IKNS_6MatrixIdLin1ELin1ELi0ELin1ELin1EEELin1ELi1ELb1EEELin1ELi1ELb1EEEE4rowsEv, symObjAddr: 0xAABC, symBinAddr: 0x10000D064, symSize: 0x38 }
  - { offsetInCU: 0x70D90, offset: 0x70D90, size: 0x8, addend: 0x0, symName: __ZNK5Eigen9EigenBaseINS_5BlockIKNS1_IKNS_6MatrixIdLin1ELin1ELi0ELin1ELin1EEELin1ELi1ELb1EEELin1ELi1ELb1EEEE4colsEv, symObjAddr: 0xAAF4, symBinAddr: 0x10000D09C, symSize: 0x28 }
  - { offsetInCU: 0x70DB6, offset: 0x70DB6, size: 0x8, addend: 0x0, symName: __ZNK5Eigen9EigenBaseINS_5BlockIKNS1_IKNS_6MatrixIdLin1ELin1ELi0ELin1ELin1EEELin1ELi1ELb1EEELin1ELi1ELb1EEEE7derivedEv, symObjAddr: 0xAB1C, symBinAddr: 0x10000D0C4, symSize: 0x14 }
  - { offsetInCU: 0x70DDC, offset: 0x70DDC, size: 0x8, addend: 0x0, symName: __ZNK5Eigen7MapBaseINS_5BlockIKNS1_IKNS_6MatrixIdLin1ELin1ELi0ELin1ELin1EEELin1ELi1ELb1EEELin1ELi1ELb1EEELi0EE4rowsEv, symObjAddr: 0xAB30, symBinAddr: 0x10000D0D8, symSize: 0x28 }
  - { offsetInCU: 0x70E02, offset: 0x70E02, size: 0x8, addend: 0x0, symName: __ZNK5Eigen7MapBaseINS_5BlockIKNS1_IKNS_6MatrixIdLin1ELin1ELi0ELin1ELin1EEELin1ELi1ELb1EEELin1ELi1ELb1EEELi0EE4colsEv, symObjAddr: 0xAB58, symBinAddr: 0x10000D100, symSize: 0x20 }
  - { offsetInCU: 0x70E28, offset: 0x70E28, size: 0x8, addend: 0x0, symName: __ZNK5Eigen10MatrixBaseINS_9TransposeIKNS_5BlockIKNS_6MatrixIdLin1ELin1ELi0ELin1ELin1EEELi1ELin1ELb0EEEEEE10binaryExprINS_8internal22scalar_conj_product_opIddEENS2_IKNS2_IS5_Lin1ELi1ELb1EEELin1ELi1ELb1EEEEEKNS_13CwiseBinaryOpIT_KS8_KT0_EERKNS0_ISK_EERKSI_, symObjAddr: 0xAB78, symBinAddr: 0x10000D120, symSize: 0x54 }
  - { offsetInCU: 0x70E7C, offset: 0x70E7C, size: 0x8, addend: 0x0, symName: __ZN5Eigen8internal22scalar_conj_product_opIddEC1Ev, symObjAddr: 0xABCC, symBinAddr: 0x10000D174, symSize: 0x2C }
  - { offsetInCU: 0x70EA6, offset: 0x70EA6, size: 0x8, addend: 0x0, symName: __ZNK5Eigen9DenseBaseINS_13CwiseBinaryOpINS_8internal22scalar_conj_product_opIddEEKNS_9TransposeIKNS_5BlockIKNS_6MatrixIdLin1ELin1ELi0ELin1ELin1EEELi1ELin1ELb0EEEEEKNS6_IKNS6_IS9_Lin1ELi1ELb1EEELin1ELi1ELb1EEEEEE3sumEv, symObjAddr: 0xABF8, symBinAddr: 0x10000D1A0, symSize: 0x74 }
  - { offsetInCU: 0x70ECF, offset: 0x70ECF, size: 0x8, addend: 0x0, symName: __ZN5Eigen13CwiseBinaryOpINS_8internal22scalar_conj_product_opIddEEKNS_9TransposeIKNS_5BlockIKNS_6MatrixIdLin1ELin1ELi0ELin1ELin1EEELi1ELin1ELb0EEEEEKNS5_IKNS5_IS8_Lin1ELi1ELb1EEELin1ELi1ELb1EEEEC1ERSC_RSG_RKS3_, symObjAddr: 0xAC6C, symBinAddr: 0x10000D214, symSize: 0x44 }
  - { offsetInCU: 0x70F23, offset: 0x70F23, size: 0x8, addend: 0x0, symName: __ZN5Eigen13CwiseBinaryOpINS_8internal22scalar_conj_product_opIddEEKNS_9TransposeIKNS_5BlockIKNS_6MatrixIdLin1ELin1ELi0ELin1ELin1EEELi1ELin1ELb0EEEEEKNS5_IKNS5_IS8_Lin1ELi1ELb1EEELin1ELi1ELb1EEEEC2ERSC_RSG_RKS3_, symObjAddr: 0xACB0, symBinAddr: 0x10000D258, symSize: 0x100 }
  - { offsetInCU: 0x70F7C, offset: 0x70F7C, size: 0x8, addend: 0x0, symName: __ZN5Eigen17CwiseBinaryOpImplINS_8internal22scalar_conj_product_opIddEEKNS_9TransposeIKNS_5BlockIKNS_6MatrixIdLin1ELin1ELi0ELin1ELin1EEELi1ELin1ELb0EEEEEKNS5_IKNS5_IS8_Lin1ELi1ELb1EEELin1ELi1ELb1EEENS_5DenseEEC2Ev, symObjAddr: 0xADB0, symBinAddr: 0x10000D358, symSize: 0x2C }
  - { offsetInCU: 0x70FA8, offset: 0x70FA8, size: 0x8, addend: 0x0, symName: __ZN5Eigen8internal22scalar_conj_product_opIddEC1ERKS2_, symObjAddr: 0xADDC, symBinAddr: 0x10000D384, symSize: 0x34 }
  - { offsetInCU: 0x70FDD, offset: 0x70FDD, size: 0x8, addend: 0x0, symName: __ZN5Eigen10MatrixBaseINS_13CwiseBinaryOpINS_8internal22scalar_conj_product_opIddEEKNS_9TransposeIKNS_5BlockIKNS_6MatrixIdLin1ELin1ELi0ELin1ELin1EEELi1ELin1ELb0EEEEEKNS6_IKNS6_IS9_Lin1ELi1ELb1EEELin1ELi1ELb1EEEEEEC2Ev, symObjAddr: 0xAE10, symBinAddr: 0x10000D3B8, symSize: 0x2C }
  - { offsetInCU: 0x71007, offset: 0x71007, size: 0x8, addend: 0x0, symName: __ZN5Eigen9DenseBaseINS_13CwiseBinaryOpINS_8internal22scalar_conj_product_opIddEEKNS_9TransposeIKNS_5BlockIKNS_6MatrixIdLin1ELin1ELi0ELin1ELin1EEELi1ELin1ELb0EEEEEKNS6_IKNS6_IS9_Lin1ELi1ELb1EEELin1ELi1ELb1EEEEEEC2Ev, symObjAddr: 0xAE3C, symBinAddr: 0x10000D3E4, symSize: 0x14 }
  - { offsetInCU: 0x71031, offset: 0x71031, size: 0x8, addend: 0x0, symName: __ZN5Eigen8internal22scalar_conj_product_opIddEC2ERKS2_, symObjAddr: 0xAE50, symBinAddr: 0x10000D3F8, symSize: 0x18 }
  - { offsetInCU: 0x71066, offset: 0x71066, size: 0x8, addend: 0x0, symName: __ZN5Eigen8internal22scalar_conj_product_opIddEC2Ev, symObjAddr: 0xAE68, symBinAddr: 0x10000D410, symSize: 0x14 }
  - { offsetInCU: 0x71090, offset: 0x71090, size: 0x8, addend: 0x0, symName: __ZNK5Eigen9EigenBaseINS_13CwiseBinaryOpINS_8internal22scalar_conj_product_opIddEEKNS_9TransposeIKNS_5BlockIKNS_6MatrixIdLin1ELin1ELi0ELin1ELin1EEELi1ELin1ELb0EEEEEKNS6_IKNS6_IS9_Lin1ELi1ELb1EEELin1ELi1ELb1EEEEEE4sizeEv, symObjAddr: 0xAE7C, symBinAddr: 0x10000D424, symSize: 0x44 }
  - { offsetInCU: 0x710B6, offset: 0x710B6, size: 0x8, addend: 0x0, symName: __ZNK5Eigen9EigenBaseINS_13CwiseBinaryOpINS_8internal22scalar_conj_product_opIddEEKNS_9TransposeIKNS_5BlockIKNS_6MatrixIdLin1ELin1ELi0ELin1ELin1EEELi1ELin1ELb0EEEEEKNS6_IKNS6_IS9_Lin1ELi1ELb1EEELin1ELi1ELb1EEEEEE7derivedEv, symObjAddr: 0xAEC0, symBinAddr: 0x10000D468, symSize: 0x14 }
  - { offsetInCU: 0x710DC, offset: 0x710DC, size: 0x8, addend: 0x0, symName: __ZNK5Eigen9DenseBaseINS_13CwiseBinaryOpINS_8internal22scalar_conj_product_opIddEEKNS_9TransposeIKNS_5BlockIKNS_6MatrixIdLin1ELin1ELi0ELin1ELin1EEELi1ELin1ELb0EEEEEKNS6_IKNS6_IS9_Lin1ELi1ELb1EEELin1ELi1ELb1EEEEEE5reduxINS2_13scalar_sum_opIddEEEEdRKT_, symObjAddr: 0xAED4, symBinAddr: 0x10000D47C, symSize: 0x10C }
  - { offsetInCU: 0x71138, offset: 0x71138, size: 0x8, addend: 0x0, symName: __ZNK5Eigen9EigenBaseINS_13CwiseBinaryOpINS_8internal22scalar_conj_product_opIddEEKNS_9TransposeIKNS_5BlockIKNS_6MatrixIdLin1ELin1ELi0ELin1ELin1EEELi1ELin1ELb0EEEEEKNS6_IKNS6_IS9_Lin1ELi1ELb1EEELin1ELi1ELb1EEEEEE4rowsEv, symObjAddr: 0xAFE0, symBinAddr: 0x10000D588, symSize: 0x38 }
  - { offsetInCU: 0x7115E, offset: 0x7115E, size: 0x8, addend: 0x0, symName: __ZNK5Eigen9EigenBaseINS_13CwiseBinaryOpINS_8internal22scalar_conj_product_opIddEEKNS_9TransposeIKNS_5BlockIKNS_6MatrixIdLin1ELin1ELi0ELin1ELin1EEELi1ELin1ELb0EEEEEKNS6_IKNS6_IS9_Lin1ELi1ELb1EEELin1ELi1ELb1EEEEEE4colsEv, symObjAddr: 0xB018, symBinAddr: 0x10000D5C0, symSize: 0x38 }
  - { offsetInCU: 0x71184, offset: 0x71184, size: 0x8, addend: 0x0, symName: __ZNK5Eigen13CwiseBinaryOpINS_8internal22scalar_conj_product_opIddEEKNS_9TransposeIKNS_5BlockIKNS_6MatrixIdLin1ELin1ELi0ELin1ELin1EEELi1ELin1ELb0EEEEEKNS5_IKNS5_IS8_Lin1ELi1ELb1EEELin1ELi1ELb1EEEE4rowsEv, symObjAddr: 0xB050, symBinAddr: 0x10000D5F8, symSize: 0x28 }
  - { offsetInCU: 0x711AA, offset: 0x711AA, size: 0x8, addend: 0x0, symName: __ZNK5Eigen13CwiseBinaryOpINS_8internal22scalar_conj_product_opIddEEKNS_9TransposeIKNS_5BlockIKNS_6MatrixIdLin1ELin1ELi0ELin1ELin1EEELi1ELin1ELb0EEEEEKNS5_IKNS5_IS8_Lin1ELi1ELb1EEELin1ELi1ELb1EEEE4colsEv, symObjAddr: 0xB078, symBinAddr: 0x10000D620, symSize: 0x24 }
  - { offsetInCU: 0x71252, offset: 0x71252, size: 0x8, addend: 0x0, symName: __ZN5Eigen8internal15redux_evaluatorINS_13CwiseBinaryOpINS0_22scalar_conj_product_opIddEEKNS_9TransposeIKNS_5BlockIKNS_6MatrixIdLin1ELin1ELi0ELin1ELin1EEELi1ELin1ELb0EEEEEKNS6_IKNS6_IS9_Lin1ELi1ELb1EEELin1ELi1ELb1EEEEEEC1ERKSI_, symObjAddr: 0xB09C, symBinAddr: 0x10000D644, symSize: 0x34 }
  - { offsetInCU: 0x71290, offset: 0x71290, size: 0x8, addend: 0x0, symName: __ZN5Eigen8internal10redux_implINS0_13scalar_sum_opIddEENS0_15redux_evaluatorINS_13CwiseBinaryOpINS0_22scalar_conj_product_opIddEEKNS_9TransposeIKNS_5BlockIKNS_6MatrixIdLin1ELin1ELi0ELin1ELin1EEELi1ELin1ELb0EEEEEKNS9_IKNS9_ISC_Lin1ELi1ELb1EEELin1ELi1ELb1EEEEEEELi0ELi0EE3runISL_EEdRKSM_RKS3_RKT_, symObjAddr: 0xB0D0, symBinAddr: 0x10000D678, symSize: 0x1E0 }
  - { offsetInCU: 0x7133B, offset: 0x7133B, size: 0x8, addend: 0x0, symName: __ZN5Eigen8internal15redux_evaluatorINS_13CwiseBinaryOpINS0_22scalar_conj_product_opIddEEKNS_9TransposeIKNS_5BlockIKNS_6MatrixIdLin1ELin1ELi0ELin1ELin1EEELi1ELin1ELb0EEEEEKNS6_IKNS6_IS9_Lin1ELi1ELb1EEELin1ELi1ELb1EEEEEED1Ev, symObjAddr: 0xB2B0, symBinAddr: 0x10000D858, symSize: 0x2C }
  - { offsetInCU: 0x71368, offset: 0x71368, size: 0x8, addend: 0x0, symName: __ZN5Eigen8internal15redux_evaluatorINS_13CwiseBinaryOpINS0_22scalar_conj_product_opIddEEKNS_9TransposeIKNS_5BlockIKNS_6MatrixIdLin1ELin1ELi0ELin1ELin1EEELi1ELin1ELb0EEEEEKNS6_IKNS6_IS9_Lin1ELi1ELb1EEELin1ELi1ELb1EEEEEEC2ERKSI_, symObjAddr: 0xB2DC, symBinAddr: 0x10000D884, symSize: 0x34 }
  - { offsetInCU: 0x713A1, offset: 0x713A1, size: 0x8, addend: 0x0, symName: __ZN5Eigen8internal9evaluatorINS_13CwiseBinaryOpINS0_22scalar_conj_product_opIddEEKNS_9TransposeIKNS_5BlockIKNS_6MatrixIdLin1ELin1ELi0ELin1ELin1EEELi1ELin1ELb0EEEEEKNS6_IKNS6_IS9_Lin1ELi1ELb1EEELin1ELi1ELb1EEEEEEC2ERKSI_, symObjAddr: 0xB310, symBinAddr: 0x10000D8B8, symSize: 0x34 }
  - { offsetInCU: 0x713DA, offset: 0x713DA, size: 0x8, addend: 0x0, symName: __ZN5Eigen8internal16binary_evaluatorINS_13CwiseBinaryOpINS0_22scalar_conj_product_opIddEEKNS_9TransposeIKNS_5BlockIKNS_6MatrixIdLin1ELin1ELi0ELin1ELin1EEELi1ELin1ELb0EEEEEKNS6_IKNS6_IS9_Lin1ELi1ELb1EEELin1ELi1ELb1EEEEENS0_10IndexBasedESJ_ddEC2ERKSI_, symObjAddr: 0xB344, symBinAddr: 0x10000D8EC, symSize: 0x64 }
  - { offsetInCU: 0x71413, offset: 0x71413, size: 0x8, addend: 0x0, symName: __ZN5Eigen8internal14evaluator_baseINS_13CwiseBinaryOpINS0_22scalar_conj_product_opIddEEKNS_9TransposeIKNS_5BlockIKNS_6MatrixIdLin1ELin1ELi0ELin1ELin1EEELi1ELin1ELb0EEEEEKNS6_IKNS6_IS9_Lin1ELi1ELb1EEELin1ELi1ELb1EEEEEEC2Ev, symObjAddr: 0xB3A8, symBinAddr: 0x10000D950, symSize: 0x14 }
  - { offsetInCU: 0x7143D, offset: 0x7143D, size: 0x8, addend: 0x0, symName: __ZN5Eigen8internal16binary_evaluatorINS_13CwiseBinaryOpINS0_22scalar_conj_product_opIddEEKNS_9TransposeIKNS_5BlockIKNS_6MatrixIdLin1ELin1ELi0ELin1ELin1EEELi1ELin1ELb0EEEEEKNS6_IKNS6_IS9_Lin1ELi1ELb1EEELin1ELi1ELb1EEEEENS0_10IndexBasedESJ_ddE4DataC1ERKSI_, symObjAddr: 0xB3BC, symBinAddr: 0x10000D964, symSize: 0x34 }
  - { offsetInCU: 0x71476, offset: 0x71476, size: 0x8, addend: 0x0, symName: __ZN5Eigen8internal14evaluator_baseINS_13CwiseBinaryOpINS0_22scalar_conj_product_opIddEEKNS_9TransposeIKNS_5BlockIKNS_6MatrixIdLin1ELin1ELi0ELin1ELin1EEELi1ELin1ELb0EEEEEKNS6_IKNS6_IS9_Lin1ELi1ELb1EEELin1ELi1ELb1EEEEEED2Ev, symObjAddr: 0xB3F0, symBinAddr: 0x10000D998, symSize: 0x14 }
  - { offsetInCU: 0x714A0, offset: 0x714A0, size: 0x8, addend: 0x0, symName: __ZN5Eigen8internal16binary_evaluatorINS_13CwiseBinaryOpINS0_22scalar_conj_product_opIddEEKNS_9TransposeIKNS_5BlockIKNS_6MatrixIdLin1ELin1ELi0ELin1ELin1EEELi1ELin1ELb0EEEEEKNS6_IKNS6_IS9_Lin1ELi1ELb1EEELin1ELi1ELb1EEEEENS0_10IndexBasedESJ_ddE4DataC2ERKSI_, symObjAddr: 0xB404, symBinAddr: 0x10000D9AC, symSize: 0xA8 }
  - { offsetInCU: 0x714D9, offset: 0x714D9, size: 0x8, addend: 0x0, symName: __ZNK5Eigen13CwiseBinaryOpINS_8internal22scalar_conj_product_opIddEEKNS_9TransposeIKNS_5BlockIKNS_6MatrixIdLin1ELin1ELi0ELin1ELin1EEELi1ELin1ELb0EEEEEKNS5_IKNS5_IS8_Lin1ELi1ELb1EEELin1ELi1ELb1EEEE7functorEv, symObjAddr: 0xB4AC, symBinAddr: 0x10000DA54, symSize: 0x18 }
  - { offsetInCU: 0x714FF, offset: 0x714FF, size: 0x8, addend: 0x0, symName: __ZNK5Eigen13CwiseBinaryOpINS_8internal22scalar_conj_product_opIddEEKNS_9TransposeIKNS_5BlockIKNS_6MatrixIdLin1ELin1ELi0ELin1ELin1EEELi1ELin1ELb0EEEEEKNS5_IKNS5_IS8_Lin1ELi1ELb1EEELin1ELi1ELb1EEEE3lhsEv, symObjAddr: 0xB4C4, symBinAddr: 0x10000DA6C, symSize: 0x14 }
  - { offsetInCU: 0x71525, offset: 0x71525, size: 0x8, addend: 0x0, symName: __ZNK5Eigen13CwiseBinaryOpINS_8internal22scalar_conj_product_opIddEEKNS_9TransposeIKNS_5BlockIKNS_6MatrixIdLin1ELin1ELi0ELin1ELin1EEELi1ELin1ELb0EEEEEKNS5_IKNS5_IS8_Lin1ELi1ELb1EEELin1ELi1ELb1EEEE3rhsEv, symObjAddr: 0xB4D8, symBinAddr: 0x10000DA80, symSize: 0x18 }
  - { offsetInCU: 0x7154B, offset: 0x7154B, size: 0x8, addend: 0x0, symName: __ZN5Eigen8internal9evaluatorIKNS_5BlockIKNS2_IKNS_6MatrixIdLin1ELin1ELi0ELin1ELin1EEELin1ELi1ELb1EEELin1ELi1ELb1EEEEC1ERS9_, symObjAddr: 0xB4F0, symBinAddr: 0x10000DA98, symSize: 0x34 }
  - { offsetInCU: 0x71583, offset: 0x71583, size: 0x8, addend: 0x0, symName: __ZN5Eigen8internal9evaluatorIKNS_5BlockIKNS2_IKNS_6MatrixIdLin1ELin1ELi0ELin1ELin1EEELin1ELi1ELb1EEELin1ELi1ELb1EEEEC2ERS9_, symObjAddr: 0xB524, symBinAddr: 0x10000DACC, symSize: 0x34 }
  - { offsetInCU: 0x715BB, offset: 0x715BB, size: 0x8, addend: 0x0, symName: __ZN5Eigen8internal9evaluatorINS_5BlockIKNS2_IKNS_6MatrixIdLin1ELin1ELi0ELin1ELin1EEELin1ELi1ELb1EEELin1ELi1ELb1EEEEC2ERKS8_, symObjAddr: 0xB558, symBinAddr: 0x10000DB00, symSize: 0x34 }
  - { offsetInCU: 0x715F4, offset: 0x715F4, size: 0x8, addend: 0x0, symName: __ZN5Eigen8internal15block_evaluatorIKNS_5BlockIKNS_6MatrixIdLin1ELin1ELi0ELin1ELin1EEELin1ELi1ELb1EEELin1ELi1ELb1ELb1EEC2ERKNS2_IS7_Lin1ELi1ELb1EEE, symObjAddr: 0xB58C, symBinAddr: 0x10000DB34, symSize: 0xDC }
  - { offsetInCU: 0x7162D, offset: 0x7162D, size: 0x8, addend: 0x0, symName: __ZN5Eigen8internal17mapbase_evaluatorINS_5BlockIKNS2_IKNS_6MatrixIdLin1ELin1ELi0ELin1ELin1EEELin1ELi1ELb1EEELin1ELi1ELb1EEENS3_IdLin1ELi1ELi0ELin1ELi1EEEEC2ERKS8_, symObjAddr: 0xB668, symBinAddr: 0x10000DC10, symSize: 0xB0 }
  - { offsetInCU: 0x71666, offset: 0x71666, size: 0x8, addend: 0x0, symName: __ZNK5Eigen7MapBaseINS_5BlockIKNS1_IKNS_6MatrixIdLin1ELin1ELi0ELin1ELin1EEELin1ELi1ELb1EEELin1ELi1ELb1EEELi0EE4dataEv, symObjAddr: 0xB718, symBinAddr: 0x10000DCC0, symSize: 0x18 }
  - { offsetInCU: 0x7168C, offset: 0x7168C, size: 0x8, addend: 0x0, symName: __ZN5Eigen8internal17mapbase_evaluatorINS_5BlockIKNS2_IKNS_6MatrixIdLin1ELin1ELi0ELin1ELin1EEELin1ELi1ELb1EEELin1ELi1ELb1EEENS3_IdLin1ELi1ELi0ELin1ELi1EEEED2Ev, symObjAddr: 0xB730, symBinAddr: 0x10000DCD8, symSize: 0x2C }
  - { offsetInCU: 0x716B9, offset: 0x716B9, size: 0x8, addend: 0x0, symName: __ZN5Eigen8internal14evaluator_baseINS_5BlockIKNS2_IKNS_6MatrixIdLin1ELin1ELi0ELin1ELin1EEELin1ELi1ELb1EEELin1ELi1ELb1EEEEC2Ev, symObjAddr: 0xB75C, symBinAddr: 0x10000DD04, symSize: 0x14 }
  - { offsetInCU: 0x716E3, offset: 0x716E3, size: 0x8, addend: 0x0, symName: __ZNK5Eigen8internal15BlockImpl_denseIKNS_5BlockIKNS_6MatrixIdLin1ELin1ELi0ELin1ELin1EEELin1ELi1ELb1EEELin1ELi1ELb1ELb1EE11innerStrideEv, symObjAddr: 0xB770, symBinAddr: 0x10000DD18, symSize: 0x28 }
  - { offsetInCU: 0x71709, offset: 0x71709, size: 0x8, addend: 0x0, symName: __ZNK5Eigen8internal15BlockImpl_denseIKNS_5BlockIKNS_6MatrixIdLin1ELin1ELi0ELin1ELin1EEELin1ELi1ELb1EEELin1ELi1ELb1ELb1EE11outerStrideEv, symObjAddr: 0xB798, symBinAddr: 0x10000DD40, symSize: 0x28 }
  - { offsetInCU: 0x7172F, offset: 0x7172F, size: 0x8, addend: 0x0, symName: __ZN5Eigen8internal14evaluator_baseINS_5BlockIKNS2_IKNS_6MatrixIdLin1ELin1ELi0ELin1ELin1EEELin1ELi1ELb1EEELin1ELi1ELb1EEEED2Ev, symObjAddr: 0xB7C0, symBinAddr: 0x10000DD68, symSize: 0x14 }
  - { offsetInCU: 0x71759, offset: 0x71759, size: 0x8, addend: 0x0, symName: __ZNK5Eigen8internal15redux_evaluatorINS_13CwiseBinaryOpINS0_22scalar_conj_product_opIddEEKNS_9TransposeIKNS_5BlockIKNS_6MatrixIdLin1ELin1ELi0ELin1ELin1EEELi1ELin1ELb0EEEEEKNS6_IKNS6_IS9_Lin1ELi1ELb1EEELin1ELi1ELb1EEEEEE17coeffByOuterInnerEll, symObjAddr: 0xB7D4, symBinAddr: 0x10000DD7C, symSize: 0x34 }
  - { offsetInCU: 0x7179D, offset: 0x7179D, size: 0x8, addend: 0x0, symName: __ZNK5Eigen9DenseBaseINS_13CwiseBinaryOpINS_8internal22scalar_conj_product_opIddEEKNS_9TransposeIKNS_5BlockIKNS_6MatrixIdLin1ELin1ELi0ELin1ELin1EEELi1ELin1ELb0EEEEEKNS6_IKNS6_IS9_Lin1ELi1ELb1EEELin1ELi1ELb1EEEEEE9innerSizeEv, symObjAddr: 0xB808, symBinAddr: 0x10000DDB0, symSize: 0x24 }
  - { offsetInCU: 0x717C3, offset: 0x717C3, size: 0x8, addend: 0x0, symName: __ZNK5Eigen9DenseBaseINS_13CwiseBinaryOpINS_8internal22scalar_conj_product_opIddEEKNS_9TransposeIKNS_5BlockIKNS_6MatrixIdLin1ELin1ELi0ELin1ELin1EEELi1ELin1ELb0EEEEEKNS6_IKNS6_IS9_Lin1ELi1ELb1EEELin1ELi1ELb1EEEEEE9outerSizeEv, symObjAddr: 0xB82C, symBinAddr: 0x10000DDD4, symSize: 0x14 }
  - { offsetInCU: 0x717E9, offset: 0x717E9, size: 0x8, addend: 0x0, symName: __ZNK5Eigen8internal16binary_evaluatorINS_13CwiseBinaryOpINS0_22scalar_conj_product_opIddEEKNS_9TransposeIKNS_5BlockIKNS_6MatrixIdLin1ELin1ELi0ELin1ELin1EEELi1ELin1ELb0EEEEEKNS6_IKNS6_IS9_Lin1ELi1ELb1EEELin1ELi1ELb1EEEEENS0_10IndexBasedESJ_ddE5coeffEll, symObjAddr: 0xB840, symBinAddr: 0x10000DDE8, symSize: 0x7C }
  - { offsetInCU: 0x7182D, offset: 0x7182D, size: 0x8, addend: 0x0, symName: __ZNK5Eigen8internal16binary_evaluatorINS_13CwiseBinaryOpINS0_22scalar_conj_product_opIddEEKNS_9TransposeIKNS_5BlockIKNS_6MatrixIdLin1ELin1ELi0ELin1ELin1EEELi1ELin1ELb0EEEEEKNS6_IKNS6_IS9_Lin1ELi1ELb1EEELin1ELi1ELb1EEEEENS0_10IndexBasedESJ_ddE4Data4funcEv, symObjAddr: 0xB8BC, symBinAddr: 0x10000DE64, symSize: 0x14 }
  - { offsetInCU: 0x71853, offset: 0x71853, size: 0x8, addend: 0x0, symName: __ZNK5Eigen8internal22scalar_conj_product_opIddEclERKdS4_, symObjAddr: 0xB8D0, symBinAddr: 0x10000DE78, symSize: 0x34 }
  - { offsetInCU: 0x71895, offset: 0x71895, size: 0x8, addend: 0x0, symName: __ZNK5Eigen8internal17mapbase_evaluatorINS_5BlockIKNS2_IKNS_6MatrixIdLin1ELin1ELi0ELin1ELin1EEELin1ELi1ELb1EEELin1ELi1ELb1EEENS3_IdLin1ELi1ELi0ELin1ELi1EEEE5coeffEll, symObjAddr: 0xB904, symBinAddr: 0x10000DEAC, symSize: 0x78 }
  - { offsetInCU: 0x718E3, offset: 0x718E3, size: 0x8, addend: 0x0, symName: __ZNK5Eigen8internal11conj_helperIddLb0ELb0EE4pmulERKdS4_, symObjAddr: 0xB97C, symBinAddr: 0x10000DF24, symSize: 0x4C }
  - { offsetInCU: 0x7192F, offset: 0x7192F, size: 0x8, addend: 0x0, symName: __ZNK5Eigen8internal7conj_ifILb0EE5pconjIdEERKT_S6_, symObjAddr: 0xB9F0, symBinAddr: 0x10000DF98, symSize: 0x18 }
  - { offsetInCU: 0x7196C, offset: 0x7196C, size: 0x8, addend: 0x0, symName: __ZNK5Eigen8internal17mapbase_evaluatorINS_5BlockIKNS2_IKNS_6MatrixIdLin1ELin1ELi0ELin1ELin1EEELin1ELi1ELb1EEELin1ELi1ELb1EEENS3_IdLin1ELi1ELi0ELin1ELi1EEEE9colStrideEv, symObjAddr: 0xBA08, symBinAddr: 0x10000DFB0, symSize: 0x28 }
  - { offsetInCU: 0x71992, offset: 0x71992, size: 0x8, addend: 0x0, symName: __ZNK5Eigen8internal17mapbase_evaluatorINS_5BlockIKNS2_IKNS_6MatrixIdLin1ELin1ELi0ELin1ELin1EEELin1ELi1ELb1EEELin1ELi1ELb1EEENS3_IdLin1ELi1ELi0ELin1ELi1EEEE9rowStrideEv, symObjAddr: 0xBA30, symBinAddr: 0x10000DFD8, symSize: 0x20 }
  - { offsetInCU: 0x719B8, offset: 0x719B8, size: 0x8, addend: 0x0, symName: __ZN5Eigen8internal15redux_evaluatorINS_13CwiseBinaryOpINS0_22scalar_conj_product_opIddEEKNS_9TransposeIKNS_5BlockIKNS_6MatrixIdLin1ELin1ELi0ELin1ELin1EEELi1ELin1ELb0EEEEEKNS6_IKNS6_IS9_Lin1ELi1ELb1EEELin1ELi1ELb1EEEEEED2Ev, symObjAddr: 0xBA50, symBinAddr: 0x10000DFF8, symSize: 0x2C }
  - { offsetInCU: 0x719E5, offset: 0x719E5, size: 0x8, addend: 0x0, symName: __ZN5Eigen8internal9evaluatorINS_13CwiseBinaryOpINS0_22scalar_conj_product_opIddEEKNS_9TransposeIKNS_5BlockIKNS_6MatrixIdLin1ELin1ELi0ELin1ELin1EEELi1ELin1ELb0EEEEEKNS6_IKNS6_IS9_Lin1ELi1ELb1EEELin1ELi1ELb1EEEEEED2Ev, symObjAddr: 0xBA7C, symBinAddr: 0x10000E024, symSize: 0x2C }
  - { offsetInCU: 0x71A12, offset: 0x71A12, size: 0x8, addend: 0x0, symName: __ZN5Eigen8internal16binary_evaluatorINS_13CwiseBinaryOpINS0_22scalar_conj_product_opIddEEKNS_9TransposeIKNS_5BlockIKNS_6MatrixIdLin1ELin1ELi0ELin1ELin1EEELi1ELin1ELb0EEEEEKNS6_IKNS6_IS9_Lin1ELi1ELb1EEELin1ELi1ELb1EEEEENS0_10IndexBasedESJ_ddED2Ev, symObjAddr: 0xBAA8, symBinAddr: 0x10000E050, symSize: 0x34 }
  - { offsetInCU: 0x71A3E, offset: 0x71A3E, size: 0x8, addend: 0x0, symName: __ZN5Eigen8internal16binary_evaluatorINS_13CwiseBinaryOpINS0_22scalar_conj_product_opIddEEKNS_9TransposeIKNS_5BlockIKNS_6MatrixIdLin1ELin1ELi0ELin1ELin1EEELi1ELin1ELb0EEEEEKNS6_IKNS6_IS9_Lin1ELi1ELb1EEELin1ELi1ELb1EEEEENS0_10IndexBasedESJ_ddE4DataD1Ev, symObjAddr: 0xBADC, symBinAddr: 0x10000E084, symSize: 0x2C }
  - { offsetInCU: 0x71A6B, offset: 0x71A6B, size: 0x8, addend: 0x0, symName: __ZN5Eigen8internal16binary_evaluatorINS_13CwiseBinaryOpINS0_22scalar_conj_product_opIddEEKNS_9TransposeIKNS_5BlockIKNS_6MatrixIdLin1ELin1ELi0ELin1ELin1EEELi1ELin1ELb0EEEEEKNS6_IKNS6_IS9_Lin1ELi1ELb1EEELin1ELi1ELb1EEEEENS0_10IndexBasedESJ_ddE4DataD2Ev, symObjAddr: 0xBB08, symBinAddr: 0x10000E0B0, symSize: 0x3C }
  - { offsetInCU: 0x71A98, offset: 0x71A98, size: 0x8, addend: 0x0, symName: __ZN5Eigen8internal9evaluatorIKNS_5BlockIKNS2_IKNS_6MatrixIdLin1ELin1ELi0ELin1ELin1EEELin1ELi1ELb1EEELin1ELi1ELb1EEEED1Ev, symObjAddr: 0xBB44, symBinAddr: 0x10000E0EC, symSize: 0x2C }
  - { offsetInCU: 0x71AC4, offset: 0x71AC4, size: 0x8, addend: 0x0, symName: __ZN5Eigen8internal9evaluatorIKNS_5BlockIKNS2_IKNS_6MatrixIdLin1ELin1ELi0ELin1ELin1EEELin1ELi1ELb1EEELin1ELi1ELb1EEEED2Ev, symObjAddr: 0xBB70, symBinAddr: 0x10000E118, symSize: 0x2C }
  - { offsetInCU: 0x71AF0, offset: 0x71AF0, size: 0x8, addend: 0x0, symName: __ZN5Eigen8internal9evaluatorINS_5BlockIKNS2_IKNS_6MatrixIdLin1ELin1ELi0ELin1ELin1EEELin1ELi1ELb1EEELin1ELi1ELb1EEEED2Ev, symObjAddr: 0xBB9C, symBinAddr: 0x10000E144, symSize: 0x2C }
  - { offsetInCU: 0x71B1D, offset: 0x71B1D, size: 0x8, addend: 0x0, symName: __ZN5Eigen8internal15block_evaluatorIKNS_5BlockIKNS_6MatrixIdLin1ELin1ELi0ELin1ELin1EEELin1ELi1ELb1EEELin1ELi1ELb1ELb1EED2Ev, symObjAddr: 0xBBC8, symBinAddr: 0x10000E170, symSize: 0x2C }
  - { offsetInCU: 0x71B4A, offset: 0x71B4A, size: 0x8, addend: 0x0, symName: __ZN5Eigen5BlockIKNS0_IKNS_6MatrixIdLin1ELin1ELi0ELin1ELin1EEELin1ELi1ELb1EEELin1ELi1ELb1EEC1ERS5_l, symObjAddr: 0xBBF4, symBinAddr: 0x10000E19C, symSize: 0x3C }
  - { offsetInCU: 0x71B90, offset: 0x71B90, size: 0x8, addend: 0x0, symName: __ZN5Eigen5BlockIKNS0_IKNS_6MatrixIdLin1ELin1ELi0ELin1ELin1EEELin1ELi1ELb1EEELin1ELi1ELb1EEC2ERS5_l, symObjAddr: 0xBC30, symBinAddr: 0x10000E1D8, symSize: 0xAC }
  - { offsetInCU: 0x71BD6, offset: 0x71BD6, size: 0x8, addend: 0x0, symName: __ZN5Eigen9BlockImplIKNS_5BlockIKNS_6MatrixIdLin1ELin1ELi0ELin1ELin1EEELin1ELi1ELb1EEELin1ELi1ELb1ENS_5DenseEEC2ERS6_l, symObjAddr: 0xBCDC, symBinAddr: 0x10000E284, symSize: 0x3C }
  - { offsetInCU: 0x71C1C, offset: 0x71C1C, size: 0x8, addend: 0x0, symName: __ZN5Eigen8internal15BlockImpl_denseIKNS_5BlockIKNS_6MatrixIdLin1ELin1ELi0ELin1ELin1EEELin1ELi1ELb1EEELin1ELi1ELb1ELb1EEC2ERS7_l, symObjAddr: 0xBD18, symBinAddr: 0x10000E2C0, symSize: 0xB8 }
  - { offsetInCU: 0x71C64, offset: 0x71C64, size: 0x8, addend: 0x0, symName: __ZN5Eigen7MapBaseINS_5BlockIKNS1_IKNS_6MatrixIdLin1ELin1ELi0ELin1ELin1EEELin1ELi1ELb1EEELin1ELi1ELb1EEELi0EEC2EPKdll, symObjAddr: 0xBDD0, symBinAddr: 0x10000E378, symSize: 0x11C }
  - { offsetInCU: 0x71CB8, offset: 0x71CB8, size: 0x8, addend: 0x0, symName: __ZN5Eigen8internal19variable_if_dynamicIlLi0EEC1El, symObjAddr: 0xBEEC, symBinAddr: 0x10000E494, symSize: 0x34 }
  - { offsetInCU: 0x71CF0, offset: 0x71CF0, size: 0x8, addend: 0x0, symName: __ZN5Eigen8internal15BlockImpl_denseIKNS_5BlockIKNS_6MatrixIdLin1ELin1ELi0ELin1ELin1EEELin1ELi1ELb1EEELin1ELi1ELb1ELb1EE4initEv, symObjAddr: 0xBF20, symBinAddr: 0x10000E4C8, symSize: 0x34 }
  - { offsetInCU: 0x71D16, offset: 0x71D16, size: 0x8, addend: 0x0, symName: __ZN5Eigen10MatrixBaseINS_5BlockIKNS1_IKNS_6MatrixIdLin1ELin1ELi0ELin1ELin1EEELin1ELi1ELb1EEELin1ELi1ELb1EEEEC2Ev, symObjAddr: 0xBF54, symBinAddr: 0x10000E4FC, symSize: 0x2C }
  - { offsetInCU: 0x71D40, offset: 0x71D40, size: 0x8, addend: 0x0, symName: __ZNK5Eigen7MapBaseINS_5BlockIKNS1_IKNS_6MatrixIdLin1ELin1ELi0ELin1ELin1EEELin1ELi1ELb1EEELin1ELi1ELb1EEELi0EE11checkSanityIS7_EEvNS_8internal9enable_ifIXeqsr8internal6traitsIT_EE9AlignmentLi0EEPvE4typeE, symObjAddr: 0xBF80, symBinAddr: 0x10000E528, symSize: 0x14 }
  - { offsetInCU: 0x71D7A, offset: 0x71D7A, size: 0x8, addend: 0x0, symName: __ZN5Eigen9DenseBaseINS_5BlockIKNS1_IKNS_6MatrixIdLin1ELin1ELi0ELin1ELin1EEELin1ELi1ELb1EEELin1ELi1ELb1EEEEC2Ev, symObjAddr: 0xBF94, symBinAddr: 0x10000E53C, symSize: 0x14 }
  - { offsetInCU: 0x71DA4, offset: 0x71DA4, size: 0x8, addend: 0x0, symName: __ZN5Eigen8internal19variable_if_dynamicIlLi0EEC2El, symObjAddr: 0xBFA8, symBinAddr: 0x10000E550, symSize: 0x64 }
  - { offsetInCU: 0x71DDC, offset: 0x71DDC, size: 0x8, addend: 0x0, symName: __ZNK5Eigen15DenseCoeffsBaseINS_5BlockINS_6MatrixIdLin1ELin1ELi0ELin1ELin1EEELin1ELi1ELb1EEELi3EE9colStrideEv, symObjAddr: 0xC00C, symBinAddr: 0x10000E5B4, symSize: 0x24 }
  - { offsetInCU: 0x71E02, offset: 0x71E02, size: 0x8, addend: 0x0, symName: __ZNK5Eigen15DenseCoeffsBaseINS_5BlockINS_6MatrixIdLin1ELin1ELi0ELin1ELin1EEELin1ELi1ELb1EEELi3EE9rowStrideEv, symObjAddr: 0xC030, symBinAddr: 0x10000E5D8, symSize: 0x24 }
  - { offsetInCU: 0x71E28, offset: 0x71E28, size: 0x8, addend: 0x0, symName: __ZNK5Eigen15DenseCoeffsBaseINS_5BlockINS_6MatrixIdLin1ELin1ELi0ELin1ELin1EEELin1ELi1ELb1EEELi3EE11outerStrideEv, symObjAddr: 0xC054, symBinAddr: 0x10000E5FC, symSize: 0x38 }
  - { offsetInCU: 0x71E4E, offset: 0x71E4E, size: 0x8, addend: 0x0, symName: __ZNK5Eigen9EigenBaseINS_5BlockINS_6MatrixIdLin1ELin1ELi0ELin1ELin1EEELin1ELi1ELb1EEEE7derivedEv, symObjAddr: 0xC08C, symBinAddr: 0x10000E634, symSize: 0x14 }
  - { offsetInCU: 0x71E74, offset: 0x71E74, size: 0x8, addend: 0x0, symName: __ZNK5Eigen8internal15BlockImpl_denseINS_6MatrixIdLin1ELin1ELi0ELin1ELin1EEELin1ELi1ELb1ELb1EE11outerStrideEv, symObjAddr: 0xC0A0, symBinAddr: 0x10000E648, symSize: 0x28 }
  - { offsetInCU: 0x71E9A, offset: 0x71E9A, size: 0x8, addend: 0x0, symName: __ZNK5Eigen15DenseCoeffsBaseINS_5BlockINS_6MatrixIdLin1ELin1ELi0ELin1ELin1EEELin1ELi1ELb1EEELi3EE11innerStrideEv, symObjAddr: 0xC0C8, symBinAddr: 0x10000E670, symSize: 0x28 }
  - { offsetInCU: 0x71EC0, offset: 0x71EC0, size: 0x8, addend: 0x0, symName: __ZNK5Eigen8internal15BlockImpl_denseINS_6MatrixIdLin1ELin1ELi0ELin1ELin1EEELin1ELi1ELb1ELb1EE11innerStrideEv, symObjAddr: 0xC0F0, symBinAddr: 0x10000E698, symSize: 0x28 }
  - { offsetInCU: 0x71EE6, offset: 0x71EE6, size: 0x8, addend: 0x0, symName: __ZN5Eigen8internal11blas_traitsINS_5BlockIKNS_6MatrixIdLin1ELin1ELi0ELin1ELin1EEELin1ELi1ELb1EEEE7extractERKS6_, symObjAddr: 0xC118, symBinAddr: 0x10000E6C0, symSize: 0x14 }
  - { offsetInCU: 0x71F0A, offset: 0x71F0A, size: 0x8, addend: 0x0, symName: __ZN5Eigen8internal10get_factorIddE3runERKd, symObjAddr: 0xC12C, symBinAddr: 0x10000E6D4, symSize: 0x24 }
  - { offsetInCU: 0x71FD4, offset: 0x71FD4, size: 0x8, addend: 0x0, symName: __ZN5Eigen7MapBaseINS_5BlockINS_6MatrixIdLin1ELin1ELi0ELin1ELin1EEELin1ELi1ELb1EEELi1EE4dataEv, symObjAddr: 0xD724, symBinAddr: 0x10000FCCC, symSize: 0x18 }
  - { offsetInCU: 0x71FFA, offset: 0x71FFA, size: 0x8, addend: 0x0, symName: __ZN5Eigen8internal11blas_traitsINS_5BlockIKNS_6MatrixIdLin1ELin1ELi0ELin1ELin1EEELin1ELi1ELb1EEEE19extractScalarFactorERKS6_, symObjAddr: 0xD73C, symBinAddr: 0x10000FCE4, symSize: 0x14 }
  - { offsetInCU: 0x7201A, offset: 0x7201A, size: 0x8, addend: 0x0, symName: __ZN5Eigen8internal17real_default_implIdLb0EE3runERKd, symObjAddr: 0xD774, symBinAddr: 0x10000FD1C, symSize: 0x18 }
  - { offsetInCU: 0x7203D, offset: 0x7203D, size: 0x8, addend: 0x0, symName: __ZNK5Eigen8internal16blas_data_mapperIKdlLi0ELi0ELi1EE6strideEv, symObjAddr: 0xD79C, symBinAddr: 0x10000FD44, symSize: 0x18 }
  - { offsetInCU: 0x7206D, offset: 0x7206D, size: 0x8, addend: 0x0, symName: __ZNK5Eigen8internal11conj_helperI19__simd128_float64_tS2_Lb0ELb0EE5pmaddERKS2_S5_S5_, symObjAddr: 0xD7B4, symBinAddr: 0x10000FD5C, symSize: 0x54 }
  - { offsetInCU: 0x720BD, offset: 0x720BD, size: 0x8, addend: 0x0, symName: __ZNK5Eigen8internal7conj_ifILb0EE5pconjI19__simd128_float64_tEERKT_S7_, symObjAddr: 0xD834, symBinAddr: 0x10000FDDC, symSize: 0x18 }
  - { offsetInCU: 0x720FA, offset: 0x720FA, size: 0x8, addend: 0x0, symName: __ZN5Eigen5BlockINS_6MatrixIdLin1ELin1ELi0ELin1ELin1EEELi1ELin1ELb0EEC1ERS2_l, symObjAddr: 0xD84C, symBinAddr: 0x10000FDF4, symSize: 0x3C }
  - { offsetInCU: 0x72140, offset: 0x72140, size: 0x8, addend: 0x0, symName: __ZN5Eigen5BlockINS_6MatrixIdLin1ELin1ELi0ELin1ELin1EEELi1ELin1ELb0EEC2ERS2_l, symObjAddr: 0xD888, symBinAddr: 0x10000FE30, symSize: 0xCC }
  - { offsetInCU: 0x72186, offset: 0x72186, size: 0x8, addend: 0x0, symName: __ZN5Eigen9BlockImplINS_6MatrixIdLin1ELin1ELi0ELin1ELin1EEELi1ELin1ELb0ENS_5DenseEEC2ERS2_l, symObjAddr: 0xD954, symBinAddr: 0x10000FEFC, symSize: 0x3C }
  - { offsetInCU: 0x721CC, offset: 0x721CC, size: 0x8, addend: 0x0, symName: __ZN5Eigen8internal15BlockImpl_denseINS_6MatrixIdLin1ELin1ELi0ELin1ELin1EEELi1ELin1ELb0ELb1EEC2ERS3_l, symObjAddr: 0xD990, symBinAddr: 0x10000FF38, symSize: 0xAC }
  - { offsetInCU: 0x72214, offset: 0x72214, size: 0x8, addend: 0x0, symName: __ZN5Eigen7MapBaseINS_5BlockINS_6MatrixIdLin1ELin1ELi0ELin1ELin1EEELi1ELin1ELb0EEELi1EEC2EPdll, symObjAddr: 0xDA3C, symBinAddr: 0x10000FFE4, symSize: 0x44 }
  - { offsetInCU: 0x7226B, offset: 0x7226B, size: 0x8, addend: 0x0, symName: __ZN5Eigen8internal15BlockImpl_denseINS_6MatrixIdLin1ELin1ELi0ELin1ELin1EEELi1ELin1ELb0ELb1EE4initEv, symObjAddr: 0xDA80, symBinAddr: 0x100010028, symSize: 0x34 }
  - { offsetInCU: 0x72291, offset: 0x72291, size: 0x8, addend: 0x0, symName: __ZN5Eigen7MapBaseINS_5BlockINS_6MatrixIdLin1ELin1ELi0ELin1ELin1EEELi1ELin1ELb0EEELi0EEC2EPdll, symObjAddr: 0xDAB4, symBinAddr: 0x10001005C, symSize: 0x130 }
  - { offsetInCU: 0x722E5, offset: 0x722E5, size: 0x8, addend: 0x0, symName: __ZN5Eigen10MatrixBaseINS_5BlockINS_6MatrixIdLin1ELin1ELi0ELin1ELin1EEELi1ELin1ELb0EEEEC2Ev, symObjAddr: 0xDBE4, symBinAddr: 0x10001018C, symSize: 0x2C }
  - { offsetInCU: 0x7230F, offset: 0x7230F, size: 0x8, addend: 0x0, symName: __ZNK5Eigen7MapBaseINS_5BlockINS_6MatrixIdLin1ELin1ELi0ELin1ELin1EEELi1ELin1ELb0EEELi0EE11checkSanityIS4_EEvNS_8internal9enable_ifIXeqsr8internal6traitsIT_EE9AlignmentLi0EEPvE4typeE, symObjAddr: 0xDC10, symBinAddr: 0x1000101B8, symSize: 0x14 }
  - { offsetInCU: 0x72349, offset: 0x72349, size: 0x8, addend: 0x0, symName: __ZN5Eigen9DenseBaseINS_5BlockINS_6MatrixIdLin1ELin1ELi0ELin1ELin1EEELi1ELin1ELb0EEEEC2Ev, symObjAddr: 0xDC24, symBinAddr: 0x1000101CC, symSize: 0x14 }
  - { offsetInCU: 0x72373, offset: 0x72373, size: 0x8, addend: 0x0, symName: __ZNK5Eigen9DenseBaseINS_5BlockIKNS_6MatrixIdLin1ELin1ELi0ELin1ELin1EEELi1ELin1ELb0EEEE3rowEl, symObjAddr: 0xDC38, symBinAddr: 0x1000101E0, symSize: 0x3C }
  - { offsetInCU: 0x723A8, offset: 0x723A8, size: 0x8, addend: 0x0, symName: __ZNK5Eigen9DenseBaseINS_5BlockIKNS1_IKNS_6MatrixIdLin1ELin1ELi0ELin1ELin1EEELi1ELin1ELb0EEELi1ELin1ELb1EEEE9conjugateEv, symObjAddr: 0xDC74, symBinAddr: 0x10001021C, symSize: 0x24 }
  - { offsetInCU: 0x723CE, offset: 0x723CE, size: 0x8, addend: 0x0, symName: __ZNK5Eigen10MatrixBaseINS_5BlockIKNS1_IKNS_6MatrixIdLin1ELin1ELi0ELin1ELin1EEELi1ELin1ELb0EEELi1ELin1ELb1EEEE3dotINS1_IS4_Lin1ELi1ELb1EEEEENS_20ScalarBinaryOpTraitsIdNS_8internal6traitsIT_E6ScalarENSC_17scalar_product_opIdSG_EEE10ReturnTypeERKNS0_ISE_EE, symObjAddr: 0xDC98, symBinAddr: 0x100010240, symSize: 0x80 }
  - { offsetInCU: 0x7240D, offset: 0x7240D, size: 0x8, addend: 0x0, symName: __ZN5Eigen7MapBaseINS_5BlockINS_6MatrixIdLin1ELin1ELi0ELin1ELin1EEELi1ELin1ELb0EEELi1EE8coeffRefEll, symObjAddr: 0xDD18, symBinAddr: 0x1000102C0, symSize: 0x78 }
  - { offsetInCU: 0x7245B, offset: 0x7245B, size: 0x8, addend: 0x0, symName: __ZN5Eigen8internal19gemv_dense_selectorILi1ELi0ELb1EE3runINS_5BlockIKNS_6MatrixIdLin1ELin1ELi0ELin1ELin1EEELi1ELin1ELb0EEES6_NS4_IS6_Li1ELin1ELb0EEEEEvRKT_RKT0_RT1_RKNSG_6ScalarE, symObjAddr: 0xDD90, symBinAddr: 0x100010338, symSize: 0x70 }
  - { offsetInCU: 0x724D2, offset: 0x724D2, size: 0x8, addend: 0x0, symName: __ZN5Eigen5BlockIKNS0_IKNS_6MatrixIdLin1ELin1ELi0ELin1ELin1EEELi1ELin1ELb0EEELi1ELin1ELb1EEC1ERS5_l, symObjAddr: 0xDE00, symBinAddr: 0x1000103A8, symSize: 0x3C }
  - { offsetInCU: 0x72518, offset: 0x72518, size: 0x8, addend: 0x0, symName: __ZN5Eigen5BlockIKNS0_IKNS_6MatrixIdLin1ELin1ELi0ELin1ELin1EEELi1ELin1ELb0EEELi1ELin1ELb1EEC2ERS5_l, symObjAddr: 0xDE3C, symBinAddr: 0x1000103E4, symSize: 0xCC }
  - { offsetInCU: 0x7255E, offset: 0x7255E, size: 0x8, addend: 0x0, symName: __ZN5Eigen9BlockImplIKNS_5BlockIKNS_6MatrixIdLin1ELin1ELi0ELin1ELin1EEELi1ELin1ELb0EEELi1ELin1ELb1ENS_5DenseEEC2ERS6_l, symObjAddr: 0xDF08, symBinAddr: 0x1000104B0, symSize: 0x3C }
  - { offsetInCU: 0x725A4, offset: 0x725A4, size: 0x8, addend: 0x0, symName: __ZN5Eigen8internal15BlockImpl_denseIKNS_5BlockIKNS_6MatrixIdLin1ELin1ELi0ELin1ELin1EEELi1ELin1ELb0EEELi1ELin1ELb1ELb1EEC2ERS7_l, symObjAddr: 0xDF44, symBinAddr: 0x1000104EC, symSize: 0xB8 }
  - { offsetInCU: 0x725EC, offset: 0x725EC, size: 0x8, addend: 0x0, symName: __ZN5Eigen7MapBaseINS_5BlockIKNS1_IKNS_6MatrixIdLin1ELin1ELi0ELin1ELin1EEELi1ELin1ELb0EEELi1ELin1ELb1EEELi0EEC2EPKdll, symObjAddr: 0xDFFC, symBinAddr: 0x1000105A4, symSize: 0x130 }
  - { offsetInCU: 0x72640, offset: 0x72640, size: 0x8, addend: 0x0, symName: __ZN5Eigen8internal15BlockImpl_denseIKNS_5BlockIKNS_6MatrixIdLin1ELin1ELi0ELin1ELin1EEELi1ELin1ELb0EEELi1ELin1ELb1ELb1EE4initEv, symObjAddr: 0xE12C, symBinAddr: 0x1000106D4, symSize: 0x34 }
  - { offsetInCU: 0x72666, offset: 0x72666, size: 0x8, addend: 0x0, symName: __ZN5Eigen10MatrixBaseINS_5BlockIKNS1_IKNS_6MatrixIdLin1ELin1ELi0ELin1ELin1EEELi1ELin1ELb0EEELi1ELin1ELb1EEEEC2Ev, symObjAddr: 0xE160, symBinAddr: 0x100010708, symSize: 0x2C }
  - { offsetInCU: 0x72690, offset: 0x72690, size: 0x8, addend: 0x0, symName: __ZNK5Eigen7MapBaseINS_5BlockIKNS1_IKNS_6MatrixIdLin1ELin1ELi0ELin1ELin1EEELi1ELin1ELb0EEELi1ELin1ELb1EEELi0EE11checkSanityIS7_EEvNS_8internal9enable_ifIXeqsr8internal6traitsIT_EE9AlignmentLi0EEPvE4typeE, symObjAddr: 0xE18C, symBinAddr: 0x100010734, symSize: 0x14 }
  - { offsetInCU: 0x726CA, offset: 0x726CA, size: 0x8, addend: 0x0, symName: __ZN5Eigen9DenseBaseINS_5BlockIKNS1_IKNS_6MatrixIdLin1ELin1ELi0ELin1ELin1EEELi1ELin1ELb0EEELi1ELin1ELb1EEEEC2Ev, symObjAddr: 0xE1A0, symBinAddr: 0x100010748, symSize: 0x14 }
  - { offsetInCU: 0x726F4, offset: 0x726F4, size: 0x8, addend: 0x0, symName: __ZNK5Eigen9EigenBaseINS_5BlockIKNS1_IKNS_6MatrixIdLin1ELin1ELi0ELin1ELin1EEELi1ELin1ELb0EEELi1ELin1ELb1EEEE7derivedEv, symObjAddr: 0xE1B4, symBinAddr: 0x10001075C, symSize: 0x14 }
  - { offsetInCU: 0x7271A, offset: 0x7271A, size: 0x8, addend: 0x0, symName: __ZNK5Eigen9EigenBaseINS_5BlockIKNS1_IKNS_6MatrixIdLin1ELin1ELi0ELin1ELin1EEELi1ELin1ELb0EEELi1ELin1ELb1EEEE4sizeEv, symObjAddr: 0xE1C8, symBinAddr: 0x100010770, symSize: 0x44 }
  - { offsetInCU: 0x72740, offset: 0x72740, size: 0x8, addend: 0x0, symName: __ZNK5Eigen9EigenBaseINS_5BlockIKNS_6MatrixIdLin1ELin1ELi0ELin1ELin1EEELin1ELi1ELb1EEEE4sizeEv, symObjAddr: 0xE20C, symBinAddr: 0x1000107B4, symSize: 0x44 }
  - { offsetInCU: 0x72766, offset: 0x72766, size: 0x8, addend: 0x0, symName: __ZN5Eigen8internal11dot_nocheckINS_5BlockIKNS2_IKNS_6MatrixIdLin1ELin1ELi0ELin1ELin1EEELi1ELin1ELb0EEELi1ELin1ELb1EEENS2_IS5_Lin1ELi1ELb1EEELb1EE3runERKNS_10MatrixBaseIS8_EERKNSB_IS9_EE, symObjAddr: 0xE250, symBinAddr: 0x1000107F8, symSize: 0x78 }
  - { offsetInCU: 0x72797, offset: 0x72797, size: 0x8, addend: 0x0, symName: __ZNK5Eigen9EigenBaseINS_5BlockIKNS1_IKNS_6MatrixIdLin1ELin1ELi0ELin1ELin1EEELi1ELin1ELb0EEELi1ELin1ELb1EEEE4rowsEv, symObjAddr: 0xE2C8, symBinAddr: 0x100010870, symSize: 0x28 }
  - { offsetInCU: 0x727BD, offset: 0x727BD, size: 0x8, addend: 0x0, symName: __ZNK5Eigen9EigenBaseINS_5BlockIKNS1_IKNS_6MatrixIdLin1ELin1ELi0ELin1ELin1EEELi1ELin1ELb0EEELi1ELin1ELb1EEEE4colsEv, symObjAddr: 0xE2F0, symBinAddr: 0x100010898, symSize: 0x28 }
  - { offsetInCU: 0x727E3, offset: 0x727E3, size: 0x8, addend: 0x0, symName: __ZNK5Eigen7MapBaseINS_5BlockIKNS1_IKNS_6MatrixIdLin1ELin1ELi0ELin1ELin1EEELi1ELin1ELb0EEELi1ELin1ELb1EEELi0EE4rowsEv, symObjAddr: 0xE318, symBinAddr: 0x1000108C0, symSize: 0x20 }
  - { offsetInCU: 0x72809, offset: 0x72809, size: 0x8, addend: 0x0, symName: __ZNK5Eigen7MapBaseINS_5BlockIKNS1_IKNS_6MatrixIdLin1ELin1ELi0ELin1ELin1EEELi1ELin1ELb0EEELi1ELin1ELb1EEELi0EE4colsEv, symObjAddr: 0xE338, symBinAddr: 0x1000108E0, symSize: 0x28 }
  - { offsetInCU: 0x7282F, offset: 0x7282F, size: 0x8, addend: 0x0, symName: __ZNK5Eigen9EigenBaseINS_5BlockIKNS_6MatrixIdLin1ELin1ELi0ELin1ELin1EEELin1ELi1ELb1EEEE4rowsEv, symObjAddr: 0xE360, symBinAddr: 0x100010908, symSize: 0x28 }
  - { offsetInCU: 0x72855, offset: 0x72855, size: 0x8, addend: 0x0, symName: __ZNK5Eigen9EigenBaseINS_5BlockIKNS_6MatrixIdLin1ELin1ELi0ELin1ELin1EEELin1ELi1ELb1EEEE4colsEv, symObjAddr: 0xE388, symBinAddr: 0x100010930, symSize: 0x28 }
  - { offsetInCU: 0x7287B, offset: 0x7287B, size: 0x8, addend: 0x0, symName: __ZNK5Eigen9DenseBaseINS_5BlockIKNS1_IKNS_6MatrixIdLin1ELin1ELi0ELin1ELin1EEELi1ELin1ELb0EEELi1ELin1ELb1EEEE9transposeEv, symObjAddr: 0xE3B0, symBinAddr: 0x100010958, symSize: 0x34 }
  - { offsetInCU: 0x728A3, offset: 0x728A3, size: 0x8, addend: 0x0, symName: __ZNK5Eigen10MatrixBaseINS_9TransposeIKNS_5BlockIKNS2_IKNS_6MatrixIdLin1ELin1ELi0ELin1ELin1EEELi1ELin1ELb0EEELi1ELin1ELb1EEEEEE10binaryExprINS_8internal22scalar_conj_product_opIddEENS2_IS5_Lin1ELi1ELb1EEEEEKNS_13CwiseBinaryOpIT_KSA_KT0_EERKNS0_ISK_EERKSI_, symObjAddr: 0xE3E4, symBinAddr: 0x10001098C, symSize: 0x54 }
  - { offsetInCU: 0x728F7, offset: 0x728F7, size: 0x8, addend: 0x0, symName: __ZNK5Eigen9DenseBaseINS_13CwiseBinaryOpINS_8internal22scalar_conj_product_opIddEEKNS_9TransposeIKNS_5BlockIKNS6_IKNS_6MatrixIdLin1ELin1ELi0ELin1ELin1EEELi1ELin1ELb0EEELi1ELin1ELb1EEEEEKNS6_IS9_Lin1ELi1ELb1EEEEEE3sumEv, symObjAddr: 0xE438, symBinAddr: 0x1000109E0, symSize: 0x74 }
  - { offsetInCU: 0x72920, offset: 0x72920, size: 0x8, addend: 0x0, symName: __ZN5Eigen9TransposeIKNS_5BlockIKNS1_IKNS_6MatrixIdLin1ELin1ELi0ELin1ELin1EEELi1ELin1ELb0EEELi1ELin1ELb1EEEEC1ERS8_, symObjAddr: 0xE4AC, symBinAddr: 0x100010A54, symSize: 0x34 }
  - { offsetInCU: 0x72958, offset: 0x72958, size: 0x8, addend: 0x0, symName: __ZN5Eigen9TransposeIKNS_5BlockIKNS1_IKNS_6MatrixIdLin1ELin1ELi0ELin1ELin1EEELi1ELin1ELb0EEELi1ELin1ELb1EEEEC2ERS8_, symObjAddr: 0xE4E0, symBinAddr: 0x100010A88, symSize: 0x40 }
  - { offsetInCU: 0x72990, offset: 0x72990, size: 0x8, addend: 0x0, symName: __ZN5Eigen13TransposeImplIKNS_5BlockIKNS1_IKNS_6MatrixIdLin1ELin1ELi0ELin1ELin1EEELi1ELin1ELb0EEELi1ELin1ELb1EEENS_5DenseEEC2Ev, symObjAddr: 0xE520, symBinAddr: 0x100010AC8, symSize: 0x2C }
  - { offsetInCU: 0x729BA, offset: 0x729BA, size: 0x8, addend: 0x0, symName: __ZN5Eigen10MatrixBaseINS_9TransposeIKNS_5BlockIKNS2_IKNS_6MatrixIdLin1ELin1ELi0ELin1ELin1EEELi1ELin1ELb0EEELi1ELin1ELb1EEEEEEC2Ev, symObjAddr: 0xE54C, symBinAddr: 0x100010AF4, symSize: 0x2C }
  - { offsetInCU: 0x729E4, offset: 0x729E4, size: 0x8, addend: 0x0, symName: __ZN5Eigen9DenseBaseINS_9TransposeIKNS_5BlockIKNS2_IKNS_6MatrixIdLin1ELin1ELi0ELin1ELin1EEELi1ELin1ELb0EEELi1ELin1ELb1EEEEEEC2Ev, symObjAddr: 0xE578, symBinAddr: 0x100010B20, symSize: 0x14 }
  - { offsetInCU: 0x72A0E, offset: 0x72A0E, size: 0x8, addend: 0x0, symName: __ZNK5Eigen9EigenBaseINS_9TransposeIKNS_5BlockIKNS2_IKNS_6MatrixIdLin1ELin1ELi0ELin1ELin1EEELi1ELin1ELb0EEELi1ELin1ELb1EEEEEE7derivedEv, symObjAddr: 0xE58C, symBinAddr: 0x100010B34, symSize: 0x14 }
  - { offsetInCU: 0x72A34, offset: 0x72A34, size: 0x8, addend: 0x0, symName: __ZN5Eigen13CwiseBinaryOpINS_8internal22scalar_conj_product_opIddEEKNS_9TransposeIKNS_5BlockIKNS5_IKNS_6MatrixIdLin1ELin1ELi0ELin1ELin1EEELi1ELin1ELb0EEELi1ELin1ELb1EEEEEKNS5_IS8_Lin1ELi1ELb1EEEEC1ERSE_RSG_RKS3_, symObjAddr: 0xE5A0, symBinAddr: 0x100010B48, symSize: 0x44 }
  - { offsetInCU: 0x72A88, offset: 0x72A88, size: 0x8, addend: 0x0, symName: __ZN5Eigen13CwiseBinaryOpINS_8internal22scalar_conj_product_opIddEEKNS_9TransposeIKNS_5BlockIKNS5_IKNS_6MatrixIdLin1ELin1ELi0ELin1ELin1EEELi1ELin1ELb0EEELi1ELin1ELb1EEEEEKNS5_IS8_Lin1ELi1ELb1EEEEC2ERSE_RSG_RKS3_, symObjAddr: 0xE5E4, symBinAddr: 0x100010B8C, symSize: 0x100 }
  - { offsetInCU: 0x72AE1, offset: 0x72AE1, size: 0x8, addend: 0x0, symName: __ZN5Eigen17CwiseBinaryOpImplINS_8internal22scalar_conj_product_opIddEEKNS_9TransposeIKNS_5BlockIKNS5_IKNS_6MatrixIdLin1ELin1ELi0ELin1ELin1EEELi1ELin1ELb0EEELi1ELin1ELb1EEEEEKNS5_IS8_Lin1ELi1ELb1EEENS_5DenseEEC2Ev, symObjAddr: 0xE6E4, symBinAddr: 0x100010C8C, symSize: 0x2C }
  - { offsetInCU: 0x72B0D, offset: 0x72B0D, size: 0x8, addend: 0x0, symName: __ZNK5Eigen9TransposeIKNS_5BlockIKNS1_IKNS_6MatrixIdLin1ELin1ELi0ELin1ELin1EEELi1ELin1ELb0EEELi1ELin1ELb1EEEE4rowsEv, symObjAddr: 0xE710, symBinAddr: 0x100010CB8, symSize: 0x24 }
  - { offsetInCU: 0x72B33, offset: 0x72B33, size: 0x8, addend: 0x0, symName: __ZNK5Eigen9TransposeIKNS_5BlockIKNS1_IKNS_6MatrixIdLin1ELin1ELi0ELin1ELin1EEELi1ELin1ELb0EEELi1ELin1ELb1EEEE4colsEv, symObjAddr: 0xE734, symBinAddr: 0x100010CDC, symSize: 0x24 }
  - { offsetInCU: 0x72B59, offset: 0x72B59, size: 0x8, addend: 0x0, symName: __ZN5Eigen10MatrixBaseINS_13CwiseBinaryOpINS_8internal22scalar_conj_product_opIddEEKNS_9TransposeIKNS_5BlockIKNS6_IKNS_6MatrixIdLin1ELin1ELi0ELin1ELin1EEELi1ELin1ELb0EEELi1ELin1ELb1EEEEEKNS6_IS9_Lin1ELi1ELb1EEEEEEC2Ev, symObjAddr: 0xE758, symBinAddr: 0x100010D00, symSize: 0x2C }
  - { offsetInCU: 0x72B83, offset: 0x72B83, size: 0x8, addend: 0x0, symName: __ZN5Eigen9DenseBaseINS_13CwiseBinaryOpINS_8internal22scalar_conj_product_opIddEEKNS_9TransposeIKNS_5BlockIKNS6_IKNS_6MatrixIdLin1ELin1ELi0ELin1ELin1EEELi1ELin1ELb0EEELi1ELin1ELb1EEEEEKNS6_IS9_Lin1ELi1ELb1EEEEEEC2Ev, symObjAddr: 0xE784, symBinAddr: 0x100010D2C, symSize: 0x14 }
  - { offsetInCU: 0x72BAD, offset: 0x72BAD, size: 0x8, addend: 0x0, symName: __ZNK5Eigen9EigenBaseINS_13CwiseBinaryOpINS_8internal22scalar_conj_product_opIddEEKNS_9TransposeIKNS_5BlockIKNS6_IKNS_6MatrixIdLin1ELin1ELi0ELin1ELin1EEELi1ELin1ELb0EEELi1ELin1ELb1EEEEEKNS6_IS9_Lin1ELi1ELb1EEEEEE4sizeEv, symObjAddr: 0xE798, symBinAddr: 0x100010D40, symSize: 0x44 }
  - { offsetInCU: 0x72BD3, offset: 0x72BD3, size: 0x8, addend: 0x0, symName: __ZNK5Eigen9EigenBaseINS_13CwiseBinaryOpINS_8internal22scalar_conj_product_opIddEEKNS_9TransposeIKNS_5BlockIKNS6_IKNS_6MatrixIdLin1ELin1ELi0ELin1ELin1EEELi1ELin1ELb0EEELi1ELin1ELb1EEEEEKNS6_IS9_Lin1ELi1ELb1EEEEEE7derivedEv, symObjAddr: 0xE7DC, symBinAddr: 0x100010D84, symSize: 0x14 }
  - { offsetInCU: 0x72BF9, offset: 0x72BF9, size: 0x8, addend: 0x0, symName: __ZNK5Eigen9DenseBaseINS_13CwiseBinaryOpINS_8internal22scalar_conj_product_opIddEEKNS_9TransposeIKNS_5BlockIKNS6_IKNS_6MatrixIdLin1ELin1ELi0ELin1ELin1EEELi1ELin1ELb0EEELi1ELin1ELb1EEEEEKNS6_IS9_Lin1ELi1ELb1EEEEEE5reduxINS2_13scalar_sum_opIddEEEEdRKT_, symObjAddr: 0xE7F0, symBinAddr: 0x100010D98, symSize: 0x10C }
  - { offsetInCU: 0x72C55, offset: 0x72C55, size: 0x8, addend: 0x0, symName: __ZNK5Eigen9EigenBaseINS_13CwiseBinaryOpINS_8internal22scalar_conj_product_opIddEEKNS_9TransposeIKNS_5BlockIKNS6_IKNS_6MatrixIdLin1ELin1ELi0ELin1ELin1EEELi1ELin1ELb0EEELi1ELin1ELb1EEEEEKNS6_IS9_Lin1ELi1ELb1EEEEEE4rowsEv, symObjAddr: 0xE8FC, symBinAddr: 0x100010EA4, symSize: 0x38 }
  - { offsetInCU: 0x72C7B, offset: 0x72C7B, size: 0x8, addend: 0x0, symName: __ZNK5Eigen9EigenBaseINS_13CwiseBinaryOpINS_8internal22scalar_conj_product_opIddEEKNS_9TransposeIKNS_5BlockIKNS6_IKNS_6MatrixIdLin1ELin1ELi0ELin1ELin1EEELi1ELin1ELb0EEELi1ELin1ELb1EEEEEKNS6_IS9_Lin1ELi1ELb1EEEEEE4colsEv, symObjAddr: 0xE934, symBinAddr: 0x100010EDC, symSize: 0x38 }
  - { offsetInCU: 0x72CA1, offset: 0x72CA1, size: 0x8, addend: 0x0, symName: __ZNK5Eigen13CwiseBinaryOpINS_8internal22scalar_conj_product_opIddEEKNS_9TransposeIKNS_5BlockIKNS5_IKNS_6MatrixIdLin1ELin1ELi0ELin1ELin1EEELi1ELin1ELb0EEELi1ELin1ELb1EEEEEKNS5_IS8_Lin1ELi1ELb1EEEE4rowsEv, symObjAddr: 0xE96C, symBinAddr: 0x100010F14, symSize: 0x28 }
  - { offsetInCU: 0x72CC7, offset: 0x72CC7, size: 0x8, addend: 0x0, symName: __ZNK5Eigen13CwiseBinaryOpINS_8internal22scalar_conj_product_opIddEEKNS_9TransposeIKNS_5BlockIKNS5_IKNS_6MatrixIdLin1ELin1ELi0ELin1ELin1EEELi1ELin1ELb0EEELi1ELin1ELb1EEEEEKNS5_IS8_Lin1ELi1ELb1EEEE4colsEv, symObjAddr: 0xE994, symBinAddr: 0x100010F3C, symSize: 0x24 }
  - { offsetInCU: 0x72DAB, offset: 0x72DAB, size: 0x8, addend: 0x0, symName: __ZN5Eigen8internal15redux_evaluatorINS_13CwiseBinaryOpINS0_22scalar_conj_product_opIddEEKNS_9TransposeIKNS_5BlockIKNS6_IKNS_6MatrixIdLin1ELin1ELi0ELin1ELin1EEELi1ELin1ELb0EEELi1ELin1ELb1EEEEEKNS6_IS9_Lin1ELi1ELb1EEEEEEC1ERKSI_, symObjAddr: 0xE9B8, symBinAddr: 0x100010F60, symSize: 0x34 }
  - { offsetInCU: 0x72DE9, offset: 0x72DE9, size: 0x8, addend: 0x0, symName: __ZN5Eigen8internal10redux_implINS0_13scalar_sum_opIddEENS0_15redux_evaluatorINS_13CwiseBinaryOpINS0_22scalar_conj_product_opIddEEKNS_9TransposeIKNS_5BlockIKNS9_IKNS_6MatrixIdLin1ELin1ELi0ELin1ELin1EEELi1ELin1ELb0EEELi1ELin1ELb1EEEEEKNS9_ISC_Lin1ELi1ELb1EEEEEEELi0ELi0EE3runISL_EEdRKSM_RKS3_RKT_, symObjAddr: 0xE9EC, symBinAddr: 0x100010F94, symSize: 0x1E0 }
  - { offsetInCU: 0x72E94, offset: 0x72E94, size: 0x8, addend: 0x0, symName: __ZN5Eigen8internal15redux_evaluatorINS_13CwiseBinaryOpINS0_22scalar_conj_product_opIddEEKNS_9TransposeIKNS_5BlockIKNS6_IKNS_6MatrixIdLin1ELin1ELi0ELin1ELin1EEELi1ELin1ELb0EEELi1ELin1ELb1EEEEEKNS6_IS9_Lin1ELi1ELb1EEEEEED1Ev, symObjAddr: 0xEBCC, symBinAddr: 0x100011174, symSize: 0x2C }
  - { offsetInCU: 0x72EC1, offset: 0x72EC1, size: 0x8, addend: 0x0, symName: __ZN5Eigen8internal15redux_evaluatorINS_13CwiseBinaryOpINS0_22scalar_conj_product_opIddEEKNS_9TransposeIKNS_5BlockIKNS6_IKNS_6MatrixIdLin1ELin1ELi0ELin1ELin1EEELi1ELin1ELb0EEELi1ELin1ELb1EEEEEKNS6_IS9_Lin1ELi1ELb1EEEEEEC2ERKSI_, symObjAddr: 0xEBF8, symBinAddr: 0x1000111A0, symSize: 0x34 }
  - { offsetInCU: 0x72EFA, offset: 0x72EFA, size: 0x8, addend: 0x0, symName: __ZN5Eigen8internal9evaluatorINS_13CwiseBinaryOpINS0_22scalar_conj_product_opIddEEKNS_9TransposeIKNS_5BlockIKNS6_IKNS_6MatrixIdLin1ELin1ELi0ELin1ELin1EEELi1ELin1ELb0EEELi1ELin1ELb1EEEEEKNS6_IS9_Lin1ELi1ELb1EEEEEEC2ERKSI_, symObjAddr: 0xEC2C, symBinAddr: 0x1000111D4, symSize: 0x34 }
  - { offsetInCU: 0x72F33, offset: 0x72F33, size: 0x8, addend: 0x0, symName: __ZN5Eigen8internal16binary_evaluatorINS_13CwiseBinaryOpINS0_22scalar_conj_product_opIddEEKNS_9TransposeIKNS_5BlockIKNS6_IKNS_6MatrixIdLin1ELin1ELi0ELin1ELin1EEELi1ELin1ELb0EEELi1ELin1ELb1EEEEEKNS6_IS9_Lin1ELi1ELb1EEEEENS0_10IndexBasedESJ_ddEC2ERKSI_, symObjAddr: 0xEC60, symBinAddr: 0x100011208, symSize: 0x64 }
  - { offsetInCU: 0x72F6C, offset: 0x72F6C, size: 0x8, addend: 0x0, symName: __ZN5Eigen8internal14evaluator_baseINS_13CwiseBinaryOpINS0_22scalar_conj_product_opIddEEKNS_9TransposeIKNS_5BlockIKNS6_IKNS_6MatrixIdLin1ELin1ELi0ELin1ELin1EEELi1ELin1ELb0EEELi1ELin1ELb1EEEEEKNS6_IS9_Lin1ELi1ELb1EEEEEEC2Ev, symObjAddr: 0xECC4, symBinAddr: 0x10001126C, symSize: 0x14 }
  - { offsetInCU: 0x72F96, offset: 0x72F96, size: 0x8, addend: 0x0, symName: __ZN5Eigen8internal16binary_evaluatorINS_13CwiseBinaryOpINS0_22scalar_conj_product_opIddEEKNS_9TransposeIKNS_5BlockIKNS6_IKNS_6MatrixIdLin1ELin1ELi0ELin1ELin1EEELi1ELin1ELb0EEELi1ELin1ELb1EEEEEKNS6_IS9_Lin1ELi1ELb1EEEEENS0_10IndexBasedESJ_ddE4DataC1ERKSI_, symObjAddr: 0xECD8, symBinAddr: 0x100011280, symSize: 0x34 }
  - { offsetInCU: 0x72FCF, offset: 0x72FCF, size: 0x8, addend: 0x0, symName: __ZN5Eigen8internal14evaluator_baseINS_13CwiseBinaryOpINS0_22scalar_conj_product_opIddEEKNS_9TransposeIKNS_5BlockIKNS6_IKNS_6MatrixIdLin1ELin1ELi0ELin1ELin1EEELi1ELin1ELb0EEELi1ELin1ELb1EEEEEKNS6_IS9_Lin1ELi1ELb1EEEEEED2Ev, symObjAddr: 0xED0C, symBinAddr: 0x1000112B4, symSize: 0x14 }
  - { offsetInCU: 0x72FF9, offset: 0x72FF9, size: 0x8, addend: 0x0, symName: __ZN5Eigen8internal16binary_evaluatorINS_13CwiseBinaryOpINS0_22scalar_conj_product_opIddEEKNS_9TransposeIKNS_5BlockIKNS6_IKNS_6MatrixIdLin1ELin1ELi0ELin1ELin1EEELi1ELin1ELb0EEELi1ELin1ELb1EEEEEKNS6_IS9_Lin1ELi1ELb1EEEEENS0_10IndexBasedESJ_ddE4DataC2ERKSI_, symObjAddr: 0xED20, symBinAddr: 0x1000112C8, symSize: 0xA8 }
  - { offsetInCU: 0x73032, offset: 0x73032, size: 0x8, addend: 0x0, symName: __ZNK5Eigen13CwiseBinaryOpINS_8internal22scalar_conj_product_opIddEEKNS_9TransposeIKNS_5BlockIKNS5_IKNS_6MatrixIdLin1ELin1ELi0ELin1ELin1EEELi1ELin1ELb0EEELi1ELin1ELb1EEEEEKNS5_IS8_Lin1ELi1ELb1EEEE7functorEv, symObjAddr: 0xEDC8, symBinAddr: 0x100011370, symSize: 0x18 }
  - { offsetInCU: 0x73058, offset: 0x73058, size: 0x8, addend: 0x0, symName: __ZNK5Eigen13CwiseBinaryOpINS_8internal22scalar_conj_product_opIddEEKNS_9TransposeIKNS_5BlockIKNS5_IKNS_6MatrixIdLin1ELin1ELi0ELin1ELin1EEELi1ELin1ELb0EEELi1ELin1ELb1EEEEEKNS5_IS8_Lin1ELi1ELb1EEEE3lhsEv, symObjAddr: 0xEDE0, symBinAddr: 0x100011388, symSize: 0x14 }
  - { offsetInCU: 0x7307E, offset: 0x7307E, size: 0x8, addend: 0x0, symName: __ZN5Eigen8internal9evaluatorIKNS_9TransposeIKNS_5BlockIKNS3_IKNS_6MatrixIdLin1ELin1ELi0ELin1ELin1EEELi1ELin1ELb0EEELi1ELin1ELb1EEEEEEC1ERSC_, symObjAddr: 0xEDF4, symBinAddr: 0x10001139C, symSize: 0x34 }
  - { offsetInCU: 0x730B6, offset: 0x730B6, size: 0x8, addend: 0x0, symName: __ZNK5Eigen13CwiseBinaryOpINS_8internal22scalar_conj_product_opIddEEKNS_9TransposeIKNS_5BlockIKNS5_IKNS_6MatrixIdLin1ELin1ELi0ELin1ELin1EEELi1ELin1ELb0EEELi1ELin1ELb1EEEEEKNS5_IS8_Lin1ELi1ELb1EEEE3rhsEv, symObjAddr: 0xEE28, symBinAddr: 0x1000113D0, symSize: 0x18 }
  - { offsetInCU: 0x730DC, offset: 0x730DC, size: 0x8, addend: 0x0, symName: __ZN5Eigen8internal9evaluatorIKNS_9TransposeIKNS_5BlockIKNS3_IKNS_6MatrixIdLin1ELin1ELi0ELin1ELin1EEELi1ELin1ELb0EEELi1ELin1ELb1EEEEEED1Ev, symObjAddr: 0xEE40, symBinAddr: 0x1000113E8, symSize: 0x2C }
  - { offsetInCU: 0x73108, offset: 0x73108, size: 0x8, addend: 0x0, symName: __ZN5Eigen8internal9evaluatorIKNS_9TransposeIKNS_5BlockIKNS3_IKNS_6MatrixIdLin1ELin1ELi0ELin1ELin1EEELi1ELin1ELb0EEELi1ELin1ELb1EEEEEEC2ERSC_, symObjAddr: 0xEE6C, symBinAddr: 0x100011414, symSize: 0x34 }
  - { offsetInCU: 0x73140, offset: 0x73140, size: 0x8, addend: 0x0, symName: __ZN5Eigen8internal9evaluatorINS_9TransposeIKNS_5BlockIKNS3_IKNS_6MatrixIdLin1ELin1ELi0ELin1ELin1EEELi1ELin1ELb0EEELi1ELin1ELb1EEEEEEC2ERKSB_, symObjAddr: 0xEEA0, symBinAddr: 0x100011448, symSize: 0x34 }
  - { offsetInCU: 0x73178, offset: 0x73178, size: 0x8, addend: 0x0, symName: __ZN5Eigen8internal15unary_evaluatorINS_9TransposeIKNS_5BlockIKNS3_IKNS_6MatrixIdLin1ELin1ELi0ELin1ELin1EEELi1ELin1ELb0EEELi1ELin1ELb1EEEEENS0_10IndexBasedEdEC2ERKSB_, symObjAddr: 0xEED4, symBinAddr: 0x10001147C, symSize: 0x74 }
  - { offsetInCU: 0x731B1, offset: 0x731B1, size: 0x8, addend: 0x0, symName: __ZN5Eigen8internal14evaluator_baseINS_9TransposeIKNS_5BlockIKNS3_IKNS_6MatrixIdLin1ELin1ELi0ELin1ELin1EEELi1ELin1ELb0EEELi1ELin1ELb1EEEEEEC2Ev, symObjAddr: 0xEF48, symBinAddr: 0x1000114F0, symSize: 0x14 }
  - { offsetInCU: 0x731DB, offset: 0x731DB, size: 0x8, addend: 0x0, symName: __ZNK5Eigen9TransposeIKNS_5BlockIKNS1_IKNS_6MatrixIdLin1ELin1ELi0ELin1ELin1EEELi1ELin1ELb0EEELi1ELin1ELb1EEEE16nestedExpressionEv, symObjAddr: 0xEF5C, symBinAddr: 0x100011504, symSize: 0x14 }
  - { offsetInCU: 0x73201, offset: 0x73201, size: 0x8, addend: 0x0, symName: __ZN5Eigen8internal9evaluatorIKNS_5BlockIKNS2_IKNS_6MatrixIdLin1ELin1ELi0ELin1ELin1EEELi1ELin1ELb0EEELi1ELin1ELb1EEEEC1ERS9_, symObjAddr: 0xEF70, symBinAddr: 0x100011518, symSize: 0x34 }
  - { offsetInCU: 0x73239, offset: 0x73239, size: 0x8, addend: 0x0, symName: __ZN5Eigen8internal14evaluator_baseINS_9TransposeIKNS_5BlockIKNS3_IKNS_6MatrixIdLin1ELin1ELi0ELin1ELin1EEELi1ELin1ELb0EEELi1ELin1ELb1EEEEEED2Ev, symObjAddr: 0xEFA4, symBinAddr: 0x10001154C, symSize: 0x14 }
  - { offsetInCU: 0x73263, offset: 0x73263, size: 0x8, addend: 0x0, symName: __ZN5Eigen8internal9evaluatorIKNS_5BlockIKNS2_IKNS_6MatrixIdLin1ELin1ELi0ELin1ELin1EEELi1ELin1ELb0EEELi1ELin1ELb1EEEEC2ERS9_, symObjAddr: 0xEFB8, symBinAddr: 0x100011560, symSize: 0x34 }
  - { offsetInCU: 0x7329B, offset: 0x7329B, size: 0x8, addend: 0x0, symName: __ZN5Eigen8internal9evaluatorINS_5BlockIKNS2_IKNS_6MatrixIdLin1ELin1ELi0ELin1ELin1EEELi1ELin1ELb0EEELi1ELin1ELb1EEEEC2ERKS8_, symObjAddr: 0xEFEC, symBinAddr: 0x100011594, symSize: 0x34 }
  - { offsetInCU: 0x732D4, offset: 0x732D4, size: 0x8, addend: 0x0, symName: __ZN5Eigen8internal15block_evaluatorIKNS_5BlockIKNS_6MatrixIdLin1ELin1ELi0ELin1ELin1EEELi1ELin1ELb0EEELi1ELin1ELb1ELb1EEC2ERKNS2_IS7_Li1ELin1ELb1EEE, symObjAddr: 0xF020, symBinAddr: 0x1000115C8, symSize: 0xDC }
  - { offsetInCU: 0x7330D, offset: 0x7330D, size: 0x8, addend: 0x0, symName: __ZN5Eigen8internal17mapbase_evaluatorINS_5BlockIKNS2_IKNS_6MatrixIdLin1ELin1ELi0ELin1ELin1EEELi1ELin1ELb0EEELi1ELin1ELb1EEENS3_IdLi1ELin1ELi1ELi1ELin1EEEEC2ERKS8_, symObjAddr: 0xF0FC, symBinAddr: 0x1000116A4, symSize: 0xB0 }
  - { offsetInCU: 0x73346, offset: 0x73346, size: 0x8, addend: 0x0, symName: __ZNK5Eigen7MapBaseINS_5BlockIKNS1_IKNS_6MatrixIdLin1ELin1ELi0ELin1ELin1EEELi1ELin1ELb0EEELi1ELin1ELb1EEELi0EE4dataEv, symObjAddr: 0xF1AC, symBinAddr: 0x100011754, symSize: 0x18 }
  - { offsetInCU: 0x7336C, offset: 0x7336C, size: 0x8, addend: 0x0, symName: __ZN5Eigen8internal17mapbase_evaluatorINS_5BlockIKNS2_IKNS_6MatrixIdLin1ELin1ELi0ELin1ELin1EEELi1ELin1ELb0EEELi1ELin1ELb1EEENS3_IdLi1ELin1ELi1ELi1ELin1EEEED2Ev, symObjAddr: 0xF1C4, symBinAddr: 0x10001176C, symSize: 0x2C }
  - { offsetInCU: 0x73399, offset: 0x73399, size: 0x8, addend: 0x0, symName: __ZN5Eigen8internal14evaluator_baseINS_5BlockIKNS2_IKNS_6MatrixIdLin1ELin1ELi0ELin1ELin1EEELi1ELin1ELb0EEELi1ELin1ELb1EEEEC2Ev, symObjAddr: 0xF1F0, symBinAddr: 0x100011798, symSize: 0x14 }
  - { offsetInCU: 0x733C3, offset: 0x733C3, size: 0x8, addend: 0x0, symName: __ZNK5Eigen8internal15BlockImpl_denseIKNS_5BlockIKNS_6MatrixIdLin1ELin1ELi0ELin1ELin1EEELi1ELin1ELb0EEELi1ELin1ELb1ELb1EE11innerStrideEv, symObjAddr: 0xF204, symBinAddr: 0x1000117AC, symSize: 0x28 }
  - { offsetInCU: 0x733E9, offset: 0x733E9, size: 0x8, addend: 0x0, symName: __ZNK5Eigen8internal15BlockImpl_denseIKNS_5BlockIKNS_6MatrixIdLin1ELin1ELi0ELin1ELin1EEELi1ELin1ELb0EEELi1ELin1ELb1ELb1EE11outerStrideEv, symObjAddr: 0xF22C, symBinAddr: 0x1000117D4, symSize: 0x28 }
  - { offsetInCU: 0x7340F, offset: 0x7340F, size: 0x8, addend: 0x0, symName: __ZN5Eigen8internal14evaluator_baseINS_5BlockIKNS2_IKNS_6MatrixIdLin1ELin1ELi0ELin1ELin1EEELi1ELin1ELb0EEELi1ELin1ELb1EEEED2Ev, symObjAddr: 0xF254, symBinAddr: 0x1000117FC, symSize: 0x14 }
  - { offsetInCU: 0x73439, offset: 0x73439, size: 0x8, addend: 0x0, symName: __ZN5Eigen8internal9evaluatorIKNS_9TransposeIKNS_5BlockIKNS3_IKNS_6MatrixIdLin1ELin1ELi0ELin1ELin1EEELi1ELin1ELb0EEELi1ELin1ELb1EEEEEED2Ev, symObjAddr: 0xF268, symBinAddr: 0x100011810, symSize: 0x2C }
  - { offsetInCU: 0x73465, offset: 0x73465, size: 0x8, addend: 0x0, symName: __ZN5Eigen8internal9evaluatorINS_9TransposeIKNS_5BlockIKNS3_IKNS_6MatrixIdLin1ELin1ELi0ELin1ELin1EEELi1ELin1ELb0EEELi1ELin1ELb1EEEEEED2Ev, symObjAddr: 0xF294, symBinAddr: 0x10001183C, symSize: 0x2C }
  - { offsetInCU: 0x73491, offset: 0x73491, size: 0x8, addend: 0x0, symName: __ZN5Eigen8internal15unary_evaluatorINS_9TransposeIKNS_5BlockIKNS3_IKNS_6MatrixIdLin1ELin1ELi0ELin1ELin1EEELi1ELin1ELb0EEELi1ELin1ELb1EEEEENS0_10IndexBasedEdED2Ev, symObjAddr: 0xF2C0, symBinAddr: 0x100011868, symSize: 0x34 }
  - { offsetInCU: 0x734BD, offset: 0x734BD, size: 0x8, addend: 0x0, symName: __ZN5Eigen8internal9evaluatorIKNS_5BlockIKNS2_IKNS_6MatrixIdLin1ELin1ELi0ELin1ELin1EEELi1ELin1ELb0EEELi1ELin1ELb1EEEED1Ev, symObjAddr: 0xF2F4, symBinAddr: 0x10001189C, symSize: 0x2C }
  - { offsetInCU: 0x734E9, offset: 0x734E9, size: 0x8, addend: 0x0, symName: __ZN5Eigen8internal9evaluatorIKNS_5BlockIKNS2_IKNS_6MatrixIdLin1ELin1ELi0ELin1ELin1EEELi1ELin1ELb0EEELi1ELin1ELb1EEEED2Ev, symObjAddr: 0xF320, symBinAddr: 0x1000118C8, symSize: 0x2C }
  - { offsetInCU: 0x73515, offset: 0x73515, size: 0x8, addend: 0x0, symName: __ZN5Eigen8internal9evaluatorINS_5BlockIKNS2_IKNS_6MatrixIdLin1ELin1ELi0ELin1ELin1EEELi1ELin1ELb0EEELi1ELin1ELb1EEEED2Ev, symObjAddr: 0xF34C, symBinAddr: 0x1000118F4, symSize: 0x2C }
  - { offsetInCU: 0x73542, offset: 0x73542, size: 0x8, addend: 0x0, symName: __ZN5Eigen8internal15block_evaluatorIKNS_5BlockIKNS_6MatrixIdLin1ELin1ELi0ELin1ELin1EEELi1ELin1ELb0EEELi1ELin1ELb1ELb1EED2Ev, symObjAddr: 0xF378, symBinAddr: 0x100011920, symSize: 0x2C }
  - { offsetInCU: 0x7356F, offset: 0x7356F, size: 0x8, addend: 0x0, symName: __ZNK5Eigen8internal15redux_evaluatorINS_13CwiseBinaryOpINS0_22scalar_conj_product_opIddEEKNS_9TransposeIKNS_5BlockIKNS6_IKNS_6MatrixIdLin1ELin1ELi0ELin1ELin1EEELi1ELin1ELb0EEELi1ELin1ELb1EEEEEKNS6_IS9_Lin1ELi1ELb1EEEEEE17coeffByOuterInnerEll, symObjAddr: 0xF3A4, symBinAddr: 0x10001194C, symSize: 0x34 }
  - { offsetInCU: 0x735B3, offset: 0x735B3, size: 0x8, addend: 0x0, symName: __ZNK5Eigen9DenseBaseINS_13CwiseBinaryOpINS_8internal22scalar_conj_product_opIddEEKNS_9TransposeIKNS_5BlockIKNS6_IKNS_6MatrixIdLin1ELin1ELi0ELin1ELin1EEELi1ELin1ELb0EEELi1ELin1ELb1EEEEEKNS6_IS9_Lin1ELi1ELb1EEEEEE9innerSizeEv, symObjAddr: 0xF3D8, symBinAddr: 0x100011980, symSize: 0x24 }
  - { offsetInCU: 0x735D9, offset: 0x735D9, size: 0x8, addend: 0x0, symName: __ZNK5Eigen9DenseBaseINS_13CwiseBinaryOpINS_8internal22scalar_conj_product_opIddEEKNS_9TransposeIKNS_5BlockIKNS6_IKNS_6MatrixIdLin1ELin1ELi0ELin1ELin1EEELi1ELin1ELb0EEELi1ELin1ELb1EEEEEKNS6_IS9_Lin1ELi1ELb1EEEEEE9outerSizeEv, symObjAddr: 0xF3FC, symBinAddr: 0x1000119A4, symSize: 0x14 }
  - { offsetInCU: 0x735FF, offset: 0x735FF, size: 0x8, addend: 0x0, symName: __ZNK5Eigen8internal16binary_evaluatorINS_13CwiseBinaryOpINS0_22scalar_conj_product_opIddEEKNS_9TransposeIKNS_5BlockIKNS6_IKNS_6MatrixIdLin1ELin1ELi0ELin1ELin1EEELi1ELin1ELb0EEELi1ELin1ELb1EEEEEKNS6_IS9_Lin1ELi1ELb1EEEEENS0_10IndexBasedESJ_ddE5coeffEll, symObjAddr: 0xF410, symBinAddr: 0x1000119B8, symSize: 0x7C }
  - { offsetInCU: 0x73643, offset: 0x73643, size: 0x8, addend: 0x0, symName: __ZNK5Eigen8internal16binary_evaluatorINS_13CwiseBinaryOpINS0_22scalar_conj_product_opIddEEKNS_9TransposeIKNS_5BlockIKNS6_IKNS_6MatrixIdLin1ELin1ELi0ELin1ELin1EEELi1ELin1ELb0EEELi1ELin1ELb1EEEEEKNS6_IS9_Lin1ELi1ELb1EEEEENS0_10IndexBasedESJ_ddE4Data4funcEv, symObjAddr: 0xF48C, symBinAddr: 0x100011A34, symSize: 0x14 }
  - { offsetInCU: 0x73669, offset: 0x73669, size: 0x8, addend: 0x0, symName: __ZNK5Eigen8internal15unary_evaluatorINS_9TransposeIKNS_5BlockIKNS3_IKNS_6MatrixIdLin1ELin1ELi0ELin1ELin1EEELi1ELin1ELb0EEELi1ELin1ELb1EEEEENS0_10IndexBasedEdE5coeffEll, symObjAddr: 0xF4A0, symBinAddr: 0x100011A48, symSize: 0x34 }
  - { offsetInCU: 0x736AD, offset: 0x736AD, size: 0x8, addend: 0x0, symName: __ZNK5Eigen8internal17mapbase_evaluatorINS_5BlockIKNS2_IKNS_6MatrixIdLin1ELin1ELi0ELin1ELin1EEELi1ELin1ELb0EEELi1ELin1ELb1EEENS3_IdLi1ELin1ELi1ELi1ELin1EEEE5coeffEll, symObjAddr: 0xF4D4, symBinAddr: 0x100011A7C, symSize: 0x78 }
  - { offsetInCU: 0x736F1, offset: 0x736F1, size: 0x8, addend: 0x0, symName: __ZNK5Eigen8internal17mapbase_evaluatorINS_5BlockIKNS2_IKNS_6MatrixIdLin1ELin1ELi0ELin1ELin1EEELi1ELin1ELb0EEELi1ELin1ELb1EEENS3_IdLi1ELin1ELi1ELi1ELin1EEEE9colStrideEv, symObjAddr: 0xF54C, symBinAddr: 0x100011AF4, symSize: 0x28 }
  - { offsetInCU: 0x73717, offset: 0x73717, size: 0x8, addend: 0x0, symName: __ZNK5Eigen8internal17mapbase_evaluatorINS_5BlockIKNS2_IKNS_6MatrixIdLin1ELin1ELi0ELin1ELin1EEELi1ELin1ELb0EEELi1ELin1ELb1EEENS3_IdLi1ELin1ELi1ELi1ELin1EEEE9rowStrideEv, symObjAddr: 0xF574, symBinAddr: 0x100011B1C, symSize: 0x20 }
  - { offsetInCU: 0x7373D, offset: 0x7373D, size: 0x8, addend: 0x0, symName: __ZN5Eigen8internal15redux_evaluatorINS_13CwiseBinaryOpINS0_22scalar_conj_product_opIddEEKNS_9TransposeIKNS_5BlockIKNS6_IKNS_6MatrixIdLin1ELin1ELi0ELin1ELin1EEELi1ELin1ELb0EEELi1ELin1ELb1EEEEEKNS6_IS9_Lin1ELi1ELb1EEEEEED2Ev, symObjAddr: 0xF594, symBinAddr: 0x100011B3C, symSize: 0x2C }
  - { offsetInCU: 0x7376A, offset: 0x7376A, size: 0x8, addend: 0x0, symName: __ZN5Eigen8internal9evaluatorINS_13CwiseBinaryOpINS0_22scalar_conj_product_opIddEEKNS_9TransposeIKNS_5BlockIKNS6_IKNS_6MatrixIdLin1ELin1ELi0ELin1ELin1EEELi1ELin1ELb0EEELi1ELin1ELb1EEEEEKNS6_IS9_Lin1ELi1ELb1EEEEEED2Ev, symObjAddr: 0xF5C0, symBinAddr: 0x100011B68, symSize: 0x2C }
  - { offsetInCU: 0x73797, offset: 0x73797, size: 0x8, addend: 0x0, symName: __ZN5Eigen8internal16binary_evaluatorINS_13CwiseBinaryOpINS0_22scalar_conj_product_opIddEEKNS_9TransposeIKNS_5BlockIKNS6_IKNS_6MatrixIdLin1ELin1ELi0ELin1ELin1EEELi1ELin1ELb0EEELi1ELin1ELb1EEEEEKNS6_IS9_Lin1ELi1ELb1EEEEENS0_10IndexBasedESJ_ddED2Ev, symObjAddr: 0xF5EC, symBinAddr: 0x100011B94, symSize: 0x34 }
  - { offsetInCU: 0x737C3, offset: 0x737C3, size: 0x8, addend: 0x0, symName: __ZN5Eigen8internal16binary_evaluatorINS_13CwiseBinaryOpINS0_22scalar_conj_product_opIddEEKNS_9TransposeIKNS_5BlockIKNS6_IKNS_6MatrixIdLin1ELin1ELi0ELin1ELin1EEELi1ELin1ELb0EEELi1ELin1ELb1EEEEEKNS6_IS9_Lin1ELi1ELb1EEEEENS0_10IndexBasedESJ_ddE4DataD1Ev, symObjAddr: 0xF620, symBinAddr: 0x100011BC8, symSize: 0x2C }
  - { offsetInCU: 0x737F0, offset: 0x737F0, size: 0x8, addend: 0x0, symName: __ZN5Eigen8internal16binary_evaluatorINS_13CwiseBinaryOpINS0_22scalar_conj_product_opIddEEKNS_9TransposeIKNS_5BlockIKNS6_IKNS_6MatrixIdLin1ELin1ELi0ELin1ELin1EEELi1ELin1ELb0EEELi1ELin1ELb1EEEEEKNS6_IS9_Lin1ELi1ELb1EEEEENS0_10IndexBasedESJ_ddE4DataD2Ev, symObjAddr: 0xF64C, symBinAddr: 0x100011BF4, symSize: 0x3C }
  - { offsetInCU: 0x7381D, offset: 0x7381D, size: 0x8, addend: 0x0, symName: __ZNK5Eigen15DenseCoeffsBaseINS_5BlockINS_6MatrixIdLin1ELin1ELi0ELin1ELin1EEELi1ELin1ELb0EEELi3EE9colStrideEv, symObjAddr: 0xF688, symBinAddr: 0x100011C30, symSize: 0x24 }
  - { offsetInCU: 0x73843, offset: 0x73843, size: 0x8, addend: 0x0, symName: __ZNK5Eigen15DenseCoeffsBaseINS_5BlockINS_6MatrixIdLin1ELin1ELi0ELin1ELin1EEELi1ELin1ELb0EEELi3EE9rowStrideEv, symObjAddr: 0xF6AC, symBinAddr: 0x100011C54, symSize: 0x24 }
  - { offsetInCU: 0x73869, offset: 0x73869, size: 0x8, addend: 0x0, symName: __ZNK5Eigen15DenseCoeffsBaseINS_5BlockINS_6MatrixIdLin1ELin1ELi0ELin1ELin1EEELi1ELin1ELb0EEELi3EE11innerStrideEv, symObjAddr: 0xF6D0, symBinAddr: 0x100011C78, symSize: 0x38 }
  - { offsetInCU: 0x7388F, offset: 0x7388F, size: 0x8, addend: 0x0, symName: __ZNK5Eigen9EigenBaseINS_5BlockINS_6MatrixIdLin1ELin1ELi0ELin1ELin1EEELi1ELin1ELb0EEEE7derivedEv, symObjAddr: 0xF708, symBinAddr: 0x100011CB0, symSize: 0x14 }
  - { offsetInCU: 0x738B5, offset: 0x738B5, size: 0x8, addend: 0x0, symName: __ZNK5Eigen8internal15BlockImpl_denseINS_6MatrixIdLin1ELin1ELi0ELin1ELin1EEELi1ELin1ELb0ELb1EE11innerStrideEv, symObjAddr: 0xF71C, symBinAddr: 0x100011CC4, symSize: 0x28 }
  - { offsetInCU: 0x738DB, offset: 0x738DB, size: 0x8, addend: 0x0, symName: __ZNK5Eigen15DenseCoeffsBaseINS_5BlockINS_6MatrixIdLin1ELin1ELi0ELin1ELin1EEELi1ELin1ELb0EEELi3EE11outerStrideEv, symObjAddr: 0xF744, symBinAddr: 0x100011CEC, symSize: 0x28 }
  - { offsetInCU: 0x73901, offset: 0x73901, size: 0x8, addend: 0x0, symName: __ZNK5Eigen8internal15BlockImpl_denseINS_6MatrixIdLin1ELin1ELi0ELin1ELin1EEELi1ELin1ELb0ELb1EE11outerStrideEv, symObjAddr: 0xF76C, symBinAddr: 0x100011D14, symSize: 0x28 }
  - { offsetInCU: 0x73927, offset: 0x73927, size: 0x8, addend: 0x0, symName: __ZN5Eigen9TransposeINS_5BlockINS_6MatrixIdLin1ELin1ELi0ELin1ELin1EEELi1ELin1ELb0EEEEC1ERS4_, symObjAddr: 0xF794, symBinAddr: 0x100011D3C, symSize: 0x34 }
  - { offsetInCU: 0x7398B, offset: 0x7398B, size: 0x8, addend: 0x0, symName: __ZNK5Eigen9DenseBaseINS_6MatrixIdLin1ELin1ELi0ELin1ELin1EEEE9transposeEv, symObjAddr: 0xFC94, symBinAddr: 0x10001223C, symSize: 0x34 }
  - { offsetInCU: 0x739B3, offset: 0x739B3, size: 0x8, addend: 0x0, symName: __ZN5Eigen9TransposeINS_5BlockINS_6MatrixIdLin1ELin1ELi0ELin1ELin1EEELi1ELin1ELb0EEEEC2ERS4_, symObjAddr: 0xFCC8, symBinAddr: 0x100012270, symSize: 0x40 }
  - { offsetInCU: 0x739EB, offset: 0x739EB, size: 0x8, addend: 0x0, symName: __ZN5Eigen13TransposeImplINS_5BlockINS_6MatrixIdLin1ELin1ELi0ELin1ELin1EEELi1ELin1ELb0EEENS_5DenseEEC2Ev, symObjAddr: 0xFD08, symBinAddr: 0x1000122B0, symSize: 0x2C }
  - { offsetInCU: 0x73A15, offset: 0x73A15, size: 0x8, addend: 0x0, symName: __ZN5Eigen10MatrixBaseINS_9TransposeINS_5BlockINS_6MatrixIdLin1ELin1ELi0ELin1ELin1EEELi1ELin1ELb0EEEEEEC2Ev, symObjAddr: 0xFD34, symBinAddr: 0x1000122DC, symSize: 0x2C }
  - { offsetInCU: 0x73A3F, offset: 0x73A3F, size: 0x8, addend: 0x0, symName: __ZN5Eigen9DenseBaseINS_9TransposeINS_5BlockINS_6MatrixIdLin1ELin1ELi0ELin1ELin1EEELi1ELin1ELb0EEEEEEC2Ev, symObjAddr: 0xFD60, symBinAddr: 0x100012308, symSize: 0x14 }
  - { offsetInCU: 0x73A69, offset: 0x73A69, size: 0x8, addend: 0x0, symName: __ZN5Eigen8internal11blas_traitsINS_9TransposeIKNS_6MatrixIdLin1ELin1ELi0ELin1ELin1EEEEEE7extractERKS6_, symObjAddr: 0xFD74, symBinAddr: 0x10001231C, symSize: 0x38 }
  - { offsetInCU: 0x73A8D, offset: 0x73A8D, size: 0x8, addend: 0x0, symName: __ZN5Eigen8internal11blas_traitsINS_9TransposeIKNS_5BlockIKNS_6MatrixIdLin1ELin1ELi0ELin1ELin1EEELi1ELin1ELb0EEEEEE7extractERKS9_, symObjAddr: 0xFDAC, symBinAddr: 0x100012354, symSize: 0x38 }
  - { offsetInCU: 0x73AB1, offset: 0x73AB1, size: 0x8, addend: 0x0, symName: __ZNK5Eigen9EigenBaseINS_9TransposeIKNS_5BlockIKNS_6MatrixIdLin1ELin1ELi0ELin1ELin1EEELi1ELin1ELb0EEEEEE4sizeEv, symObjAddr: 0xFDE4, symBinAddr: 0x10001238C, symSize: 0x44 }
  - { offsetInCU: 0x73ADC, offset: 0x73ADC, size: 0x8, addend: 0x0, symName: __ZN5Eigen8internal21gemv_static_vector_ifIdLin1ELin1ELb1EE4dataEv, symObjAddr: 0xFE28, symBinAddr: 0x1000123D0, symSize: 0x14 }
  - { offsetInCU: 0x73B16, offset: 0x73B16, size: 0x8, addend: 0x0, symName: __ZN5Eigen8internal28aligned_stack_memory_handlerIdEC1EPdmb, symObjAddr: 0xFE3C, symBinAddr: 0x1000123E4, symSize: 0x50 }
  - { offsetInCU: 0x73B6D, offset: 0x73B6D, size: 0x8, addend: 0x0, symName: __ZN5Eigen6StrideILi0ELi0EEC1Ev, symObjAddr: 0xFE8C, symBinAddr: 0x100012434, symSize: 0x2C }
  - { offsetInCU: 0x73B97, offset: 0x73B97, size: 0x8, addend: 0x0, symName: __ZN5Eigen3MapINS_6MatrixIdLin1ELi1ELi0ELin1ELi1EEELi0ENS_6StrideILi0ELi0EEEEC1EPdlRKS4_, symObjAddr: 0xFEB8, symBinAddr: 0x100012460, symSize: 0x44 }
  - { offsetInCU: 0x73BEB, offset: 0x73BEB, size: 0x8, addend: 0x0, symName: __ZN5Eigen3MapINS_6MatrixIdLin1ELi1ELi0ELin1ELi1EEELi0ENS_6StrideILi0ELi0EEEEaSINS_9TransposeIKNS_5BlockIKNS1_IdLin1ELin1ELi0ELin1ELin1EEELi1ELin1ELb0EEEEEEERS5_RKNS_9DenseBaseIT_EE, symObjAddr: 0xFEFC, symBinAddr: 0x1000124A4, symSize: 0x40 }
  - { offsetInCU: 0x73C69, offset: 0x73C69, size: 0x8, addend: 0x0, symName: __ZNK5Eigen9TransposeIKNS_6MatrixIdLin1ELin1ELi0ELin1ELin1EEEE4rowsEv, symObjAddr: 0x116E0, symBinAddr: 0x100013C88, symSize: 0x28 }
  - { offsetInCU: 0x73C8F, offset: 0x73C8F, size: 0x8, addend: 0x0, symName: __ZNK5Eigen9TransposeIKNS_6MatrixIdLin1ELin1ELi0ELin1ELin1EEEE4colsEv, symObjAddr: 0x11708, symBinAddr: 0x100013CB0, symSize: 0x28 }
  - { offsetInCU: 0x73CB5, offset: 0x73CB5, size: 0x8, addend: 0x0, symName: __ZNK5Eigen13TransposeImplIKNS_6MatrixIdLin1ELin1ELi0ELin1ELin1EEENS_5DenseEE4dataEv, symObjAddr: 0x11730, symBinAddr: 0x100013CD8, symSize: 0x2C }
  - { offsetInCU: 0x73CDB, offset: 0x73CDB, size: 0x8, addend: 0x0, symName: __ZNK5Eigen13TransposeImplIKNS_6MatrixIdLin1ELin1ELi0ELin1ELin1EEENS_5DenseEE11outerStrideEv, symObjAddr: 0x1175C, symBinAddr: 0x100013D04, symSize: 0x2C }
  - { offsetInCU: 0x73D01, offset: 0x73D01, size: 0x8, addend: 0x0, symName: __ZN5Eigen13TransposeImplINS_5BlockINS_6MatrixIdLin1ELin1ELi0ELin1ELin1EEELi1ELin1ELb0EEENS_5DenseEE4dataEv, symObjAddr: 0x11788, symBinAddr: 0x100013D30, symSize: 0x2C }
  - { offsetInCU: 0x73D27, offset: 0x73D27, size: 0x8, addend: 0x0, symName: __ZN5Eigen9DenseBaseINS_9TransposeINS_5BlockINS_6MatrixIdLin1ELin1ELi0ELin1ELin1EEELi1ELin1ELb0EEEEEE3colEl, symObjAddr: 0x117B4, symBinAddr: 0x100013D5C, symSize: 0x3C }
  - { offsetInCU: 0x73D5C, offset: 0x73D5C, size: 0x8, addend: 0x0, symName: __ZNK5Eigen8internal15BlockImpl_denseINS_9TransposeINS_5BlockINS_6MatrixIdLin1ELin1ELi0ELin1ELin1EEELi1ELin1ELb0EEEEELin1ELi1ELb1ELb1EE11innerStrideEv, symObjAddr: 0x117F0, symBinAddr: 0x100013D98, symSize: 0x38 }
  - { offsetInCU: 0x73D82, offset: 0x73D82, size: 0x8, addend: 0x0, symName: __ZN5Eigen8internal28aligned_stack_memory_handlerIdED1Ev, symObjAddr: 0x11828, symBinAddr: 0x100013DD0, symSize: 0x2C }
  - { offsetInCU: 0x73DAC, offset: 0x73DAC, size: 0x8, addend: 0x0, symName: __ZNK5Eigen9TransposeIKNS_6MatrixIdLin1ELin1ELi0ELin1ELin1EEEE16nestedExpressionEv, symObjAddr: 0x11854, symBinAddr: 0x100013DFC, symSize: 0x18 }
  - { offsetInCU: 0x73DD2, offset: 0x73DD2, size: 0x8, addend: 0x0, symName: __ZN5Eigen9TransposeIKNS_6MatrixIdLin1ELin1ELi0ELin1ELin1EEEEC1ERS3_, symObjAddr: 0x1186C, symBinAddr: 0x100013E14, symSize: 0x34 }
  - { offsetInCU: 0x73E0A, offset: 0x73E0A, size: 0x8, addend: 0x0, symName: __ZN5Eigen9TransposeIKNS_6MatrixIdLin1ELin1ELi0ELin1ELin1EEEEC2ERS3_, symObjAddr: 0x118A0, symBinAddr: 0x100013E48, symSize: 0x38 }
  - { offsetInCU: 0x73E42, offset: 0x73E42, size: 0x8, addend: 0x0, symName: __ZN5Eigen13TransposeImplIKNS_6MatrixIdLin1ELin1ELi0ELin1ELin1EEENS_5DenseEEC2Ev, symObjAddr: 0x118D8, symBinAddr: 0x100013E80, symSize: 0x2C }
  - { offsetInCU: 0x73E6C, offset: 0x73E6C, size: 0x8, addend: 0x0, symName: __ZN5Eigen10MatrixBaseINS_9TransposeIKNS_6MatrixIdLin1ELin1ELi0ELin1ELin1EEEEEEC2Ev, symObjAddr: 0x11904, symBinAddr: 0x100013EAC, symSize: 0x2C }
  - { offsetInCU: 0x73E96, offset: 0x73E96, size: 0x8, addend: 0x0, symName: __ZN5Eigen9DenseBaseINS_9TransposeIKNS_6MatrixIdLin1ELin1ELi0ELin1ELin1EEEEEEC2Ev, symObjAddr: 0x11930, symBinAddr: 0x100013ED8, symSize: 0x14 }
  - { offsetInCU: 0x73EC0, offset: 0x73EC0, size: 0x8, addend: 0x0, symName: __ZN5Eigen8internal11blas_traitsINS_5BlockIKNS_6MatrixIdLin1ELin1ELi0ELin1ELin1EEELi1ELin1ELb0EEEE7extractERKS6_, symObjAddr: 0x11944, symBinAddr: 0x100013EEC, symSize: 0x14 }
  - { offsetInCU: 0x73EE4, offset: 0x73EE4, size: 0x8, addend: 0x0, symName: __ZN5Eigen8internal11blas_traitsINS_9TransposeIKNS_6MatrixIdLin1ELin1ELi0ELin1ELin1EEEEEE19extractScalarFactorERKS6_, symObjAddr: 0x11958, symBinAddr: 0x100013F00, symSize: 0x28 }
  - { offsetInCU: 0x73F08, offset: 0x73F08, size: 0x8, addend: 0x0, symName: __ZN5Eigen8internal11blas_traitsINS_9TransposeIKNS_5BlockIKNS_6MatrixIdLin1ELin1ELi0ELin1ELin1EEELi1ELin1ELb0EEEEEE19extractScalarFactorERKS9_, symObjAddr: 0x11980, symBinAddr: 0x100013F28, symSize: 0x28 }
  - { offsetInCU: 0x73F2C, offset: 0x73F2C, size: 0x8, addend: 0x0, symName: __ZN5Eigen8internal11blas_traitsINS_5BlockIKNS_6MatrixIdLin1ELin1ELi0ELin1ELin1EEELi1ELin1ELb0EEEE19extractScalarFactorERKS6_, symObjAddr: 0x119A8, symBinAddr: 0x100013F50, symSize: 0x14 }
  - { offsetInCU: 0x73F4C, offset: 0x73F4C, size: 0x8, addend: 0x0, symName: __ZNK5Eigen9EigenBaseINS_9TransposeIKNS_5BlockIKNS_6MatrixIdLin1ELin1ELi0ELin1ELin1EEELi1ELin1ELb0EEEEEE4rowsEv, symObjAddr: 0x119BC, symBinAddr: 0x100013F64, symSize: 0x28 }
  - { offsetInCU: 0x73F72, offset: 0x73F72, size: 0x8, addend: 0x0, symName: __ZNK5Eigen9EigenBaseINS_9TransposeIKNS_5BlockIKNS_6MatrixIdLin1ELin1ELi0ELin1ELin1EEELi1ELin1ELb0EEEEEE4colsEv, symObjAddr: 0x119E4, symBinAddr: 0x100013F8C, symSize: 0x28 }
  - { offsetInCU: 0x73F98, offset: 0x73F98, size: 0x8, addend: 0x0, symName: __ZN5Eigen8internal28aligned_stack_memory_handlerIdEC2EPdmb, symObjAddr: 0x11A0C, symBinAddr: 0x100013FB4, symSize: 0x5C }
  - { offsetInCU: 0x73FEF, offset: 0x73FEF, size: 0x8, addend: 0x0, symName: __ZN5Eigen8internal11noncopyableC2Ev, symObjAddr: 0x11A68, symBinAddr: 0x100014010, symSize: 0x14 }
  - { offsetInCU: 0x74019, offset: 0x74019, size: 0x8, addend: 0x0, symName: __ZN5Eigen6StrideILi0ELi0EEC2Ev, symObjAddr: 0x11A7C, symBinAddr: 0x100014024, symSize: 0x44 }
  - { offsetInCU: 0x74043, offset: 0x74043, size: 0x8, addend: 0x0, symName: __ZN5Eigen3MapINS_6MatrixIdLin1ELi1ELi0ELin1ELi1EEELi0ENS_6StrideILi0ELi0EEEEC2EPdlRKS4_, symObjAddr: 0x11AC0, symBinAddr: 0x100014068, symSize: 0x60 }
  - { offsetInCU: 0x74097, offset: 0x74097, size: 0x8, addend: 0x0, symName: __ZN5Eigen3MapINS_6MatrixIdLin1ELi1ELi0ELin1ELi1EEELi0ENS_6StrideILi0ELi0EEEE20cast_to_pointer_typeEPd, symObjAddr: 0x11B20, symBinAddr: 0x1000140C8, symSize: 0x18 }
  - { offsetInCU: 0x740CB, offset: 0x740CB, size: 0x8, addend: 0x0, symName: __ZN5Eigen7MapBaseINS_3MapINS_6MatrixIdLin1ELi1ELi0ELin1ELi1EEELi0ENS_6StrideILi0ELi0EEEEELi1EEC2EPdl, symObjAddr: 0x11B38, symBinAddr: 0x1000140E0, symSize: 0x3C }
  - { offsetInCU: 0x74113, offset: 0x74113, size: 0x8, addend: 0x0, symName: __ZN5Eigen6StrideILi0ELi0EEC1ERKS1_, symObjAddr: 0x11B74, symBinAddr: 0x10001411C, symSize: 0x34 }
  - { offsetInCU: 0x7414B, offset: 0x7414B, size: 0x8, addend: 0x0, symName: __ZN5Eigen15PlainObjectBaseINS_6MatrixIdLin1ELi1ELi0ELin1ELi1EEEE22_check_template_paramsEv, symObjAddr: 0x11BA8, symBinAddr: 0x100014150, symSize: 0x4 }
  - { offsetInCU: 0x7415F, offset: 0x7415F, size: 0x8, addend: 0x0, symName: __ZN5Eigen7MapBaseINS_3MapINS_6MatrixIdLin1ELi1ELi0ELin1ELi1EEELi0ENS_6StrideILi0ELi0EEEEELi0EEC2EPdl, symObjAddr: 0x11BAC, symBinAddr: 0x100014154, symSize: 0x120 }
  - { offsetInCU: 0x741A5, offset: 0x741A5, size: 0x8, addend: 0x0, symName: __ZN5Eigen10MatrixBaseINS_3MapINS_6MatrixIdLin1ELi1ELi0ELin1ELi1EEELi0ENS_6StrideILi0ELi0EEEEEEC2Ev, symObjAddr: 0x11CCC, symBinAddr: 0x100014274, symSize: 0x2C }
  - { offsetInCU: 0x741CF, offset: 0x741CF, size: 0x8, addend: 0x0, symName: __ZNK5Eigen7MapBaseINS_3MapINS_6MatrixIdLin1ELi1ELi0ELin1ELi1EEELi0ENS_6StrideILi0ELi0EEEEELi0EE11checkSanityIS6_EEvNS_8internal9enable_ifIXeqsr8internal6traitsIT_EE9AlignmentLi0EEPvE4typeE, symObjAddr: 0x11CF8, symBinAddr: 0x1000142A0, symSize: 0x14 }
  - { offsetInCU: 0x74209, offset: 0x74209, size: 0x8, addend: 0x0, symName: __ZN5Eigen9DenseBaseINS_3MapINS_6MatrixIdLin1ELi1ELi0ELin1ELi1EEELi0ENS_6StrideILi0ELi0EEEEEEC2Ev, symObjAddr: 0x11D0C, symBinAddr: 0x1000142B4, symSize: 0x14 }
  - { offsetInCU: 0x74233, offset: 0x74233, size: 0x8, addend: 0x0, symName: __ZN5Eigen6StrideILi0ELi0EEC2ERKS1_, symObjAddr: 0x11D20, symBinAddr: 0x1000142C8, symSize: 0x58 }
  - { offsetInCU: 0x7426B, offset: 0x7426B, size: 0x8, addend: 0x0, symName: __ZNK5Eigen6StrideILi0ELi0EE5outerEv, symObjAddr: 0x11D78, symBinAddr: 0x100014320, symSize: 0x20 }
  - { offsetInCU: 0x74291, offset: 0x74291, size: 0x8, addend: 0x0, symName: __ZNK5Eigen6StrideILi0ELi0EE5innerEv, symObjAddr: 0x11D98, symBinAddr: 0x100014340, symSize: 0x20 }
  - { offsetInCU: 0x742B7, offset: 0x742B7, size: 0x8, addend: 0x0, symName: __ZN5Eigen8internal19variable_if_dynamicIlLi0EE5valueEv, symObjAddr: 0x11DB8, symBinAddr: 0x100014360, symSize: 0x8 }
  - { offsetInCU: 0x742CB, offset: 0x742CB, size: 0x8, addend: 0x0, symName: __ZN5Eigen10MatrixBaseINS_3MapINS_6MatrixIdLin1ELi1ELi0ELin1ELi1EEELi0ENS_6StrideILi0ELi0EEEEEEaSINS_9TransposeIKNS_5BlockIKNS2_IdLin1ELin1ELi0ELin1ELin1EEELi1ELin1ELb0EEEEEEERS6_RKNS_9DenseBaseIT_EE, symObjAddr: 0x11DC0, symBinAddr: 0x100014368, symSize: 0x4C }
  - { offsetInCU: 0x7430A, offset: 0x7430A, size: 0x8, addend: 0x0, symName: __ZN5Eigen9EigenBaseINS_3MapINS_6MatrixIdLin1ELi1ELi0ELin1ELi1EEELi0ENS_6StrideILi0ELi0EEEEEE7derivedEv, symObjAddr: 0x11E5C, symBinAddr: 0x100014404, symSize: 0x14 }
  - { offsetInCU: 0x74330, offset: 0x74330, size: 0x8, addend: 0x0, symName: __ZN5Eigen8internal10AssignmentINS_3MapINS_6MatrixIdLin1ELi1ELi0ELin1ELi1EEELi0ENS_6StrideILi0ELi0EEEEENS_9TransposeIKNS_5BlockIKNS3_IdLin1ELin1ELi0ELin1ELin1EEELi1ELin1ELb0EEEEENS0_9assign_opIddEENS0_11Dense2DenseEvE3runERS7_RKSE_RKSG_, symObjAddr: 0x11EE4, symBinAddr: 0x10001448C, symSize: 0x40 }
  - { offsetInCU: 0x74372, offset: 0x74372, size: 0x8, addend: 0x0, symName: __ZN5Eigen8internal9evaluatorINS_9TransposeIKNS_5BlockIKNS_6MatrixIdLin1ELin1ELi0ELin1ELin1EEELi1ELin1ELb0EEEEEEC1ERKS9_, symObjAddr: 0x12018, symBinAddr: 0x1000145C0, symSize: 0x34 }
  - { offsetInCU: 0x743B9, offset: 0x743B9, size: 0x8, addend: 0x0, symName: __ZN5Eigen8internal9evaluatorINS_3MapINS_6MatrixIdLin1ELi1ELi0ELin1ELi1EEELi0ENS_6StrideILi0ELi0EEEEEEC1ERKS7_, symObjAddr: 0x12144, symBinAddr: 0x1000146EC, symSize: 0x34 }
  - { offsetInCU: 0x743F2, offset: 0x743F2, size: 0x8, addend: 0x0, symName: __ZNK5Eigen9EigenBaseINS_3MapINS_6MatrixIdLin1ELi1ELi0ELin1ELi1EEELi0ENS_6StrideILi0ELi0EEEEEE18const_cast_derivedEv, symObjAddr: 0x12178, symBinAddr: 0x100014720, symSize: 0x14 }
  - { offsetInCU: 0x74445, offset: 0x74445, size: 0x8, addend: 0x0, symName: __ZN5Eigen8internal31generic_dense_assignment_kernelINS0_9evaluatorINS_3MapINS_6MatrixIdLin1ELi1ELi0ELin1ELi1EEELi0ENS_6StrideILi0ELi0EEEEEEENS2_INS_9TransposeIKNS_5BlockIKNS4_IdLin1ELin1ELi0ELin1ELin1EEELi1ELin1ELb0EEEEEEENS0_9assign_opIddEELi0EEC1ERS9_RKSH_RKSJ_RS8_, symObjAddr: 0x1218C, symBinAddr: 0x100014734, symSize: 0x4C }
  - { offsetInCU: 0x744B0, offset: 0x744B0, size: 0x8, addend: 0x0, symName: __ZN5Eigen8internal21dense_assignment_loopINS0_31generic_dense_assignment_kernelINS0_9evaluatorINS_3MapINS_6MatrixIdLin1ELi1ELi0ELin1ELi1EEELi0ENS_6StrideILi0ELi0EEEEEEENS3_INS_9TransposeIKNS_5BlockIKNS5_IdLin1ELin1ELi0ELin1ELin1EEELi1ELin1ELb0EEEEEEENS0_9assign_opIddEELi0EEELi1ELi0EE3runERSL_, symObjAddr: 0x121D8, symBinAddr: 0x100014780, symSize: 0x68 }
  - { offsetInCU: 0x74500, offset: 0x74500, size: 0x8, addend: 0x0, symName: __ZN5Eigen8internal9evaluatorINS_3MapINS_6MatrixIdLin1ELi1ELi0ELin1ELi1EEELi0ENS_6StrideILi0ELi0EEEEEED1Ev, symObjAddr: 0x12240, symBinAddr: 0x1000147E8, symSize: 0x2C }
  - { offsetInCU: 0x7452D, offset: 0x7452D, size: 0x8, addend: 0x0, symName: __ZN5Eigen8internal9evaluatorINS_9TransposeIKNS_5BlockIKNS_6MatrixIdLin1ELin1ELi0ELin1ELin1EEELi1ELin1ELb0EEEEEED1Ev, symObjAddr: 0x1226C, symBinAddr: 0x100014814, symSize: 0x2C }
  - { offsetInCU: 0x74559, offset: 0x74559, size: 0x8, addend: 0x0, symName: __ZNK5Eigen7MapBaseINS_3MapINS_6MatrixIdLin1ELi1ELi0ELin1ELi1EEELi0ENS_6StrideILi0ELi0EEEEELi0EE4rowsEv, symObjAddr: 0x12298, symBinAddr: 0x100014840, symSize: 0x28 }
  - { offsetInCU: 0x7457F, offset: 0x7457F, size: 0x8, addend: 0x0, symName: __ZNK5Eigen7MapBaseINS_3MapINS_6MatrixIdLin1ELi1ELi0ELin1ELi1EEELi0ENS_6StrideILi0ELi0EEEEELi0EE4colsEv, symObjAddr: 0x122C0, symBinAddr: 0x100014868, symSize: 0x20 }
  - { offsetInCU: 0x745A5, offset: 0x745A5, size: 0x8, addend: 0x0, symName: __ZN5Eigen9DenseBaseINS_3MapINS_6MatrixIdLin1ELi1ELi0ELin1ELi1EEELi0ENS_6StrideILi0ELi0EEEEEE6resizeEll, symObjAddr: 0x122E0, symBinAddr: 0x100014888, symSize: 0xBC }
  - { offsetInCU: 0x745E9, offset: 0x745E9, size: 0x8, addend: 0x0, symName: __ZNK5Eigen9EigenBaseINS_3MapINS_6MatrixIdLin1ELi1ELi0ELin1ELi1EEELi0ENS_6StrideILi0ELi0EEEEEE4rowsEv, symObjAddr: 0x1239C, symBinAddr: 0x100014944, symSize: 0x38 }
  - { offsetInCU: 0x7460F, offset: 0x7460F, size: 0x8, addend: 0x0, symName: __ZNK5Eigen9EigenBaseINS_3MapINS_6MatrixIdLin1ELi1ELi0ELin1ELi1EEELi0ENS_6StrideILi0ELi0EEEEEE4colsEv, symObjAddr: 0x123D4, symBinAddr: 0x10001497C, symSize: 0x28 }
  - { offsetInCU: 0x74635, offset: 0x74635, size: 0x8, addend: 0x0, symName: __ZNK5Eigen9EigenBaseINS_3MapINS_6MatrixIdLin1ELi1ELi0ELin1ELi1EEELi0ENS_6StrideILi0ELi0EEEEEE7derivedEv, symObjAddr: 0x123FC, symBinAddr: 0x1000149A4, symSize: 0x14 }
  - { offsetInCU: 0x7465B, offset: 0x7465B, size: 0x8, addend: 0x0, symName: __ZN5Eigen8internal9evaluatorINS_3MapINS_6MatrixIdLin1ELi1ELi0ELin1ELi1EEELi0ENS_6StrideILi0ELi0EEEEEEC2ERKS7_, symObjAddr: 0x12410, symBinAddr: 0x1000149B8, symSize: 0x34 }
  - { offsetInCU: 0x74694, offset: 0x74694, size: 0x8, addend: 0x0, symName: __ZN5Eigen8internal17mapbase_evaluatorINS_3MapINS_6MatrixIdLin1ELi1ELi0ELin1ELi1EEELi0ENS_6StrideILi0ELi0EEEEES4_EC2ERKS7_, symObjAddr: 0x12444, symBinAddr: 0x1000149EC, symSize: 0xC0 }
  - { offsetInCU: 0x746CD, offset: 0x746CD, size: 0x8, addend: 0x0, symName: __ZN5Eigen8internal14evaluator_baseINS_3MapINS_6MatrixIdLin1ELi1ELi0ELin1ELi1EEELi0ENS_6StrideILi0ELi0EEEEEEC2Ev, symObjAddr: 0x12504, symBinAddr: 0x100014AAC, symSize: 0x14 }
  - { offsetInCU: 0x746F7, offset: 0x746F7, size: 0x8, addend: 0x0, symName: __ZNK5Eigen7MapBaseINS_3MapINS_6MatrixIdLin1ELi1ELi0ELin1ELi1EEELi0ENS_6StrideILi0ELi0EEEEELi1EE4dataEv, symObjAddr: 0x12518, symBinAddr: 0x100014AC0, symSize: 0x18 }
  - { offsetInCU: 0x7471D, offset: 0x7471D, size: 0x8, addend: 0x0, symName: __ZNK5Eigen3MapINS_6MatrixIdLin1ELi1ELi0ELin1ELi1EEELi0ENS_6StrideILi0ELi0EEEE11innerStrideEv, symObjAddr: 0x12530, symBinAddr: 0x100014AD8, symSize: 0x14 }
  - { offsetInCU: 0x74743, offset: 0x74743, size: 0x8, addend: 0x0, symName: __ZNK5Eigen3MapINS_6MatrixIdLin1ELi1ELi0ELin1ELi1EEELi0ENS_6StrideILi0ELi0EEEE11outerStrideEv, symObjAddr: 0x12544, symBinAddr: 0x100014AEC, symSize: 0x44 }
  - { offsetInCU: 0x74769, offset: 0x74769, size: 0x8, addend: 0x0, symName: __ZN5Eigen8internal14evaluator_baseINS_3MapINS_6MatrixIdLin1ELi1ELi0ELin1ELi1EEELi0ENS_6StrideILi0ELi0EEEEEED2Ev, symObjAddr: 0x12588, symBinAddr: 0x100014B30, symSize: 0x14 }
  - { offsetInCU: 0x74793, offset: 0x74793, size: 0x8, addend: 0x0, symName: __ZNK5Eigen9EigenBaseINS_3MapINS_6MatrixIdLin1ELi1ELi0ELin1ELi1EEELi0ENS_6StrideILi0ELi0EEEEEE4sizeEv, symObjAddr: 0x1259C, symBinAddr: 0x100014B44, symSize: 0x44 }
  - { offsetInCU: 0x747B9, offset: 0x747B9, size: 0x8, addend: 0x0, symName: __ZN5Eigen8internal31generic_dense_assignment_kernelINS0_9evaluatorINS_3MapINS_6MatrixIdLin1ELi1ELi0ELin1ELi1EEELi0ENS_6StrideILi0ELi0EEEEEEENS2_INS_9TransposeIKNS_5BlockIKNS4_IdLin1ELin1ELi0ELin1ELin1EEELi1ELin1ELb0EEEEEEENS0_9assign_opIddEELi0EEC2ERS9_RKSH_RKSJ_RS8_, symObjAddr: 0x125E0, symBinAddr: 0x100014B88, symSize: 0x44 }
  - { offsetInCU: 0x7481F, offset: 0x7481F, size: 0x8, addend: 0x0, symName: __ZNK5Eigen8internal31generic_dense_assignment_kernelINS0_9evaluatorINS_3MapINS_6MatrixIdLin1ELi1ELi0ELin1ELi1EEELi0ENS_6StrideILi0ELi0EEEEEEENS2_INS_9TransposeIKNS_5BlockIKNS4_IdLin1ELin1ELi0ELin1ELin1EEELi1ELin1ELb0EEEEEEENS0_9assign_opIddEELi0EE4sizeEv, symObjAddr: 0x12624, symBinAddr: 0x100014BCC, symSize: 0x28 }
  - { offsetInCU: 0x74845, offset: 0x74845, size: 0x8, addend: 0x0, symName: __ZN5Eigen8internal31generic_dense_assignment_kernelINS0_9evaluatorINS_3MapINS_6MatrixIdLin1ELi1ELi0ELin1ELi1EEELi0ENS_6StrideILi0ELi0EEEEEEENS2_INS_9TransposeIKNS_5BlockIKNS4_IdLin1ELin1ELi0ELin1ELin1EEELi1ELin1ELb0EEEEEEENS0_9assign_opIddEELi0EE11assignCoeffEl, symObjAddr: 0x1264C, symBinAddr: 0x100014BF4, symSize: 0x64 }
  - { offsetInCU: 0x7487A, offset: 0x7487A, size: 0x8, addend: 0x0, symName: __ZN5Eigen8internal17mapbase_evaluatorINS_3MapINS_6MatrixIdLin1ELi1ELi0ELin1ELi1EEELi0ENS_6StrideILi0ELi0EEEEES4_E8coeffRefEl, symObjAddr: 0x126B0, symBinAddr: 0x100014C58, symSize: 0x48 }
  - { offsetInCU: 0x748AF, offset: 0x748AF, size: 0x8, addend: 0x0, symName: __ZNK5Eigen8internal15unary_evaluatorINS_9TransposeIKNS_5BlockIKNS_6MatrixIdLin1ELin1ELi0ELin1ELin1EEELi1ELin1ELb0EEEEENS0_10IndexBasedEdE5coeffEl, symObjAddr: 0x126F8, symBinAddr: 0x100014CA0, symSize: 0x2C }
  - { offsetInCU: 0x748E4, offset: 0x748E4, size: 0x8, addend: 0x0, symName: __ZNK5Eigen8internal17mapbase_evaluatorINS_5BlockIKNS_6MatrixIdLin1ELin1ELi0ELin1ELin1EEELi1ELin1ELb0EEENS3_IdLi1ELin1ELi1ELi1ELin1EEEE5coeffEl, symObjAddr: 0x12724, symBinAddr: 0x100014CCC, symSize: 0x4C }
  - { offsetInCU: 0x74919, offset: 0x74919, size: 0x8, addend: 0x0, symName: __ZN5Eigen8internal9evaluatorINS_3MapINS_6MatrixIdLin1ELi1ELi0ELin1ELi1EEELi0ENS_6StrideILi0ELi0EEEEEED2Ev, symObjAddr: 0x12770, symBinAddr: 0x100014D18, symSize: 0x2C }
  - { offsetInCU: 0x74946, offset: 0x74946, size: 0x8, addend: 0x0, symName: __ZN5Eigen8internal17mapbase_evaluatorINS_3MapINS_6MatrixIdLin1ELi1ELi0ELin1ELi1EEELi0ENS_6StrideILi0ELi0EEEEES4_ED2Ev, symObjAddr: 0x1279C, symBinAddr: 0x100014D44, symSize: 0x2C }
  - { offsetInCU: 0x74973, offset: 0x74973, size: 0x8, addend: 0x0, symName: __ZNK5Eigen8internal16blas_data_mapperIKdlLi1ELi0ELi1EE6strideEv, symObjAddr: 0x127C8, symBinAddr: 0x100014D70, symSize: 0x18 }
  - { offsetInCU: 0x74999, offset: 0x74999, size: 0x8, addend: 0x0, symName: __ZNK5Eigen9EigenBaseINS_9TransposeIKNS_6MatrixIdLin1ELin1ELi0ELin1ELin1EEEEEE7derivedEv, symObjAddr: 0x12830, symBinAddr: 0x100014DD8, symSize: 0x14 }
  - { offsetInCU: 0x749BF, offset: 0x749BF, size: 0x8, addend: 0x0, symName: __ZN5Eigen9EigenBaseINS_9TransposeINS_5BlockINS_6MatrixIdLin1ELin1ELi0ELin1ELin1EEELi1ELin1ELb0EEEEEE7derivedEv, symObjAddr: 0x12844, symBinAddr: 0x100014DEC, symSize: 0x14 }
  - { offsetInCU: 0x749E5, offset: 0x749E5, size: 0x8, addend: 0x0, symName: __ZN5Eigen9TransposeINS_5BlockINS_6MatrixIdLin1ELin1ELi0ELin1ELin1EEELi1ELin1ELb0EEEE16nestedExpressionEv, symObjAddr: 0x12858, symBinAddr: 0x100014E00, symSize: 0x14 }
  - { offsetInCU: 0x74A0B, offset: 0x74A0B, size: 0x8, addend: 0x0, symName: __ZN5Eigen7MapBaseINS_5BlockINS_6MatrixIdLin1ELin1ELi0ELin1ELin1EEELi1ELin1ELb0EEELi1EE4dataEv, symObjAddr: 0x1286C, symBinAddr: 0x100014E14, symSize: 0x18 }
  - { offsetInCU: 0x74A31, offset: 0x74A31, size: 0x8, addend: 0x0, symName: __ZN5Eigen5BlockINS_9TransposeINS0_INS_6MatrixIdLin1ELin1ELi0ELin1ELin1EEELi1ELin1ELb0EEEEELin1ELi1ELb1EEC1ERS5_l, symObjAddr: 0x12884, symBinAddr: 0x100014E2C, symSize: 0x3C }
  - { offsetInCU: 0x74A77, offset: 0x74A77, size: 0x8, addend: 0x0, symName: __ZN5Eigen5BlockINS_9TransposeINS0_INS_6MatrixIdLin1ELin1ELi0ELin1ELin1EEELi1ELin1ELb0EEEEELin1ELi1ELb1EEC2ERS5_l, symObjAddr: 0x128C0, symBinAddr: 0x100014E68, symSize: 0xAC }
  - { offsetInCU: 0x74ABD, offset: 0x74ABD, size: 0x8, addend: 0x0, symName: __ZN5Eigen9BlockImplINS_9TransposeINS_5BlockINS_6MatrixIdLin1ELin1ELi0ELin1ELin1EEELi1ELin1ELb0EEEEELin1ELi1ELb1ENS_5DenseEEC2ERS6_l, symObjAddr: 0x1296C, symBinAddr: 0x100014F14, symSize: 0x3C }
  - { offsetInCU: 0x74B03, offset: 0x74B03, size: 0x8, addend: 0x0, symName: __ZNK5Eigen9TransposeINS_5BlockINS_6MatrixIdLin1ELin1ELi0ELin1ELin1EEELi1ELin1ELb0EEEE4colsEv, symObjAddr: 0x129A8, symBinAddr: 0x100014F50, symSize: 0x24 }
  - { offsetInCU: 0x74B29, offset: 0x74B29, size: 0x8, addend: 0x0, symName: __ZN5Eigen8internal15BlockImpl_denseINS_9TransposeINS_5BlockINS_6MatrixIdLin1ELin1ELi0ELin1ELin1EEELi1ELin1ELb0EEEEELin1ELi1ELb1ELb1EEC2ERS7_l, symObjAddr: 0x129CC, symBinAddr: 0x100014F74, symSize: 0xB8 }
  - { offsetInCU: 0x74B71, offset: 0x74B71, size: 0x8, addend: 0x0, symName: __ZNK5Eigen13TransposeImplINS_5BlockINS_6MatrixIdLin1ELin1ELi0ELin1ELin1EEELi1ELin1ELb0EEENS_5DenseEE11outerStrideEv, symObjAddr: 0x12A84, symBinAddr: 0x10001502C, symSize: 0x2C }
  - { offsetInCU: 0x74B97, offset: 0x74B97, size: 0x8, addend: 0x0, symName: __ZNK5Eigen9TransposeINS_5BlockINS_6MatrixIdLin1ELin1ELi0ELin1ELin1EEELi1ELin1ELb0EEEE4rowsEv, symObjAddr: 0x12AB0, symBinAddr: 0x100015058, symSize: 0x24 }
  - { offsetInCU: 0x74BBD, offset: 0x74BBD, size: 0x8, addend: 0x0, symName: __ZN5Eigen7MapBaseINS_5BlockINS_9TransposeINS1_INS_6MatrixIdLin1ELin1ELi0ELin1ELin1EEELi1ELin1ELb0EEEEELin1ELi1ELb1EEELi1EEC2EPdll, symObjAddr: 0x12AD4, symBinAddr: 0x10001507C, symSize: 0x44 }
  - { offsetInCU: 0x74C14, offset: 0x74C14, size: 0x8, addend: 0x0, symName: __ZN5Eigen8internal15BlockImpl_denseINS_9TransposeINS_5BlockINS_6MatrixIdLin1ELin1ELi0ELin1ELin1EEELi1ELin1ELb0EEEEELin1ELi1ELb1ELb1EE4initEv, symObjAddr: 0x12B18, symBinAddr: 0x1000150C0, symSize: 0x34 }
  - { offsetInCU: 0x74C3A, offset: 0x74C3A, size: 0x8, addend: 0x0, symName: __ZNK5Eigen9EigenBaseINS_9TransposeINS_5BlockINS_6MatrixIdLin1ELin1ELi0ELin1ELin1EEELi1ELin1ELb0EEEEEE7derivedEv, symObjAddr: 0x12B4C, symBinAddr: 0x1000150F4, symSize: 0x14 }
  - { offsetInCU: 0x74C60, offset: 0x74C60, size: 0x8, addend: 0x0, symName: __ZNK5Eigen9TransposeINS_5BlockINS_6MatrixIdLin1ELin1ELi0ELin1ELin1EEELi1ELin1ELb0EEEE16nestedExpressionEv, symObjAddr: 0x12B60, symBinAddr: 0x100015108, symSize: 0x14 }
  - { offsetInCU: 0x74C86, offset: 0x74C86, size: 0x8, addend: 0x0, symName: __ZNK5Eigen7MapBaseINS_5BlockINS_6MatrixIdLin1ELin1ELi0ELin1ELin1EEELi1ELin1ELb0EEELi0EE4colsEv, symObjAddr: 0x12B74, symBinAddr: 0x10001511C, symSize: 0x28 }
  - { offsetInCU: 0x74CAC, offset: 0x74CAC, size: 0x8, addend: 0x0, symName: __ZN5Eigen7MapBaseINS_5BlockINS_9TransposeINS1_INS_6MatrixIdLin1ELin1ELi0ELin1ELin1EEELi1ELin1ELb0EEEEELin1ELi1ELb1EEELi0EEC2EPdll, symObjAddr: 0x12B9C, symBinAddr: 0x100015144, symSize: 0x11C }
  - { offsetInCU: 0x74D00, offset: 0x74D00, size: 0x8, addend: 0x0, symName: __ZN5Eigen10MatrixBaseINS_5BlockINS_9TransposeINS1_INS_6MatrixIdLin1ELin1ELi0ELin1ELin1EEELi1ELin1ELb0EEEEELin1ELi1ELb1EEEEC2Ev, symObjAddr: 0x12CB8, symBinAddr: 0x100015260, symSize: 0x2C }
  - { offsetInCU: 0x74D2A, offset: 0x74D2A, size: 0x8, addend: 0x0, symName: __ZNK5Eigen7MapBaseINS_5BlockINS_9TransposeINS1_INS_6MatrixIdLin1ELin1ELi0ELin1ELin1EEELi1ELin1ELb0EEEEELin1ELi1ELb1EEELi0EE11checkSanityIS7_EEvNS_8internal9enable_ifIXeqsr8internal6traitsIT_EE9AlignmentLi0EEPvE4typeE, symObjAddr: 0x12CE4, symBinAddr: 0x10001528C, symSize: 0x14 }
  - { offsetInCU: 0x74D64, offset: 0x74D64, size: 0x8, addend: 0x0, symName: __ZN5Eigen9DenseBaseINS_5BlockINS_9TransposeINS1_INS_6MatrixIdLin1ELin1ELi0ELin1ELin1EEELi1ELin1ELb0EEEEELin1ELi1ELb1EEEEC2Ev, symObjAddr: 0x12CF8, symBinAddr: 0x1000152A0, symSize: 0x14 }
  - { offsetInCU: 0x74D8E, offset: 0x74D8E, size: 0x8, addend: 0x0, symName: __ZNK5Eigen7MapBaseINS_5BlockINS_6MatrixIdLin1ELin1ELi0ELin1ELin1EEELi1ELin1ELb0EEELi0EE4rowsEv, symObjAddr: 0x12D0C, symBinAddr: 0x1000152B4, symSize: 0x20 }
  - { offsetInCU: 0x74DB4, offset: 0x74DB4, size: 0x8, addend: 0x0, symName: __ZNK5Eigen13TransposeImplINS_5BlockINS_6MatrixIdLin1ELin1ELi0ELin1ELin1EEELi1ELin1ELb0EEENS_5DenseEE11innerStrideEv, symObjAddr: 0x12D2C, symBinAddr: 0x1000152D4, symSize: 0x2C }
  - { offsetInCU: 0x74DDA, offset: 0x74DDA, size: 0x8, addend: 0x0, symName: __ZN5Eigen8internal28aligned_stack_memory_handlerIdED2Ev, symObjAddr: 0x12D58, symBinAddr: 0x100015300, symSize: 0x5C }
  - { offsetInCU: 0x74E04, offset: 0x74E04, size: 0x8, addend: 0x0, symName: __ZN5Eigen8internal11noncopyableD2Ev, symObjAddr: 0x12DB4, symBinAddr: 0x10001535C, symSize: 0x14 }
  - { offsetInCU: 0x74E2E, offset: 0x74E2E, size: 0x8, addend: 0x0, symName: __ZN5Eigen8internal19gemm_blocking_spaceILi0EddLin1ELin1ELin1ELi1ELb0EEC2Ellllb, symObjAddr: 0x12DC8, symBinAddr: 0x100015370, symSize: 0xDC }
  - { offsetInCU: 0x74EC0, offset: 0x74EC0, size: 0x8, addend: 0x0, symName: __ZN5Eigen8internal15level3_blockingIddEC2Ev, symObjAddr: 0x12EA4, symBinAddr: 0x10001544C, symSize: 0x28 }
  - { offsetInCU: 0x74EEA, offset: 0x74EEA, size: 0x8, addend: 0x0, symName: __ZN5Eigen8internal10CacheSizesC1Ev, symObjAddr: 0x138C8, symBinAddr: 0x100015E70, symSize: 0x2C }
  - { offsetInCU: 0x74F14, offset: 0x74F14, size: 0x8, addend: 0x0, symName: __ZN5Eigen8internal10CacheSizesC2Ev, symObjAddr: 0x138F4, symBinAddr: 0x100015E9C, symSize: 0x88 }
  - { offsetInCU: 0x74F76, offset: 0x74F76, size: 0x8, addend: 0x0, symName: __ZNK5Eigen8internal12gemm_functorIdlNS0_29general_matrix_matrix_productIldLi0ELb0EdLi0ELb0ELi0ELi1EEENS_6MatrixIdLin1ELin1ELi0ELin1ELin1EEES5_S5_NS0_19gemm_blocking_spaceILi0EddLin1ELin1ELin1ELi1ELb0EEEEclEllllPNS0_16GemmParallelInfoIlEE, symObjAddr: 0x13A84, symBinAddr: 0x10001602C, symSize: 0x158 }
  - { offsetInCU: 0x750F7, offset: 0x750F7, size: 0x8, addend: 0x0, symName: __ZN5Eigen8internal29general_matrix_matrix_productIldLi0ELb0EdLi0ELb0ELi0ELi1EE3runElllPKdlS4_lPdlldRNS0_15level3_blockingIddEEPNS0_16GemmParallelInfoIlEE, symObjAddr: 0x13BDC, symBinAddr: 0x100016184, symSize: 0xBAC }
  - { offsetInCU: 0x75810, offset: 0x75810, size: 0x8, addend: 0x0, symName: __ZNK5Eigen15PlainObjectBaseINS_6MatrixIdLin1ELin1ELi0ELin1ELin1EEEE8coeffRefEll, symObjAddr: 0x14788, symBinAddr: 0x100016D30, symSize: 0x6C }
  - { offsetInCU: 0x75852, offset: 0x75852, size: 0x8, addend: 0x0, symName: __ZN5Eigen15PlainObjectBaseINS_6MatrixIdLin1ELin1ELi0ELin1ELin1EEEE8coeffRefEll, symObjAddr: 0x147F4, symBinAddr: 0x100016D9C, symSize: 0x6C }
  - { offsetInCU: 0x75894, offset: 0x75894, size: 0x8, addend: 0x0, symName: __ZNK5Eigen8internal15level3_blockingIddE2kcEv, symObjAddr: 0x14860, symBinAddr: 0x100016E08, symSize: 0x18 }
  - { offsetInCU: 0x758BA, offset: 0x758BA, size: 0x8, addend: 0x0, symName: __ZNK5Eigen8internal15level3_blockingIddE2mcEv, symObjAddr: 0x14878, symBinAddr: 0x100016E20, symSize: 0x18 }
  - { offsetInCU: 0x758E0, offset: 0x758E0, size: 0x8, addend: 0x0, symName: __ZNK5Eigen8internal15level3_blockingIddE2ncEv, symObjAddr: 0x14890, symBinAddr: 0x100016E38, symSize: 0x18 }
  - { offsetInCU: 0x75906, offset: 0x75906, size: 0x8, addend: 0x0, symName: __ZN5Eigen8internal15level3_blockingIddE6blockAEv, symObjAddr: 0x148B8, symBinAddr: 0x100016E60, symSize: 0x18 }
  - { offsetInCU: 0x7592C, offset: 0x7592C, size: 0x8, addend: 0x0, symName: __ZN5Eigen8internal15level3_blockingIddE6blockBEv, symObjAddr: 0x148D0, symBinAddr: 0x100016E78, symSize: 0x18 }
  - { offsetInCU: 0x75A47, offset: 0x75A47, size: 0x8, addend: 0x0, symName: __ZN5Eigen8internal13gemm_pack_rhsIdlNS0_22const_blas_data_mapperIdlLi0EEELi4ELi0ELb0ELb0EEclEPdRKS3_llll, symObjAddr: 0x15024, symBinAddr: 0x1000175CC, symSize: 0x710 }
  - { offsetInCU: 0x761BC, offset: 0x761BC, size: 0x8, addend: 0x0, symName: __ZNK5Eigen8internal7conj_ifILb0EEclIdEERKT_S6_, symObjAddr: 0x1AB3C, symBinAddr: 0x10001D0E4, symSize: 0x18 }
  - { offsetInCU: 0x761F9, offset: 0x761F9, size: 0x8, addend: 0x0, symName: __ZN5Eigen8internal11gebp_traitsIddLb0ELb0ELi0ELi0EE7initAccER19__simd128_float64_t, symObjAddr: 0x1AB6C, symBinAddr: 0x10001D114, symSize: 0x38 }
  - { offsetInCU: 0x76238, offset: 0x76238, size: 0x8, addend: 0x0, symName: __ZNK5Eigen8internal11gebp_traitsIddLb0ELb0ELi0ELi0EE7loadLhsI19__simd128_float64_tEEvPKdRT_, symObjAddr: 0x1ABA4, symBinAddr: 0x10001D14C, symSize: 0x34 }
  - { offsetInCU: 0x762B7, offset: 0x762B7, size: 0x8, addend: 0x0, symName: __ZNK5Eigen8internal11gebp_traitsIddLb0ELb0ELi4ELi0EE7loadRhsEPKdRNS2_11RhsPacketx4E, symObjAddr: 0x1ABD8, symBinAddr: 0x10001D180, symSize: 0x58 }
  - { offsetInCU: 0x76334, offset: 0x76334, size: 0x8, addend: 0x0, symName: __ZNK5Eigen8internal11gebp_traitsIddLb0ELb0ELi4ELi0EE4maddERK19__simd128_float64_tRKNS2_11RhsPacketx4ERS3_RdRKNS0_8FixedIntILi0EEE, symObjAddr: 0x1AC30, symBinAddr: 0x10001D1D8, symSize: 0x44 }
  - { offsetInCU: 0x7639A, offset: 0x7639A, size: 0x8, addend: 0x0, symName: __ZNK5Eigen8internal11gebp_traitsIddLb0ELb0ELi4ELi0EE9updateRhsEPKdRNS2_11RhsPacketx4E, symObjAddr: 0x1AC74, symBinAddr: 0x10001D21C, symSize: 0x18 }
  - { offsetInCU: 0x763D6, offset: 0x763D6, size: 0x8, addend: 0x0, symName: __ZNK5Eigen8internal11gebp_traitsIddLb0ELb0ELi4ELi0EE4maddERK19__simd128_float64_tRKNS2_11RhsPacketx4ERS3_RdRKNS0_8FixedIntILi1EEE, symObjAddr: 0x1AC8C, symBinAddr: 0x10001D234, symSize: 0x44 }
  - { offsetInCU: 0x7643C, offset: 0x7643C, size: 0x8, addend: 0x0, symName: __ZNK5Eigen8internal11gebp_traitsIddLb0ELb0ELi4ELi0EE4maddERK19__simd128_float64_tRKNS2_11RhsPacketx4ERS3_RdRKNS0_8FixedIntILi2EEE, symObjAddr: 0x1ACD0, symBinAddr: 0x10001D278, symSize: 0x44 }
  - { offsetInCU: 0x764A2, offset: 0x764A2, size: 0x8, addend: 0x0, symName: __ZNK5Eigen8internal11gebp_traitsIddLb0ELb0ELi4ELi0EE4maddERK19__simd128_float64_tRKNS2_11RhsPacketx4ERS3_RdRKNS0_8FixedIntILi3EEE, symObjAddr: 0x1AD14, symBinAddr: 0x10001D2BC, symSize: 0x44 }
  - { offsetInCU: 0x76508, offset: 0x76508, size: 0x8, addend: 0x0, symName: __ZNK5Eigen8internal11gebp_traitsIddLb0ELb0ELi0ELi0EE3accERK19__simd128_float64_tS5_RS3_, symObjAddr: 0x1AD58, symBinAddr: 0x10001D300, symSize: 0x40 }
  - { offsetInCU: 0x7655B, offset: 0x7655B, size: 0x8, addend: 0x0, symName: __ZNK5Eigen8internal11gebp_traitsIddLb0ELb0ELi4ELi0EE7loadRhsEPKdRd, symObjAddr: 0x1AD98, symBinAddr: 0x10001D340, symSize: 0x28 }
  - { offsetInCU: 0x7659D, offset: 0x7659D, size: 0x8, addend: 0x0, symName: __ZNK5Eigen8internal11gebp_traitsIddLb0ELb0ELi4ELi0EE4maddERK19__simd128_float64_tRKdRS3_RdRKNS0_8FixedIntILi0EEE, symObjAddr: 0x1ADC0, symBinAddr: 0x10001D368, symSize: 0xA4 }
  - { offsetInCU: 0x76612, offset: 0x76612, size: 0x8, addend: 0x0, symName: __ZN5Eigen8internal22lhs_process_one_packetILi4ELl2ELl1Eddd19__simd128_float64_tS2_dS2_NS0_11gebp_traitsIddLb0ELb0ELi4ELi0EEENS0_16BlasLinearMapperIdlLi0ELi1EEENS0_16blas_data_mapperIdlLi0ELi0ELi1EEEEclERKS8_PKdSD_dllllllilllll, symObjAddr: 0x1AE64, symBinAddr: 0x10001D40C, symSize: 0x1134 }
  - { offsetInCU: 0x77280, offset: 0x77280, size: 0x8, addend: 0x0, symName: __ZNK5Eigen8internal11conj_helperIddLb0ELb0EE5pmaddERKdS4_S4_, symObjAddr: 0x1BF98, symBinAddr: 0x10001E540, symSize: 0x54 }
  - { offsetInCU: 0x772D0, offset: 0x772D0, size: 0x8, addend: 0x0, symName: __ZNK5Eigen8internal11gebp_traitsIddLb0ELb0ELi4ELi0EE11madd_helperILi0EEEvRK19__simd128_float64_tRKNS2_11RhsPacketx4ERS4_, symObjAddr: 0x1C014, symBinAddr: 0x10001E5BC, symSize: 0x68 }
  - { offsetInCU: 0x77375, offset: 0x77375, size: 0x8, addend: 0x0, symName: __ZNK5Eigen8internal11gebp_traitsIddLb0ELb0ELi4ELi0EE11madd_helperILi1EEEvRK19__simd128_float64_tRKNS2_11RhsPacketx4ERS4_, symObjAddr: 0x1C07C, symBinAddr: 0x10001E624, symSize: 0x68 }
  - { offsetInCU: 0x7741A, offset: 0x7741A, size: 0x8, addend: 0x0, symName: __ZNK5Eigen8internal11gebp_traitsIddLb0ELb0ELi4ELi0EE11madd_helperILi2EEEvRK19__simd128_float64_tRKNS2_11RhsPacketx4ERS4_, symObjAddr: 0x1C0E4, symBinAddr: 0x10001E68C, symSize: 0x68 }
  - { offsetInCU: 0x774BF, offset: 0x774BF, size: 0x8, addend: 0x0, symName: __ZNK5Eigen8internal11gebp_traitsIddLb0ELb0ELi4ELi0EE11madd_helperILi3EEEvRK19__simd128_float64_tRKNS2_11RhsPacketx4ERS4_, symObjAddr: 0x1C14C, symBinAddr: 0x10001E6F4, symSize: 0x68 }
  - { offsetInCU: 0x77564, offset: 0x77564, size: 0x8, addend: 0x0, symName: __ZN5Eigen8internal22lhs_process_one_packetILi4ELl2ELl1Eddd19__simd128_float64_tS2_dS2_NS0_11gebp_traitsIddLb0ELb0ELi4ELi0EEENS0_16BlasLinearMapperIdlLi0ELi1EEENS0_16blas_data_mapperIdlLi0ELi0ELi1EEEE17peeled_kc_onestepElPKdSB_S4_PS2_PNS4_11RhsPacketx4EPdSC_SC_SC_SC_, symObjAddr: 0x1C1B4, symBinAddr: 0x10001E75C, symSize: 0x124 }
  - { offsetInCU: 0x7762F, offset: 0x7762F, size: 0x8, addend: 0x0, symName: __ZNK5Eigen8internal11gebp_traitsIddLb0ELb0ELi0ELi0EE16loadLhsUnalignedI19__simd128_float64_tEEvPKdRT_, symObjAddr: 0x1C318, symBinAddr: 0x10001E8C0, symSize: 0x34 }
  - { offsetInCU: 0x7767C, offset: 0x7767C, size: 0x8, addend: 0x0, symName: __ZNK5Eigen12DenseStorageIdLin1ELin1ELin1ELi0EE4rowsEv, symObjAddr: 0x1C3B4, symBinAddr: 0x10001E95C, symSize: 0x18 }
  - { offsetInCU: 0x776A2, offset: 0x776A2, size: 0x8, addend: 0x0, symName: __ZN5Eigen8internal12gemm_functorIdlNS0_29general_matrix_matrix_productIldLi0ELb0EdLi0ELb0ELi0ELi1EEENS_6MatrixIdLin1ELin1ELi0ELin1ELin1EEES5_S5_NS0_19gemm_blocking_spaceILi0EddLin1ELin1ELin1ELi1ELb0EEEEC2ERKS5_SA_RS5_RKdRS7_, symObjAddr: 0x1C3CC, symBinAddr: 0x10001E974, symSize: 0x54 }
  - { offsetInCU: 0x77712, offset: 0x77712, size: 0x8, addend: 0x0, symName: __ZN5Eigen8internal19gemm_blocking_spaceILi0EddLin1ELin1ELin1ELi1ELb0EED2Ev, symObjAddr: 0x1C420, symBinAddr: 0x10001E9C8, symSize: 0x50 }
  - { offsetInCU: 0x7773C, offset: 0x7773C, size: 0x8, addend: 0x0, symName: __ZN5Eigen8internal9evaluatorINS_15PlainObjectBaseINS_6MatrixIdLin1ELin1ELi0ELin1ELin1EEEEEED2Ev, symObjAddr: 0x1C4F8, symBinAddr: 0x10001EAA0, symSize: 0x2C }
  - { offsetInCU: 0x77768, offset: 0x77768, size: 0x8, addend: 0x0, symName: __ZN5Eigen8internal9evaluatorIKNS_6MatrixIdLin1ELin1ELi0ELin1ELin1EEEEC2ERS4_, symObjAddr: 0x1C524, symBinAddr: 0x10001EACC, symSize: 0x34 }
  - { offsetInCU: 0x777A0, offset: 0x777A0, size: 0x8, addend: 0x0, symName: __ZN5Eigen8internal9evaluatorINS_6MatrixIdLin1ELin1ELi0ELin1ELin1EEEEC2ERKS3_, symObjAddr: 0x1C558, symBinAddr: 0x10001EB00, symSize: 0x34 }
  - { offsetInCU: 0x777D9, offset: 0x777D9, size: 0x8, addend: 0x0, symName: __ZN5Eigen8internal9evaluatorINS_15PlainObjectBaseINS_6MatrixIdLin1ELin1ELi0ELin1ELin1EEEEEEC2ERKS5_, symObjAddr: 0x1C58C, symBinAddr: 0x10001EB34, symSize: 0x80 }
  - { offsetInCU: 0x77811, offset: 0x77811, size: 0x8, addend: 0x0, symName: __ZNK5Eigen15DenseCoeffsBaseINS_6MatrixIdLin1ELin1ELi0ELin1ELin1EEELi3EE11outerStrideEv, symObjAddr: 0x1C60C, symBinAddr: 0x10001EBB4, symSize: 0x28 }
  - { offsetInCU: 0x77837, offset: 0x77837, size: 0x8, addend: 0x0, symName: __ZN5Eigen8internal9evaluatorIKNS_7ProductINS_6MatrixIdLin1ELin1ELi0ELin1ELin1EEES4_Li0EEEED2Ev, symObjAddr: 0x1C634, symBinAddr: 0x10001EBDC, symSize: 0x2C }
  - { offsetInCU: 0x77863, offset: 0x77863, size: 0x8, addend: 0x0, symName: __ZN5Eigen8internal9evaluatorINS_7ProductINS_6MatrixIdLin1ELin1ELi0ELin1ELin1EEES4_Li0EEEED2Ev, symObjAddr: 0x1C660, symBinAddr: 0x10001EC08, symSize: 0x2C }
  - { offsetInCU: 0x7788F, offset: 0x7788F, size: 0x8, addend: 0x0, symName: __ZN5Eigen8internal17product_evaluatorINS_7ProductINS_6MatrixIdLin1ELin1ELi0ELin1ELin1EEES4_Li0EEELi8ENS_10DenseShapeES6_ddED2Ev, symObjAddr: 0x1C68C, symBinAddr: 0x10001EC34, symSize: 0x38 }
  - { offsetInCU: 0x778BB, offset: 0x778BB, size: 0x8, addend: 0x0, symName: __ZN5Eigen8internal31generic_dense_assignment_kernelINS0_9evaluatorINS_6MatrixIdLin1ELin1ELi0ELin1ELin1EEEEENS2_INS_13CwiseBinaryOpINS0_13scalar_sum_opIddEEKNS_7ProductIS4_S4_Li0EEEKS4_EEEENS0_9assign_opIddEELi0EEC2ERS5_RKSE_RKSG_RS4_, symObjAddr: 0x1C6C4, symBinAddr: 0x10001EC6C, symSize: 0x44 }
  - { offsetInCU: 0x77921, offset: 0x77921, size: 0x8, addend: 0x0, symName: __ZNK5Eigen8internal31generic_dense_assignment_kernelINS0_9evaluatorINS_6MatrixIdLin1ELin1ELi0ELin1ELin1EEEEENS2_INS_13CwiseBinaryOpINS0_13scalar_sum_opIddEEKNS_7ProductIS4_S4_Li0EEEKS4_EEEENS0_9assign_opIddEELi0EE4sizeEv, symObjAddr: 0x1C708, symBinAddr: 0x10001ECB0, symSize: 0x28 }
  - { offsetInCU: 0x77947, offset: 0x77947, size: 0x8, addend: 0x0, symName: __ZN5Eigen8internal31unaligned_dense_assignment_loopILb1EE3runINS0_31generic_dense_assignment_kernelINS0_9evaluatorINS_6MatrixIdLin1ELin1ELi0ELin1ELin1EEEEENS5_INS_13CwiseBinaryOpINS0_13scalar_sum_opIddEEKNS_7ProductIS7_S7_Li0EEEKS7_EEEENS0_9assign_opIddEELi0EEEEEvRT_ll, symObjAddr: 0x1C730, symBinAddr: 0x10001ECD8, symSize: 0x18 }
  - { offsetInCU: 0x77986, offset: 0x77986, size: 0x8, addend: 0x0, symName: __ZN5Eigen8internal31generic_dense_assignment_kernelINS0_9evaluatorINS_6MatrixIdLin1ELin1ELi0ELin1ELin1EEEEENS2_INS_13CwiseBinaryOpINS0_13scalar_sum_opIddEEKNS_7ProductIS4_S4_Li0EEEKS4_EEEENS0_9assign_opIddEELi0EE12assignPacketILi16ELi16E19__simd128_float64_tEEvl, symObjAddr: 0x1C748, symBinAddr: 0x10001ECF0, symSize: 0x64 }
  - { offsetInCU: 0x779D8, offset: 0x779D8, size: 0x8, addend: 0x0, symName: __ZN5Eigen8internal31unaligned_dense_assignment_loopILb0EE3runINS0_31generic_dense_assignment_kernelINS0_9evaluatorINS_6MatrixIdLin1ELin1ELi0ELin1ELin1EEEEENS5_INS_13CwiseBinaryOpINS0_13scalar_sum_opIddEEKNS_7ProductIS7_S7_Li0EEEKS7_EEEENS0_9assign_opIddEELi0EEEEEvRT_ll, symObjAddr: 0x1C7AC, symBinAddr: 0x10001ED54, symSize: 0x68 }
  - { offsetInCU: 0x77A40, offset: 0x77A40, size: 0x8, addend: 0x0, symName: __ZN5Eigen8internal9evaluatorINS_15PlainObjectBaseINS_6MatrixIdLin1ELin1ELi0ELin1ELin1EEEEEE8coeffRefEl, symObjAddr: 0x1C814, symBinAddr: 0x10001EDBC, symSize: 0x24 }
  - { offsetInCU: 0x77A74, offset: 0x77A74, size: 0x8, addend: 0x0, symName: __ZNK5Eigen8internal16binary_evaluatorINS_13CwiseBinaryOpINS0_13scalar_sum_opIddEEKNS_7ProductINS_6MatrixIdLin1ELin1ELi0ELin1ELin1EEES7_Li0EEEKS7_EENS0_10IndexBasedESC_ddE6packetILi16E19__simd128_float64_tEET0_l, symObjAddr: 0x1C838, symBinAddr: 0x10001EDE0, symSize: 0x70 }
  - { offsetInCU: 0x77ABC, offset: 0x77ABC, size: 0x8, addend: 0x0, symName: __ZNK5Eigen8internal16binary_evaluatorINS_13CwiseBinaryOpINS0_13scalar_sum_opIddEEKNS_7ProductINS_6MatrixIdLin1ELin1ELi0ELin1ELin1EEES7_Li0EEEKS7_EENS0_10IndexBasedESC_ddE4Data4funcEv, symObjAddr: 0x1C8A8, symBinAddr: 0x10001EE50, symSize: 0x14 }
  - { offsetInCU: 0x77AE2, offset: 0x77AE2, size: 0x8, addend: 0x0, symName: __ZNK5Eigen8internal13scalar_sum_opIddE8packetOpI19__simd128_float64_tEET_RKS5_S7_, symObjAddr: 0x1C8BC, symBinAddr: 0x10001EE64, symSize: 0x30 }
  - { offsetInCU: 0x77B2D, offset: 0x77B2D, size: 0x8, addend: 0x0, symName: __ZNK5Eigen8internal9evaluatorINS_15PlainObjectBaseINS_6MatrixIdLin1ELin1ELi0ELin1ELin1EEEEEE6packetILi16E19__simd128_float64_tEET0_l, symObjAddr: 0x1C8EC, symBinAddr: 0x10001EE94, symSize: 0x3C }
  - { offsetInCU: 0x77B91, offset: 0x77B91, size: 0x8, addend: 0x0, symName: __ZN5Eigen8internal31generic_dense_assignment_kernelINS0_9evaluatorINS_6MatrixIdLin1ELin1ELi0ELin1ELin1EEEEENS2_INS_13CwiseBinaryOpINS0_13scalar_sum_opIddEEKNS_7ProductIS4_S4_Li0EEEKS4_EEEENS0_9assign_opIddEELi0EE11assignCoeffEl, symObjAddr: 0x1C928, symBinAddr: 0x10001EED0, symSize: 0x64 }
  - { offsetInCU: 0x77BC6, offset: 0x77BC6, size: 0x8, addend: 0x0, symName: __ZNK5Eigen8internal16binary_evaluatorINS_13CwiseBinaryOpINS0_13scalar_sum_opIddEEKNS_7ProductINS_6MatrixIdLin1ELin1ELi0ELin1ELin1EEES7_Li0EEEKS7_EENS0_10IndexBasedESC_ddE5coeffEl, symObjAddr: 0x1C98C, symBinAddr: 0x10001EF34, symSize: 0x64 }
  - { offsetInCU: 0x77BFB, offset: 0x77BFB, size: 0x8, addend: 0x0, symName: __ZNK5Eigen8internal9evaluatorINS_15PlainObjectBaseINS_6MatrixIdLin1ELin1ELi0ELin1ELin1EEEEEE5coeffEl, symObjAddr: 0x1C9F0, symBinAddr: 0x10001EF98, symSize: 0x24 }
  - { offsetInCU: 0x77C2F, offset: 0x77C2F, size: 0x8, addend: 0x0, symName: __ZN5Eigen8internal9evaluatorINS_13CwiseBinaryOpINS0_13scalar_sum_opIddEEKNS_7ProductINS_6MatrixIdLin1ELin1ELi0ELin1ELin1EEES7_Li0EEEKS7_EEED2Ev, symObjAddr: 0x1CA14, symBinAddr: 0x10001EFBC, symSize: 0x2C }
  - { offsetInCU: 0x77C5C, offset: 0x77C5C, size: 0x8, addend: 0x0, symName: __ZN5Eigen8internal16binary_evaluatorINS_13CwiseBinaryOpINS0_13scalar_sum_opIddEEKNS_7ProductINS_6MatrixIdLin1ELin1ELi0ELin1ELin1EEES7_Li0EEEKS7_EENS0_10IndexBasedESC_ddED2Ev, symObjAddr: 0x1CA40, symBinAddr: 0x10001EFE8, symSize: 0x34 }
  - { offsetInCU: 0x77C88, offset: 0x77C88, size: 0x8, addend: 0x0, symName: __ZN5Eigen8internal16binary_evaluatorINS_13CwiseBinaryOpINS0_13scalar_sum_opIddEEKNS_7ProductINS_6MatrixIdLin1ELin1ELi0ELin1ELin1EEES7_Li0EEEKS7_EENS0_10IndexBasedESC_ddE4DataD1Ev, symObjAddr: 0x1CA74, symBinAddr: 0x10001F01C, symSize: 0x2C }
  - { offsetInCU: 0x77CB5, offset: 0x77CB5, size: 0x8, addend: 0x0, symName: __ZN5Eigen8internal16binary_evaluatorINS_13CwiseBinaryOpINS0_13scalar_sum_opIddEEKNS_7ProductINS_6MatrixIdLin1ELin1ELi0ELin1ELin1EEES7_Li0EEEKS7_EENS0_10IndexBasedESC_ddE4DataD2Ev, symObjAddr: 0x1CAA0, symBinAddr: 0x10001F048, symSize: 0x3C }
  - { offsetInCU: 0x77CE2, offset: 0x77CE2, size: 0x8, addend: 0x0, symName: __ZN5Eigen8internal9evaluatorIKNS_6MatrixIdLin1ELin1ELi0ELin1ELin1EEEED1Ev, symObjAddr: 0x1CADC, symBinAddr: 0x10001F084, symSize: 0x2C }
  - { offsetInCU: 0x77D0E, offset: 0x77D0E, size: 0x8, addend: 0x0, symName: __ZN5Eigen8internal9evaluatorIKNS_6MatrixIdLin1ELin1ELi0ELin1ELin1EEEED2Ev, symObjAddr: 0x1CB08, symBinAddr: 0x10001F0B0, symSize: 0x2C }
  - { offsetInCU: 0x77D3A, offset: 0x77D3A, size: 0x8, addend: 0x0, symName: __ZN5Eigen8internal9assign_opIddEC2Ev, symObjAddr: 0x1CB34, symBinAddr: 0x10001F0DC, symSize: 0x14 }
  - { offsetInCU: 0x77D64, offset: 0x77D64, size: 0x8, addend: 0x0, symName: __ZNK5Eigen10MatrixBaseINS_6MatrixIdLin1ELin1ELi0ELin1ELin1EEEE8cwiseMaxERKd, symObjAddr: 0x1CB48, symBinAddr: 0x10001F0F0, symSize: 0x6C }
  - { offsetInCU: 0x77D9D, offset: 0x77D9D, size: 0x8, addend: 0x0, symName: __ZN5Eigen6MatrixIdLin1ELin1ELi0ELin1ELin1EEC1INS_13CwiseBinaryOpINS_8internal13scalar_max_opIddLi0EEEKS1_KNS_14CwiseNullaryOpINS4_18scalar_constant_opIdEES1_EEEEEERKNS_9EigenBaseIT_EE, symObjAddr: 0x1CBB4, symBinAddr: 0x10001F15C, symSize: 0x34 }
  - { offsetInCU: 0x77DDF, offset: 0x77DDF, size: 0x8, addend: 0x0, symName: __ZNK5Eigen10MatrixBaseINS_6MatrixIdLin1ELin1ELi0ELin1ELin1EEEE8cwiseMaxINS_14CwiseNullaryOpINS_8internal18scalar_constant_opIdEES2_EEEEKNS_13CwiseBinaryOpINS6_13scalar_max_opIddLi0EEEKS2_KT_EERKNS0_ISE_EE, symObjAddr: 0x1CBE8, symBinAddr: 0x10001F190, symSize: 0x60 }
  - { offsetInCU: 0x77E1C, offset: 0x77E1C, size: 0x8, addend: 0x0, symName: __ZN5Eigen8internal13scalar_max_opIddLi0EEC1Ev, symObjAddr: 0x1CC48, symBinAddr: 0x10001F1F0, symSize: 0x2C }
  - { offsetInCU: 0x77E46, offset: 0x77E46, size: 0x8, addend: 0x0, symName: __ZN5Eigen13CwiseBinaryOpINS_8internal13scalar_max_opIddLi0EEEKNS_6MatrixIdLin1ELin1ELi0ELin1ELin1EEEKNS_14CwiseNullaryOpINS1_18scalar_constant_opIdEES5_EEEC1ERS6_RSB_RKS3_, symObjAddr: 0x1CC74, symBinAddr: 0x10001F21C, symSize: 0x44 }
  - { offsetInCU: 0x77E9A, offset: 0x77E9A, size: 0x8, addend: 0x0, symName: __ZN5Eigen8internal13scalar_max_opIddLi0EEC2Ev, symObjAddr: 0x1CCB8, symBinAddr: 0x10001F260, symSize: 0x14 }
  - { offsetInCU: 0x77EC4, offset: 0x77EC4, size: 0x8, addend: 0x0, symName: __ZN5Eigen13CwiseBinaryOpINS_8internal13scalar_max_opIddLi0EEEKNS_6MatrixIdLin1ELin1ELi0ELin1ELin1EEEKNS_14CwiseNullaryOpINS1_18scalar_constant_opIdEES5_EEEC2ERS6_RSB_RKS3_, symObjAddr: 0x1CCCC, symBinAddr: 0x10001F274, symSize: 0xF8 }
  - { offsetInCU: 0x77F1D, offset: 0x77F1D, size: 0x8, addend: 0x0, symName: __ZN5Eigen17CwiseBinaryOpImplINS_8internal13scalar_max_opIddLi0EEEKNS_6MatrixIdLin1ELin1ELi0ELin1ELin1EEEKNS_14CwiseNullaryOpINS1_18scalar_constant_opIdEES5_EENS_5DenseEEC2Ev, symObjAddr: 0x1CDC4, symBinAddr: 0x10001F36C, symSize: 0x2C }
  - { offsetInCU: 0x77F49, offset: 0x77F49, size: 0x8, addend: 0x0, symName: __ZN5Eigen14CwiseNullaryOpINS_8internal18scalar_constant_opIdEENS_6MatrixIdLin1ELin1ELi0ELin1ELin1EEEEC1ERKS6_, symObjAddr: 0x1CDF0, symBinAddr: 0x10001F398, symSize: 0x34 }
  - { offsetInCU: 0x77F7E, offset: 0x77F7E, size: 0x8, addend: 0x0, symName: __ZN5Eigen8internal13scalar_max_opIddLi0EEC1ERKS2_, symObjAddr: 0x1CE24, symBinAddr: 0x10001F3CC, symSize: 0x34 }
  - { offsetInCU: 0x77FB3, offset: 0x77FB3, size: 0x8, addend: 0x0, symName: __ZN5Eigen10MatrixBaseINS_13CwiseBinaryOpINS_8internal13scalar_max_opIddLi0EEEKNS_6MatrixIdLin1ELin1ELi0ELin1ELin1EEEKNS_14CwiseNullaryOpINS2_18scalar_constant_opIdEES6_EEEEEC2Ev, symObjAddr: 0x1CE58, symBinAddr: 0x10001F400, symSize: 0x2C }
  - { offsetInCU: 0x77FDD, offset: 0x77FDD, size: 0x8, addend: 0x0, symName: __ZN5Eigen9DenseBaseINS_13CwiseBinaryOpINS_8internal13scalar_max_opIddLi0EEEKNS_6MatrixIdLin1ELin1ELi0ELin1ELin1EEEKNS_14CwiseNullaryOpINS2_18scalar_constant_opIdEES6_EEEEEC2Ev, symObjAddr: 0x1CE84, symBinAddr: 0x10001F42C, symSize: 0x14 }
  - { offsetInCU: 0x78007, offset: 0x78007, size: 0x8, addend: 0x0, symName: __ZN5Eigen14CwiseNullaryOpINS_8internal18scalar_constant_opIdEENS_6MatrixIdLin1ELin1ELi0ELin1ELin1EEEEC2ERKS6_, symObjAddr: 0x1CE98, symBinAddr: 0x10001F440, symSize: 0x48 }
  - { offsetInCU: 0x7803C, offset: 0x7803C, size: 0x8, addend: 0x0, symName: __ZN5Eigen8internal13scalar_max_opIddLi0EEC2ERKS2_, symObjAddr: 0x1CEE0, symBinAddr: 0x10001F488, symSize: 0x18 }
  - { offsetInCU: 0x78071, offset: 0x78071, size: 0x8, addend: 0x0, symName: __ZN5Eigen6MatrixIdLin1ELin1ELi0ELin1ELin1EEC2INS_13CwiseBinaryOpINS_8internal13scalar_max_opIddLi0EEEKS1_KNS_14CwiseNullaryOpINS4_18scalar_constant_opIdEES1_EEEEEERKNS_9EigenBaseIT_EE, symObjAddr: 0x1CEF8, symBinAddr: 0x10001F4A0, symSize: 0x40 }
  - { offsetInCU: 0x780B3, offset: 0x780B3, size: 0x8, addend: 0x0, symName: __ZNK5Eigen9EigenBaseINS_13CwiseBinaryOpINS_8internal13scalar_max_opIddLi0EEEKNS_6MatrixIdLin1ELin1ELi0ELin1ELin1EEEKNS_14CwiseNullaryOpINS2_18scalar_constant_opIdEES6_EEEEE7derivedEv, symObjAddr: 0x1CF38, symBinAddr: 0x10001F4E0, symSize: 0x14 }
  - { offsetInCU: 0x780D9, offset: 0x780D9, size: 0x8, addend: 0x0, symName: __ZN5Eigen15PlainObjectBaseINS_6MatrixIdLin1ELin1ELi0ELin1ELin1EEEEC2INS_13CwiseBinaryOpINS_8internal13scalar_max_opIddLi0EEEKS2_KNS_14CwiseNullaryOpINS6_18scalar_constant_opIdEES2_EEEEEERKNS_9DenseBaseIT_EE, symObjAddr: 0x1CF4C, symBinAddr: 0x10001F4F4, symSize: 0x80 }
  - { offsetInCU: 0x7811B, offset: 0x7811B, size: 0x8, addend: 0x0, symName: __ZN5Eigen15PlainObjectBaseINS_6MatrixIdLin1ELin1ELi0ELin1ELin1EEEE10resizeLikeINS_13CwiseBinaryOpINS_8internal13scalar_max_opIddLi0EEEKS2_KNS_14CwiseNullaryOpINS6_18scalar_constant_opIdEES2_EEEEEEvRKNS_9EigenBaseIT_EE, symObjAddr: 0x1CFCC, symBinAddr: 0x10001F574, symSize: 0x11C }
  - { offsetInCU: 0x781AF, offset: 0x781AF, size: 0x8, addend: 0x0, symName: __ZN5Eigen15PlainObjectBaseINS_6MatrixIdLin1ELin1ELi0ELin1ELin1EEEE12_set_noaliasINS_13CwiseBinaryOpINS_8internal13scalar_max_opIddLi0EEEKS2_KNS_14CwiseNullaryOpINS6_18scalar_constant_opIdEES2_EEEEEERS2_RKNS_9DenseBaseIT_EE, symObjAddr: 0x1D0E8, symBinAddr: 0x10001F690, symSize: 0x60 }
  - { offsetInCU: 0x781ED, offset: 0x781ED, size: 0x8, addend: 0x0, symName: __ZNK5Eigen13CwiseBinaryOpINS_8internal13scalar_max_opIddLi0EEEKNS_6MatrixIdLin1ELin1ELi0ELin1ELin1EEEKNS_14CwiseNullaryOpINS1_18scalar_constant_opIdEES5_EEE4rowsEv, symObjAddr: 0x1D148, symBinAddr: 0x10001F6F0, symSize: 0x28 }
  - { offsetInCU: 0x78213, offset: 0x78213, size: 0x8, addend: 0x0, symName: __ZNK5Eigen13CwiseBinaryOpINS_8internal13scalar_max_opIddLi0EEEKNS_6MatrixIdLin1ELin1ELi0ELin1ELin1EEEKNS_14CwiseNullaryOpINS1_18scalar_constant_opIdEES5_EEE4colsEv, symObjAddr: 0x1D170, symBinAddr: 0x10001F718, symSize: 0x28 }
  - { offsetInCU: 0x78239, offset: 0x78239, size: 0x8, addend: 0x0, symName: __ZN5Eigen8internal10AssignmentINS_6MatrixIdLin1ELin1ELi0ELin1ELin1EEENS_13CwiseBinaryOpINS0_13scalar_max_opIddLi0EEEKS3_KNS_14CwiseNullaryOpINS0_18scalar_constant_opIdEES3_EEEENS0_9assign_opIddEENS0_11Dense2DenseEvE3runERS3_RKSD_RKSF_, symObjAddr: 0x1D1D4, symBinAddr: 0x10001F77C, symSize: 0x40 }
  - { offsetInCU: 0x7827B, offset: 0x7827B, size: 0x8, addend: 0x0, symName: __ZN5Eigen8internal27checkTransposeAliasing_implINS_6MatrixIdLin1ELin1ELi0ELin1ELin1EEENS_13CwiseBinaryOpINS0_13scalar_max_opIddLi0EEEKS3_KNS_14CwiseNullaryOpINS0_18scalar_constant_opIdEES3_EEEELb0EE3runERS7_RKSD_, symObjAddr: 0x1D34C, symBinAddr: 0x10001F8F4, symSize: 0x14 }
  - { offsetInCU: 0x782A6, offset: 0x782A6, size: 0x8, addend: 0x0, symName: __ZN5Eigen8internal9evaluatorINS_13CwiseBinaryOpINS0_13scalar_max_opIddLi0EEEKNS_6MatrixIdLin1ELin1ELi0ELin1ELin1EEEKNS_14CwiseNullaryOpINS0_18scalar_constant_opIdEES6_EEEEEC1ERKSD_, symObjAddr: 0x1D360, symBinAddr: 0x10001F908, symSize: 0x34 }
  - { offsetInCU: 0x782DF, offset: 0x782DF, size: 0x8, addend: 0x0, symName: __ZN5Eigen8internal31generic_dense_assignment_kernelINS0_9evaluatorINS_6MatrixIdLin1ELin1ELi0ELin1ELin1EEEEENS2_INS_13CwiseBinaryOpINS0_13scalar_max_opIddLi0EEEKS4_KNS_14CwiseNullaryOpINS0_18scalar_constant_opIdEES4_EEEEEENS0_9assign_opIddEELi0EEC1ERS5_RKSG_RKSI_RS4_, symObjAddr: 0x1D48C, symBinAddr: 0x10001FA34, symSize: 0x4C }
  - { offsetInCU: 0x78345, offset: 0x78345, size: 0x8, addend: 0x0, symName: __ZN5Eigen8internal9evaluatorINS_13CwiseBinaryOpINS0_13scalar_max_opIddLi0EEEKNS_6MatrixIdLin1ELin1ELi0ELin1ELin1EEEKNS_14CwiseNullaryOpINS0_18scalar_constant_opIdEES6_EEEEED1Ev, symObjAddr: 0x1D580, symBinAddr: 0x10001FB28, symSize: 0x2C }
  - { offsetInCU: 0x78372, offset: 0x78372, size: 0x8, addend: 0x0, symName: __ZN5Eigen8internal9evaluatorINS_13CwiseBinaryOpINS0_13scalar_max_opIddLi0EEEKNS_6MatrixIdLin1ELin1ELi0ELin1ELin1EEEKNS_14CwiseNullaryOpINS0_18scalar_constant_opIdEES6_EEEEEC2ERKSD_, symObjAddr: 0x1D5AC, symBinAddr: 0x10001FB54, symSize: 0x34 }
  - { offsetInCU: 0x783AB, offset: 0x783AB, size: 0x8, addend: 0x0, symName: __ZN5Eigen8internal16binary_evaluatorINS_13CwiseBinaryOpINS0_13scalar_max_opIddLi0EEEKNS_6MatrixIdLin1ELin1ELi0ELin1ELin1EEEKNS_14CwiseNullaryOpINS0_18scalar_constant_opIdEES6_EEEENS0_10IndexBasedESE_ddEC2ERKSD_, symObjAddr: 0x1D5E0, symBinAddr: 0x10001FB88, symSize: 0x64 }
  - { offsetInCU: 0x783E4, offset: 0x783E4, size: 0x8, addend: 0x0, symName: __ZN5Eigen8internal14evaluator_baseINS_13CwiseBinaryOpINS0_13scalar_max_opIddLi0EEEKNS_6MatrixIdLin1ELin1ELi0ELin1ELin1EEEKNS_14CwiseNullaryOpINS0_18scalar_constant_opIdEES6_EEEEEC2Ev, symObjAddr: 0x1D644, symBinAddr: 0x10001FBEC, symSize: 0x14 }
  - { offsetInCU: 0x7840E, offset: 0x7840E, size: 0x8, addend: 0x0, symName: __ZN5Eigen8internal16binary_evaluatorINS_13CwiseBinaryOpINS0_13scalar_max_opIddLi0EEEKNS_6MatrixIdLin1ELin1ELi0ELin1ELin1EEEKNS_14CwiseNullaryOpINS0_18scalar_constant_opIdEES6_EEEENS0_10IndexBasedESE_ddE4DataC1ERKSD_, symObjAddr: 0x1D658, symBinAddr: 0x10001FC00, symSize: 0x34 }
  - { offsetInCU: 0x78447, offset: 0x78447, size: 0x8, addend: 0x0, symName: __ZN5Eigen8internal14evaluator_baseINS_13CwiseBinaryOpINS0_13scalar_max_opIddLi0EEEKNS_6MatrixIdLin1ELin1ELi0ELin1ELin1EEEKNS_14CwiseNullaryOpINS0_18scalar_constant_opIdEES6_EEEEED2Ev, symObjAddr: 0x1D68C, symBinAddr: 0x10001FC34, symSize: 0x14 }
  - { offsetInCU: 0x78471, offset: 0x78471, size: 0x8, addend: 0x0, symName: __ZN5Eigen8internal16binary_evaluatorINS_13CwiseBinaryOpINS0_13scalar_max_opIddLi0EEEKNS_6MatrixIdLin1ELin1ELi0ELin1ELin1EEEKNS_14CwiseNullaryOpINS0_18scalar_constant_opIdEES6_EEEENS0_10IndexBasedESE_ddE4DataC2ERKSD_, symObjAddr: 0x1D6A0, symBinAddr: 0x10001FC48, symSize: 0xA8 }
  - { offsetInCU: 0x784AA, offset: 0x784AA, size: 0x8, addend: 0x0, symName: __ZNK5Eigen13CwiseBinaryOpINS_8internal13scalar_max_opIddLi0EEEKNS_6MatrixIdLin1ELin1ELi0ELin1ELin1EEEKNS_14CwiseNullaryOpINS1_18scalar_constant_opIdEES5_EEE7functorEv, symObjAddr: 0x1D748, symBinAddr: 0x10001FCF0, symSize: 0x18 }
  - { offsetInCU: 0x784D0, offset: 0x784D0, size: 0x8, addend: 0x0, symName: __ZNK5Eigen13CwiseBinaryOpINS_8internal13scalar_max_opIddLi0EEEKNS_6MatrixIdLin1ELin1ELi0ELin1ELin1EEEKNS_14CwiseNullaryOpINS1_18scalar_constant_opIdEES5_EEE3lhsEv, symObjAddr: 0x1D760, symBinAddr: 0x10001FD08, symSize: 0x18 }
  - { offsetInCU: 0x784F6, offset: 0x784F6, size: 0x8, addend: 0x0, symName: __ZNK5Eigen13CwiseBinaryOpINS_8internal13scalar_max_opIddLi0EEEKNS_6MatrixIdLin1ELin1ELi0ELin1ELin1EEEKNS_14CwiseNullaryOpINS1_18scalar_constant_opIdEES5_EEE3rhsEv, symObjAddr: 0x1D778, symBinAddr: 0x10001FD20, symSize: 0x18 }
  - { offsetInCU: 0x7851C, offset: 0x7851C, size: 0x8, addend: 0x0, symName: __ZN5Eigen8internal9evaluatorIKNS_14CwiseNullaryOpINS0_18scalar_constant_opIdEENS_6MatrixIdLin1ELin1ELi0ELin1ELin1EEEEEEC1ERS8_, symObjAddr: 0x1D790, symBinAddr: 0x10001FD38, symSize: 0x34 }
  - { offsetInCU: 0x78554, offset: 0x78554, size: 0x8, addend: 0x0, symName: __ZN5Eigen8internal9evaluatorIKNS_14CwiseNullaryOpINS0_18scalar_constant_opIdEENS_6MatrixIdLin1ELin1ELi0ELin1ELin1EEEEEEC2ERS8_, symObjAddr: 0x1D7C4, symBinAddr: 0x10001FD6C, symSize: 0x34 }
  - { offsetInCU: 0x7858C, offset: 0x7858C, size: 0x8, addend: 0x0, symName: __ZN5Eigen8internal9evaluatorINS_14CwiseNullaryOpINS0_18scalar_constant_opIdEENS_6MatrixIdLin1ELin1ELi0ELin1ELin1EEEEEEC2ERKS7_, symObjAddr: 0x1D7F8, symBinAddr: 0x10001FDA0, symSize: 0x6C }
  - { offsetInCU: 0x785C5, offset: 0x785C5, size: 0x8, addend: 0x0, symName: __ZN5Eigen8internal14evaluator_baseINS_14CwiseNullaryOpINS0_18scalar_constant_opIdEENS_6MatrixIdLin1ELin1ELi0ELin1ELin1EEEEEEC2Ev, symObjAddr: 0x1D864, symBinAddr: 0x10001FE0C, symSize: 0x14 }
  - { offsetInCU: 0x785EF, offset: 0x785EF, size: 0x8, addend: 0x0, symName: __ZN5Eigen8internal14evaluator_baseINS_14CwiseNullaryOpINS0_18scalar_constant_opIdEENS_6MatrixIdLin1ELin1ELi0ELin1ELin1EEEEEED2Ev, symObjAddr: 0x1D878, symBinAddr: 0x10001FE20, symSize: 0x14 }
  - { offsetInCU: 0x78619, offset: 0x78619, size: 0x8, addend: 0x0, symName: __ZN5Eigen8internal31generic_dense_assignment_kernelINS0_9evaluatorINS_6MatrixIdLin1ELin1ELi0ELin1ELin1EEEEENS2_INS_13CwiseBinaryOpINS0_13scalar_max_opIddLi0EEEKS4_KNS_14CwiseNullaryOpINS0_18scalar_constant_opIdEES4_EEEEEENS0_9assign_opIddEELi0EEC2ERS5_RKSG_RKSI_RS4_, symObjAddr: 0x1D88C, symBinAddr: 0x10001FE34, symSize: 0x44 }
  - { offsetInCU: 0x7867F, offset: 0x7867F, size: 0x8, addend: 0x0, symName: __ZNK5Eigen8internal31generic_dense_assignment_kernelINS0_9evaluatorINS_6MatrixIdLin1ELin1ELi0ELin1ELin1EEEEENS2_INS_13CwiseBinaryOpINS0_13scalar_max_opIddLi0EEEKS4_KNS_14CwiseNullaryOpINS0_18scalar_constant_opIdEES4_EEEEEENS0_9assign_opIddEELi0EE4sizeEv, symObjAddr: 0x1D8D0, symBinAddr: 0x10001FE78, symSize: 0x28 }
  - { offsetInCU: 0x786A5, offset: 0x786A5, size: 0x8, addend: 0x0, symName: __ZN5Eigen8internal31unaligned_dense_assignment_loopILb1EE3runINS0_31generic_dense_assignment_kernelINS0_9evaluatorINS_6MatrixIdLin1ELin1ELi0ELin1ELin1EEEEENS5_INS_13CwiseBinaryOpINS0_13scalar_max_opIddLi0EEEKS7_KNS_14CwiseNullaryOpINS0_18scalar_constant_opIdEES7_EEEEEENS0_9assign_opIddEELi0EEEEEvRT_ll, symObjAddr: 0x1D8F8, symBinAddr: 0x10001FEA0, symSize: 0x18 }
  - { offsetInCU: 0x786E4, offset: 0x786E4, size: 0x8, addend: 0x0, symName: __ZN5Eigen8internal31generic_dense_assignment_kernelINS0_9evaluatorINS_6MatrixIdLin1ELin1ELi0ELin1ELin1EEEEENS2_INS_13CwiseBinaryOpINS0_13scalar_max_opIddLi0EEEKS4_KNS_14CwiseNullaryOpINS0_18scalar_constant_opIdEES4_EEEEEENS0_9assign_opIddEELi0EE12assignPacketILi16ELi16E19__simd128_float64_tEEvl, symObjAddr: 0x1D910, symBinAddr: 0x10001FEB8, symSize: 0x64 }
  - { offsetInCU: 0x78736, offset: 0x78736, size: 0x8, addend: 0x0, symName: __ZN5Eigen8internal31unaligned_dense_assignment_loopILb0EE3runINS0_31generic_dense_assignment_kernelINS0_9evaluatorINS_6MatrixIdLin1ELin1ELi0ELin1ELin1EEEEENS5_INS_13CwiseBinaryOpINS0_13scalar_max_opIddLi0EEEKS7_KNS_14CwiseNullaryOpINS0_18scalar_constant_opIdEES7_EEEEEENS0_9assign_opIddEELi0EEEEEvRT_ll, symObjAddr: 0x1D974, symBinAddr: 0x10001FF1C, symSize: 0x68 }
  - { offsetInCU: 0x7879E, offset: 0x7879E, size: 0x8, addend: 0x0, symName: __ZNK5Eigen8internal16binary_evaluatorINS_13CwiseBinaryOpINS0_13scalar_max_opIddLi0EEEKNS_6MatrixIdLin1ELin1ELi0ELin1ELin1EEEKNS_14CwiseNullaryOpINS0_18scalar_constant_opIdEES6_EEEENS0_10IndexBasedESE_ddE6packetILi16E19__simd128_float64_tEET0_l, symObjAddr: 0x1D9DC, symBinAddr: 0x10001FF84, symSize: 0x70 }
  - { offsetInCU: 0x787E6, offset: 0x787E6, size: 0x8, addend: 0x0, symName: __ZNK5Eigen8internal16binary_evaluatorINS_13CwiseBinaryOpINS0_13scalar_max_opIddLi0EEEKNS_6MatrixIdLin1ELin1ELi0ELin1ELin1EEEKNS_14CwiseNullaryOpINS0_18scalar_constant_opIdEES6_EEEENS0_10IndexBasedESE_ddE4Data4funcEv, symObjAddr: 0x1DA4C, symBinAddr: 0x10001FFF4, symSize: 0x14 }
  - { offsetInCU: 0x7880C, offset: 0x7880C, size: 0x8, addend: 0x0, symName: __ZNK5Eigen8internal13scalar_max_opIddLi0EE8packetOpI19__simd128_float64_tEET_RKS5_S7_, symObjAddr: 0x1DA60, symBinAddr: 0x100020008, symSize: 0x30 }
  - { offsetInCU: 0x78861, offset: 0x78861, size: 0x8, addend: 0x0, symName: __ZNK5Eigen8internal9evaluatorINS_14CwiseNullaryOpINS0_18scalar_constant_opIdEENS_6MatrixIdLin1ELin1ELi0ELin1ELin1EEEEEE6packetILi16E19__simd128_float64_tlEET0_T1_, symObjAddr: 0x1DA90, symBinAddr: 0x100020038, symSize: 0x38 }
  - { offsetInCU: 0x788C8, offset: 0x788C8, size: 0x8, addend: 0x0, symName: __ZN5Eigen8internal12pminmax_implILi0EE3runI19__simd128_float64_tPFS4_RKS4_S6_EEET_RKS9_SB_T0_, symObjAddr: 0x1DAFC, symBinAddr: 0x1000200A4, symSize: 0x34 }
  - { offsetInCU: 0x78921, offset: 0x78921, size: 0x8, addend: 0x0, symName: __ZNK5Eigen8internal15nullary_wrapperIdNS0_18scalar_constant_opIdEELb1ELb0ELb0EE8packetOpI19__simd128_float64_tlEET_RKS3_T0_SA_, symObjAddr: 0x1DB70, symBinAddr: 0x100020118, symSize: 0x30 }
  - { offsetInCU: 0x7897E, offset: 0x7897E, size: 0x8, addend: 0x0, symName: __ZNK5Eigen8internal18scalar_constant_opIdE8packetOpI19__simd128_float64_tEEKT_v, symObjAddr: 0x1DBA0, symBinAddr: 0x100020148, symSize: 0x24 }
  - { offsetInCU: 0x789AD, offset: 0x789AD, size: 0x8, addend: 0x0, symName: __ZN5Eigen8internal31generic_dense_assignment_kernelINS0_9evaluatorINS_6MatrixIdLin1ELin1ELi0ELin1ELin1EEEEENS2_INS_13CwiseBinaryOpINS0_13scalar_max_opIddLi0EEEKS4_KNS_14CwiseNullaryOpINS0_18scalar_constant_opIdEES4_EEEEEENS0_9assign_opIddEELi0EE11assignCoeffEl, symObjAddr: 0x1DBC4, symBinAddr: 0x10002016C, symSize: 0x64 }
  - { offsetInCU: 0x789E2, offset: 0x789E2, size: 0x8, addend: 0x0, symName: __ZNK5Eigen8internal16binary_evaluatorINS_13CwiseBinaryOpINS0_13scalar_max_opIddLi0EEEKNS_6MatrixIdLin1ELin1ELi0ELin1ELin1EEEKNS_14CwiseNullaryOpINS0_18scalar_constant_opIdEES6_EEEENS0_10IndexBasedESE_ddE5coeffEl, symObjAddr: 0x1DC28, symBinAddr: 0x1000201D0, symSize: 0x68 }
  - { offsetInCU: 0x78A17, offset: 0x78A17, size: 0x8, addend: 0x0, symName: __ZNK5Eigen8internal13scalar_max_opIddLi0EEclERKdS4_, symObjAddr: 0x1DC90, symBinAddr: 0x100020238, symSize: 0x30 }
  - { offsetInCU: 0x78A59, offset: 0x78A59, size: 0x8, addend: 0x0, symName: __ZNK5Eigen8internal9evaluatorINS_14CwiseNullaryOpINS0_18scalar_constant_opIdEENS_6MatrixIdLin1ELin1ELi0ELin1ELin1EEEEEE5coeffIlEEdT_, symObjAddr: 0x1DCC0, symBinAddr: 0x100020268, symSize: 0x38 }
  - { offsetInCU: 0x78AAD, offset: 0x78AAD, size: 0x8, addend: 0x0, symName: __ZN5Eigen8internal12pminmax_implILi0EE3runIdPFdRKdS5_EEET_RKS8_SA_T0_, symObjAddr: 0x1DD2C, symBinAddr: 0x1000202D4, symSize: 0x34 }
  - { offsetInCU: 0x78B01, offset: 0x78B01, size: 0x8, addend: 0x0, symName: __ZNKSt3__16__lessIvvEclB8ue170006IddEEbRKT_RKT0_, symObjAddr: 0x1DE20, symBinAddr: 0x1000203C8, symSize: 0x34 }
  - { offsetInCU: 0x78B55, offset: 0x78B55, size: 0x8, addend: 0x0, symName: __ZNK5Eigen8internal15nullary_wrapperIdNS0_18scalar_constant_opIdEELb1ELb0ELb0EEclIlEEdRKS3_T_S8_, symObjAddr: 0x1DE54, symBinAddr: 0x1000203FC, symSize: 0x30 }
  - { offsetInCU: 0x78BA9, offset: 0x78BA9, size: 0x8, addend: 0x0, symName: __ZN5Eigen8internal9evaluatorINS_13CwiseBinaryOpINS0_13scalar_max_opIddLi0EEEKNS_6MatrixIdLin1ELin1ELi0ELin1ELin1EEEKNS_14CwiseNullaryOpINS0_18scalar_constant_opIdEES6_EEEEED2Ev, symObjAddr: 0x1DE84, symBinAddr: 0x10002042C, symSize: 0x2C }
  - { offsetInCU: 0x78BD6, offset: 0x78BD6, size: 0x8, addend: 0x0, symName: __ZN5Eigen8internal16binary_evaluatorINS_13CwiseBinaryOpINS0_13scalar_max_opIddLi0EEEKNS_6MatrixIdLin1ELin1ELi0ELin1ELin1EEEKNS_14CwiseNullaryOpINS0_18scalar_constant_opIdEES6_EEEENS0_10IndexBasedESE_ddED2Ev, symObjAddr: 0x1DEB0, symBinAddr: 0x100020458, symSize: 0x34 }
  - { offsetInCU: 0x78C02, offset: 0x78C02, size: 0x8, addend: 0x0, symName: __ZN5Eigen8internal16binary_evaluatorINS_13CwiseBinaryOpINS0_13scalar_max_opIddLi0EEEKNS_6MatrixIdLin1ELin1ELi0ELin1ELin1EEEKNS_14CwiseNullaryOpINS0_18scalar_constant_opIdEES6_EEEENS0_10IndexBasedESE_ddE4DataD1Ev, symObjAddr: 0x1DEE4, symBinAddr: 0x10002048C, symSize: 0x2C }
  - { offsetInCU: 0x78C2F, offset: 0x78C2F, size: 0x8, addend: 0x0, symName: __ZN5Eigen8internal16binary_evaluatorINS_13CwiseBinaryOpINS0_13scalar_max_opIddLi0EEEKNS_6MatrixIdLin1ELin1ELi0ELin1ELin1EEEKNS_14CwiseNullaryOpINS0_18scalar_constant_opIdEES6_EEEENS0_10IndexBasedESE_ddE4DataD2Ev, symObjAddr: 0x1DF10, symBinAddr: 0x1000204B8, symSize: 0x3C }
  - { offsetInCU: 0x78C5C, offset: 0x78C5C, size: 0x8, addend: 0x0, symName: __ZN5Eigen8internal9evaluatorIKNS_14CwiseNullaryOpINS0_18scalar_constant_opIdEENS_6MatrixIdLin1ELin1ELi0ELin1ELin1EEEEEED1Ev, symObjAddr: 0x1DF4C, symBinAddr: 0x1000204F4, symSize: 0x2C }
  - { offsetInCU: 0x78C88, offset: 0x78C88, size: 0x8, addend: 0x0, symName: __ZN5Eigen8internal9evaluatorIKNS_14CwiseNullaryOpINS0_18scalar_constant_opIdEENS_6MatrixIdLin1ELin1ELi0ELin1ELin1EEEEEED2Ev, symObjAddr: 0x1DF78, symBinAddr: 0x100020520, symSize: 0x2C }
  - { offsetInCU: 0x78CB4, offset: 0x78CB4, size: 0x8, addend: 0x0, symName: __ZN5Eigen8internal9evaluatorINS_14CwiseNullaryOpINS0_18scalar_constant_opIdEENS_6MatrixIdLin1ELin1ELi0ELin1ELin1EEEEEED2Ev, symObjAddr: 0x1DFA4, symBinAddr: 0x10002054C, symSize: 0x2C }
  - { offsetInCU: 0x78CE0, offset: 0x78CE0, size: 0x8, addend: 0x0, symName: __ZN5Eigen3MapINS_5ArrayIdLin1ELi1ELi0ELin1ELi1EEELi0ENS_6StrideILi0ELi0EEEEC1EPdlRKS4_, symObjAddr: 0x1DFD0, symBinAddr: 0x100020578, symSize: 0x44 }
  - { offsetInCU: 0x78D34, offset: 0x78D34, size: 0x8, addend: 0x0, symName: __ZNK5Eigen9DenseBaseINS_3MapINS_5ArrayIdLin1ELi1ELi0ELin1ELi1EEELi0ENS_6StrideILi0ELi0EEEEEE8maxCoeffEv, symObjAddr: 0x1E014, symBinAddr: 0x1000205BC, symSize: 0x24 }
  - { offsetInCU: 0x78D5A, offset: 0x78D5A, size: 0x8, addend: 0x0, symName: __ZNK5Eigen9ArrayBaseINS_3MapINS_5ArrayIdLin1ELi1ELi0ELin1ELi1EEELi0ENS_6StrideILi0ELi0EEEEEEmiIdEEKNS_13CwiseBinaryOpINS_8internal20scalar_difference_opIdNSA_18promote_scalar_argIdT_Xsr5Eigen8internal14has_ReturnTypeINS_20ScalarBinaryOpTraitsIdSD_NSB_IdSD_EEEEEE5valueEE4typeEEEKS6_KNSA_19plain_constant_typeIS6_SI_E4typeEEERKSD_, symObjAddr: 0x1E038, symBinAddr: 0x1000205E0, symSize: 0xA8 }
  - { offsetInCU: 0x78D98, offset: 0x78D98, size: 0x8, addend: 0x0, symName: __ZNK5Eigen9ArrayBaseINS_13CwiseBinaryOpINS_8internal20scalar_difference_opIddEEKNS_3MapINS_5ArrayIdLin1ELi1ELi0ELin1ELi1EEELi0ENS_6StrideILi0ELi0EEEEEKNS_14CwiseNullaryOpINS2_18scalar_constant_opIdEEKS7_EEEEE3expEv, symObjAddr: 0x1E0E0, symBinAddr: 0x100020688, symSize: 0x4C }
  - { offsetInCU: 0x78DC3, offset: 0x78DC3, size: 0x8, addend: 0x0, symName: __ZN5Eigen5ArrayIdLin1ELi1ELi0ELin1ELi1EEC1INS_12CwiseUnaryOpINS_8internal13scalar_exp_opIdEEKNS_13CwiseBinaryOpINS4_20scalar_difference_opIddEEKNS_3MapIS1_Li0ENS_6StrideILi0ELi0EEEEEKNS_14CwiseNullaryOpINS4_18scalar_constant_opIdEEKS1_EEEEEEEERKNS_9EigenBaseIT_EENS4_9enable_ifIXsr8internal14is_convertibleINSP_6ScalarEdEE5valueENS1_11PrivateTypeEE4typeE, symObjAddr: 0x1E12C, symBinAddr: 0x1000206D4, symSize: 0x34 }
  - { offsetInCU: 0x78E10, offset: 0x78E10, size: 0x8, addend: 0x0, symName: __ZNK5Eigen9ArrayBaseINS_5ArrayIdLin1ELi1ELi0ELin1ELi1EEEEdvIdEEKNS_13CwiseBinaryOpINS_8internal18scalar_quotient_opIdNS6_18promote_scalar_argIdT_Xsr5Eigen8internal14has_ReturnTypeINS_20ScalarBinaryOpTraitsIdS9_NS7_IdS9_EEEEEE5valueEE4typeEEEKS2_KNS6_19plain_constant_typeIS2_SE_E4typeEEERKS9_, symObjAddr: 0x1E160, symBinAddr: 0x100020708, symSize: 0xA8 }
  - { offsetInCU: 0x78E4D, offset: 0x78E4D, size: 0x8, addend: 0x0, symName: __ZNK5Eigen9DenseBaseINS_5ArrayIdLin1ELi1ELi0ELin1ELi1EEEE3sumEv, symObjAddr: 0x1E208, symBinAddr: 0x1000207B0, symSize: 0x74 }
  - { offsetInCU: 0x78E7B, offset: 0x78E7B, size: 0x8, addend: 0x0, symName: __ZN5Eigen5ArrayIdLin1ELi1ELi0ELin1ELi1EEC1INS_13CwiseBinaryOpINS_8internal18scalar_quotient_opIddEEKS1_KNS_14CwiseNullaryOpINS4_18scalar_constant_opIdEES7_EEEEEERKNS_9EigenBaseIT_EENS4_9enable_ifIXsr8internal14is_convertibleINSF_6ScalarEdEE5valueENS1_11PrivateTypeEE4typeE, symObjAddr: 0x1E27C, symBinAddr: 0x100020824, symSize: 0x34 }
  - { offsetInCU: 0x78ECD, offset: 0x78ECD, size: 0x8, addend: 0x0, symName: __ZN5Eigen6MatrixIdLin1ELin1ELi0ELin1ELin1EEC1INS_5ArrayIdLin1ELi1ELi0ELin1ELi1EEEEERKNS_9EigenBaseIT_EE, symObjAddr: 0x1E2B0, symBinAddr: 0x100020858, symSize: 0x34 }
  - { offsetInCU: 0x78F0F, offset: 0x78F0F, size: 0x8, addend: 0x0, symName: __ZN5Eigen3MapINS_5ArrayIdLin1ELi1ELi0ELin1ELi1EEELi0ENS_6StrideILi0ELi0EEEEC2EPdlRKS4_, symObjAddr: 0x1E2E4, symBinAddr: 0x10002088C, symSize: 0x60 }
  - { offsetInCU: 0x78F63, offset: 0x78F63, size: 0x8, addend: 0x0, symName: __ZN5Eigen3MapINS_5ArrayIdLin1ELi1ELi0ELin1ELi1EEELi0ENS_6StrideILi0ELi0EEEE20cast_to_pointer_typeEPd, symObjAddr: 0x1E344, symBinAddr: 0x1000208EC, symSize: 0x18 }
  - { offsetInCU: 0x78F97, offset: 0x78F97, size: 0x8, addend: 0x0, symName: __ZN5Eigen7MapBaseINS_3MapINS_5ArrayIdLin1ELi1ELi0ELin1ELi1EEELi0ENS_6StrideILi0ELi0EEEEELi1EEC2EPdl, symObjAddr: 0x1E35C, symBinAddr: 0x100020904, symSize: 0x3C }
  - { offsetInCU: 0x78FDF, offset: 0x78FDF, size: 0x8, addend: 0x0, symName: __ZN5Eigen15PlainObjectBaseINS_5ArrayIdLin1ELi1ELi0ELin1ELi1EEEE22_check_template_paramsEv, symObjAddr: 0x1E398, symBinAddr: 0x100020940, symSize: 0x4 }
  - { offsetInCU: 0x78FF3, offset: 0x78FF3, size: 0x8, addend: 0x0, symName: __ZN5Eigen7MapBaseINS_3MapINS_5ArrayIdLin1ELi1ELi0ELin1ELi1EEELi0ENS_6StrideILi0ELi0EEEEELi0EEC2EPdl, symObjAddr: 0x1E39C, symBinAddr: 0x100020944, symSize: 0x120 }
  - { offsetInCU: 0x79039, offset: 0x79039, size: 0x8, addend: 0x0, symName: __ZN5Eigen9ArrayBaseINS_3MapINS_5ArrayIdLin1ELi1ELi0ELin1ELi1EEELi0ENS_6StrideILi0ELi0EEEEEEC2Ev, symObjAddr: 0x1E4BC, symBinAddr: 0x100020A64, symSize: 0x2C }
  - { offsetInCU: 0x79063, offset: 0x79063, size: 0x8, addend: 0x0, symName: __ZNK5Eigen7MapBaseINS_3MapINS_5ArrayIdLin1ELi1ELi0ELin1ELi1EEELi0ENS_6StrideILi0ELi0EEEEELi0EE11checkSanityIS6_EEvNS_8internal9enable_ifIXeqsr8internal6traitsIT_EE9AlignmentLi0EEPvE4typeE, symObjAddr: 0x1E4E8, symBinAddr: 0x100020A90, symSize: 0x14 }
  - { offsetInCU: 0x7909D, offset: 0x7909D, size: 0x8, addend: 0x0, symName: __ZN5Eigen9DenseBaseINS_3MapINS_5ArrayIdLin1ELi1ELi0ELin1ELi1EEELi0ENS_6StrideILi0ELi0EEEEEEC2Ev, symObjAddr: 0x1E4FC, symBinAddr: 0x100020AA4, symSize: 0x14 }
  - { offsetInCU: 0x790C7, offset: 0x790C7, size: 0x8, addend: 0x0, symName: __ZNK5Eigen9DenseBaseINS_3MapINS_5ArrayIdLin1ELi1ELi0ELin1ELi1EEELi0ENS_6StrideILi0ELi0EEEEEE8maxCoeffILi0EEEdv, symObjAddr: 0x1E510, symBinAddr: 0x100020AB8, symSize: 0x40 }
  - { offsetInCU: 0x790FA, offset: 0x790FA, size: 0x8, addend: 0x0, symName: __ZNK5Eigen9EigenBaseINS_3MapINS_5ArrayIdLin1ELi1ELi0ELin1ELi1EEELi0ENS_6StrideILi0ELi0EEEEEE7derivedEv, symObjAddr: 0x1E550, symBinAddr: 0x100020AF8, symSize: 0x14 }
  - { offsetInCU: 0x79120, offset: 0x79120, size: 0x8, addend: 0x0, symName: __ZNK5Eigen9DenseBaseINS_3MapINS_5ArrayIdLin1ELi1ELi0ELin1ELi1EEELi0ENS_6StrideILi0ELi0EEEEEE5reduxINS_8internal13scalar_max_opIddLi0EEEEEdRKT_, symObjAddr: 0x1E564, symBinAddr: 0x100020B0C, symSize: 0x10C }
  - { offsetInCU: 0x7917C, offset: 0x7917C, size: 0x8, addend: 0x0, symName: __ZNK5Eigen9EigenBaseINS_3MapINS_5ArrayIdLin1ELi1ELi0ELin1ELi1EEELi0ENS_6StrideILi0ELi0EEEEEE4rowsEv, symObjAddr: 0x1E670, symBinAddr: 0x100020C18, symSize: 0x28 }
  - { offsetInCU: 0x791A2, offset: 0x791A2, size: 0x8, addend: 0x0, symName: __ZNK5Eigen9EigenBaseINS_3MapINS_5ArrayIdLin1ELi1ELi0ELin1ELi1EEELi0ENS_6StrideILi0ELi0EEEEEE4colsEv, symObjAddr: 0x1E698, symBinAddr: 0x100020C40, symSize: 0x28 }
  - { offsetInCU: 0x791E1, offset: 0x791E1, size: 0x8, addend: 0x0, symName: __ZN5Eigen8internal15redux_evaluatorINS_3MapINS_5ArrayIdLin1ELi1ELi0ELin1ELi1EEELi0ENS_6StrideILi0ELi0EEEEEEC1ERKS7_, symObjAddr: 0x1E6C0, symBinAddr: 0x100020C68, symSize: 0x34 }
  - { offsetInCU: 0x7921F, offset: 0x7921F, size: 0x8, addend: 0x0, symName: __ZN5Eigen8internal10redux_implINS0_13scalar_max_opIddLi0EEENS0_15redux_evaluatorINS_3MapINS_5ArrayIdLin1ELi1ELi0ELin1ELi1EEELi0ENS_6StrideILi0ELi0EEEEEEELi3ELi0EE3runISA_EEdRKSB_RKS3_RKT_, symObjAddr: 0x1E6F4, symBinAddr: 0x100020C9C, symSize: 0x340 }
  - { offsetInCU: 0x7939B, offset: 0x7939B, size: 0x8, addend: 0x0, symName: __ZN5Eigen8internal15redux_evaluatorINS_3MapINS_5ArrayIdLin1ELi1ELi0ELin1ELi1EEELi0ENS_6StrideILi0ELi0EEEEEED1Ev, symObjAddr: 0x1EA34, symBinAddr: 0x100020FDC, symSize: 0x2C }
  - { offsetInCU: 0x793C8, offset: 0x793C8, size: 0x8, addend: 0x0, symName: __ZNK5Eigen7MapBaseINS_3MapINS_5ArrayIdLin1ELi1ELi0ELin1ELi1EEELi0ENS_6StrideILi0ELi0EEEEELi0EE4rowsEv, symObjAddr: 0x1EA60, symBinAddr: 0x100021008, symSize: 0x28 }
  - { offsetInCU: 0x793EE, offset: 0x793EE, size: 0x8, addend: 0x0, symName: __ZNK5Eigen7MapBaseINS_3MapINS_5ArrayIdLin1ELi1ELi0ELin1ELi1EEELi0ENS_6StrideILi0ELi0EEEEELi0EE4colsEv, symObjAddr: 0x1EA88, symBinAddr: 0x100021030, symSize: 0x20 }
  - { offsetInCU: 0x79414, offset: 0x79414, size: 0x8, addend: 0x0, symName: __ZN5Eigen8internal15redux_evaluatorINS_3MapINS_5ArrayIdLin1ELi1ELi0ELin1ELi1EEELi0ENS_6StrideILi0ELi0EEEEEEC2ERKS7_, symObjAddr: 0x1EAA8, symBinAddr: 0x100021050, symSize: 0x34 }
  - { offsetInCU: 0x7944D, offset: 0x7944D, size: 0x8, addend: 0x0, symName: __ZN5Eigen8internal9evaluatorINS_3MapINS_5ArrayIdLin1ELi1ELi0ELin1ELi1EEELi0ENS_6StrideILi0ELi0EEEEEEC2ERKS7_, symObjAddr: 0x1EADC, symBinAddr: 0x100021084, symSize: 0x34 }
  - { offsetInCU: 0x79486, offset: 0x79486, size: 0x8, addend: 0x0, symName: __ZN5Eigen8internal17mapbase_evaluatorINS_3MapINS_5ArrayIdLin1ELi1ELi0ELin1ELi1EEELi0ENS_6StrideILi0ELi0EEEEES4_EC2ERKS7_, symObjAddr: 0x1EB10, symBinAddr: 0x1000210B8, symSize: 0xC0 }
  - { offsetInCU: 0x794BF, offset: 0x794BF, size: 0x8, addend: 0x0, symName: __ZN5Eigen8internal14evaluator_baseINS_3MapINS_5ArrayIdLin1ELi1ELi0ELin1ELi1EEELi0ENS_6StrideILi0ELi0EEEEEEC2Ev, symObjAddr: 0x1EBD0, symBinAddr: 0x100021178, symSize: 0x14 }
  - { offsetInCU: 0x794E9, offset: 0x794E9, size: 0x8, addend: 0x0, symName: __ZNK5Eigen7MapBaseINS_3MapINS_5ArrayIdLin1ELi1ELi0ELin1ELi1EEELi0ENS_6StrideILi0ELi0EEEEELi1EE4dataEv, symObjAddr: 0x1EBE4, symBinAddr: 0x10002118C, symSize: 0x18 }
  - { offsetInCU: 0x7950F, offset: 0x7950F, size: 0x8, addend: 0x0, symName: __ZNK5Eigen3MapINS_5ArrayIdLin1ELi1ELi0ELin1ELi1EEELi0ENS_6StrideILi0ELi0EEEE11innerStrideEv, symObjAddr: 0x1EBFC, symBinAddr: 0x1000211A4, symSize: 0x14 }
  - { offsetInCU: 0x79535, offset: 0x79535, size: 0x8, addend: 0x0, symName: __ZNK5Eigen3MapINS_5ArrayIdLin1ELi1ELi0ELin1ELi1EEELi0ENS_6StrideILi0ELi0EEEE11outerStrideEv, symObjAddr: 0x1EC10, symBinAddr: 0x1000211B8, symSize: 0x44 }
  - { offsetInCU: 0x7955B, offset: 0x7955B, size: 0x8, addend: 0x0, symName: __ZN5Eigen8internal14evaluator_baseINS_3MapINS_5ArrayIdLin1ELi1ELi0ELin1ELi1EEELi0ENS_6StrideILi0ELi0EEEEEED2Ev, symObjAddr: 0x1EC54, symBinAddr: 0x1000211FC, symSize: 0x14 }
  - { offsetInCU: 0x79585, offset: 0x79585, size: 0x8, addend: 0x0, symName: __ZNK5Eigen9EigenBaseINS_3MapINS_5ArrayIdLin1ELi1ELi0ELin1ELi1EEELi0ENS_6StrideILi0ELi0EEEEEE4sizeEv, symObjAddr: 0x1EC68, symBinAddr: 0x100021210, symSize: 0x44 }
  - { offsetInCU: 0x795AB, offset: 0x795AB, size: 0x8, addend: 0x0, symName: __ZNK5Eigen8internal17mapbase_evaluatorINS_3MapINS_5ArrayIdLin1ELi1ELi0ELin1ELi1EEELi0ENS_6StrideILi0ELi0EEEEES4_E6packetILi0E19__simd128_float64_tEET0_l, symObjAddr: 0x1ECD0, symBinAddr: 0x100021278, symSize: 0x54 }
  - { offsetInCU: 0x79611, offset: 0x79611, size: 0x8, addend: 0x0, symName: __ZNK5Eigen8internal13scalar_max_opIddLi0EE6preduxI19__simd128_float64_tEEdRKT_, symObjAddr: 0x1ED24, symBinAddr: 0x1000212CC, symSize: 0x28 }
  - { offsetInCU: 0x7964E, offset: 0x7964E, size: 0x8, addend: 0x0, symName: __ZNK5Eigen8internal17mapbase_evaluatorINS_3MapINS_5ArrayIdLin1ELi1ELi0ELin1ELi1EEELi0ENS_6StrideILi0ELi0EEEEES4_E5coeffEl, symObjAddr: 0x1ED4C, symBinAddr: 0x1000212F4, symSize: 0x48 }
  - { offsetInCU: 0x79683, offset: 0x79683, size: 0x8, addend: 0x0, symName: __ZN5Eigen8internal18first_aligned_implILi16ENS_3MapINS_5ArrayIdLin1ELi1ELi0ELin1ELi1EEELi0ENS_6StrideILi0ELi0EEEEELb0EE3runERKS7_, symObjAddr: 0x1EDBC, symBinAddr: 0x100021364, symSize: 0x3C }
  - { offsetInCU: 0x796A7, offset: 0x796A7, size: 0x8, addend: 0x0, symName: __ZN5Eigen8internal15redux_evaluatorINS_3MapINS_5ArrayIdLin1ELi1ELi0ELin1ELi1EEELi0ENS_6StrideILi0ELi0EEEEEED2Ev, symObjAddr: 0x1EFE8, symBinAddr: 0x100021590, symSize: 0x2C }
  - { offsetInCU: 0x796D4, offset: 0x796D4, size: 0x8, addend: 0x0, symName: __ZN5Eigen8internal9evaluatorINS_3MapINS_5ArrayIdLin1ELi1ELi0ELin1ELi1EEELi0ENS_6StrideILi0ELi0EEEEEED2Ev, symObjAddr: 0x1F014, symBinAddr: 0x1000215BC, symSize: 0x2C }
  - { offsetInCU: 0x79701, offset: 0x79701, size: 0x8, addend: 0x0, symName: __ZN5Eigen8internal17mapbase_evaluatorINS_3MapINS_5ArrayIdLin1ELi1ELi0ELin1ELi1EEELi0ENS_6StrideILi0ELi0EEEEES4_ED2Ev, symObjAddr: 0x1F040, symBinAddr: 0x1000215E8, symSize: 0x2C }
  - { offsetInCU: 0x7972E, offset: 0x7972E, size: 0x8, addend: 0x0, symName: __ZN5Eigen14CwiseNullaryOpINS_8internal18scalar_constant_opIdEEKNS_5ArrayIdLin1ELi1ELi0ELin1ELi1EEEEC1EllRKS3_, symObjAddr: 0x1F06C, symBinAddr: 0x100021614, symSize: 0x44 }
  - { offsetInCU: 0x79782, offset: 0x79782, size: 0x8, addend: 0x0, symName: __ZN5Eigen8internal20scalar_difference_opIddEC1Ev, symObjAddr: 0x1F0B0, symBinAddr: 0x100021658, symSize: 0x2C }
  - { offsetInCU: 0x797AC, offset: 0x797AC, size: 0x8, addend: 0x0, symName: __ZN5Eigen13CwiseBinaryOpINS_8internal20scalar_difference_opIddEEKNS_3MapINS_5ArrayIdLin1ELi1ELi0ELin1ELi1EEELi0ENS_6StrideILi0ELi0EEEEEKNS_14CwiseNullaryOpINS1_18scalar_constant_opIdEEKS6_EEEC1ERSA_RSG_RKS3_, symObjAddr: 0x1F0DC, symBinAddr: 0x100021684, symSize: 0x44 }
  - { offsetInCU: 0x79800, offset: 0x79800, size: 0x8, addend: 0x0, symName: __ZN5Eigen14CwiseNullaryOpINS_8internal18scalar_constant_opIdEEKNS_5ArrayIdLin1ELi1ELi0ELin1ELi1EEEEC2EllRKS3_, symObjAddr: 0x1F120, symBinAddr: 0x1000216C8, symSize: 0xE8 }
  - { offsetInCU: 0x79854, offset: 0x79854, size: 0x8, addend: 0x0, symName: __ZN5Eigen9ArrayBaseINS_14CwiseNullaryOpINS_8internal18scalar_constant_opIdEEKNS_5ArrayIdLin1ELi1ELi0ELin1ELi1EEEEEEC2Ev, symObjAddr: 0x1F208, symBinAddr: 0x1000217B0, symSize: 0x2C }
  - { offsetInCU: 0x7987E, offset: 0x7987E, size: 0x8, addend: 0x0, symName: __ZN5Eigen9DenseBaseINS_14CwiseNullaryOpINS_8internal18scalar_constant_opIdEEKNS_5ArrayIdLin1ELi1ELi0ELin1ELi1EEEEEEC2Ev, symObjAddr: 0x1F234, symBinAddr: 0x1000217DC, symSize: 0x14 }
  - { offsetInCU: 0x798A8, offset: 0x798A8, size: 0x8, addend: 0x0, symName: __ZN5Eigen8internal20scalar_difference_opIddEC2Ev, symObjAddr: 0x1F248, symBinAddr: 0x1000217F0, symSize: 0x14 }
  - { offsetInCU: 0x798D2, offset: 0x798D2, size: 0x8, addend: 0x0, symName: __ZN5Eigen13CwiseBinaryOpINS_8internal20scalar_difference_opIddEEKNS_3MapINS_5ArrayIdLin1ELi1ELi0ELin1ELi1EEELi0ENS_6StrideILi0ELi0EEEEEKNS_14CwiseNullaryOpINS1_18scalar_constant_opIdEEKS6_EEEC2ERSA_RSG_RKS3_, symObjAddr: 0x1F25C, symBinAddr: 0x100021804, symSize: 0xF8 }
  - { offsetInCU: 0x7992B, offset: 0x7992B, size: 0x8, addend: 0x0, symName: __ZN5Eigen17CwiseBinaryOpImplINS_8internal20scalar_difference_opIddEEKNS_3MapINS_5ArrayIdLin1ELi1ELi0ELin1ELi1EEELi0ENS_6StrideILi0ELi0EEEEEKNS_14CwiseNullaryOpINS1_18scalar_constant_opIdEEKS6_EENS_5DenseEEC2Ev, symObjAddr: 0x1F354, symBinAddr: 0x1000218FC, symSize: 0x2C }
  - { offsetInCU: 0x79957, offset: 0x79957, size: 0x8, addend: 0x0, symName: __ZN5Eigen3MapINS_5ArrayIdLin1ELi1ELi0ELin1ELi1EEELi0ENS_6StrideILi0ELi0EEEEC1ERKS5_, symObjAddr: 0x1F380, symBinAddr: 0x100021928, symSize: 0x34 }
  - { offsetInCU: 0x7998C, offset: 0x7998C, size: 0x8, addend: 0x0, symName: __ZN5Eigen14CwiseNullaryOpINS_8internal18scalar_constant_opIdEEKNS_5ArrayIdLin1ELi1ELi0ELin1ELi1EEEEC1ERKS7_, symObjAddr: 0x1F3B4, symBinAddr: 0x10002195C, symSize: 0x34 }
  - { offsetInCU: 0x799C1, offset: 0x799C1, size: 0x8, addend: 0x0, symName: __ZN5Eigen8internal20scalar_difference_opIddEC1ERKS2_, symObjAddr: 0x1F3E8, symBinAddr: 0x100021990, symSize: 0x34 }
  - { offsetInCU: 0x799F6, offset: 0x799F6, size: 0x8, addend: 0x0, symName: __ZNK5Eigen14CwiseNullaryOpINS_8internal18scalar_constant_opIdEEKNS_5ArrayIdLin1ELi1ELi0ELin1ELi1EEEE4rowsEv, symObjAddr: 0x1F41C, symBinAddr: 0x1000219C4, symSize: 0x24 }
  - { offsetInCU: 0x79A1C, offset: 0x79A1C, size: 0x8, addend: 0x0, symName: __ZNK5Eigen14CwiseNullaryOpINS_8internal18scalar_constant_opIdEEKNS_5ArrayIdLin1ELi1ELi0ELin1ELi1EEEE4colsEv, symObjAddr: 0x1F440, symBinAddr: 0x1000219E8, symSize: 0x20 }
  - { offsetInCU: 0x79A42, offset: 0x79A42, size: 0x8, addend: 0x0, symName: __ZN5Eigen9ArrayBaseINS_13CwiseBinaryOpINS_8internal20scalar_difference_opIddEEKNS_3MapINS_5ArrayIdLin1ELi1ELi0ELin1ELi1EEELi0ENS_6StrideILi0ELi0EEEEEKNS_14CwiseNullaryOpINS2_18scalar_constant_opIdEEKS7_EEEEEC2Ev, symObjAddr: 0x1F460, symBinAddr: 0x100021A08, symSize: 0x2C }
  - { offsetInCU: 0x79A6C, offset: 0x79A6C, size: 0x8, addend: 0x0, symName: __ZN5Eigen9DenseBaseINS_13CwiseBinaryOpINS_8internal20scalar_difference_opIddEEKNS_3MapINS_5ArrayIdLin1ELi1ELi0ELin1ELi1EEELi0ENS_6StrideILi0ELi0EEEEEKNS_14CwiseNullaryOpINS2_18scalar_constant_opIdEEKS7_EEEEEC2Ev, symObjAddr: 0x1F48C, symBinAddr: 0x100021A34, symSize: 0x14 }
  - { offsetInCU: 0x79A96, offset: 0x79A96, size: 0x8, addend: 0x0, symName: __ZN5Eigen3MapINS_5ArrayIdLin1ELi1ELi0ELin1ELi1EEELi0ENS_6StrideILi0ELi0EEEEC2ERKS5_, symObjAddr: 0x1F4A0, symBinAddr: 0x100021A48, symSize: 0x50 }
  - { offsetInCU: 0x79ACB, offset: 0x79ACB, size: 0x8, addend: 0x0, symName: __ZN5Eigen14CwiseNullaryOpINS_8internal18scalar_constant_opIdEEKNS_5ArrayIdLin1ELi1ELi0ELin1ELi1EEEEC2ERKS7_, symObjAddr: 0x1F4F0, symBinAddr: 0x100021A98, symSize: 0x50 }
  - { offsetInCU: 0x79B00, offset: 0x79B00, size: 0x8, addend: 0x0, symName: __ZN5Eigen8internal20scalar_difference_opIddEC2ERKS2_, symObjAddr: 0x1F540, symBinAddr: 0x100021AE8, symSize: 0x18 }
  - { offsetInCU: 0x79B35, offset: 0x79B35, size: 0x8, addend: 0x0, symName: __ZNK5Eigen9EigenBaseINS_13CwiseBinaryOpINS_8internal20scalar_difference_opIddEEKNS_3MapINS_5ArrayIdLin1ELi1ELi0ELin1ELi1EEELi0ENS_6StrideILi0ELi0EEEEEKNS_14CwiseNullaryOpINS2_18scalar_constant_opIdEEKS7_EEEEE7derivedEv, symObjAddr: 0x1F558, symBinAddr: 0x100021B00, symSize: 0x14 }
  - { offsetInCU: 0x79B5B, offset: 0x79B5B, size: 0x8, addend: 0x0, symName: __ZN5Eigen8internal13scalar_exp_opIdEC1Ev, symObjAddr: 0x1F56C, symBinAddr: 0x100021B14, symSize: 0x2C }
  - { offsetInCU: 0x79B85, offset: 0x79B85, size: 0x8, addend: 0x0, symName: __ZN5Eigen12CwiseUnaryOpINS_8internal13scalar_exp_opIdEEKNS_13CwiseBinaryOpINS1_20scalar_difference_opIddEEKNS_3MapINS_5ArrayIdLin1ELi1ELi0ELin1ELi1EEELi0ENS_6StrideILi0ELi0EEEEEKNS_14CwiseNullaryOpINS1_18scalar_constant_opIdEEKS9_EEEEEC1ERSL_RKS3_, symObjAddr: 0x1F598, symBinAddr: 0x100021B40, symSize: 0x3C }
  - { offsetInCU: 0x79BCB, offset: 0x79BCB, size: 0x8, addend: 0x0, symName: __ZN5Eigen8internal13scalar_exp_opIdEC2Ev, symObjAddr: 0x1F5D4, symBinAddr: 0x100021B7C, symSize: 0x14 }
  - { offsetInCU: 0x79BF5, offset: 0x79BF5, size: 0x8, addend: 0x0, symName: __ZN5Eigen12CwiseUnaryOpINS_8internal13scalar_exp_opIdEEKNS_13CwiseBinaryOpINS1_20scalar_difference_opIddEEKNS_3MapINS_5ArrayIdLin1ELi1ELi0ELin1ELi1EEELi0ENS_6StrideILi0ELi0EEEEEKNS_14CwiseNullaryOpINS1_18scalar_constant_opIdEEKS9_EEEEEC2ERSL_RKS3_, symObjAddr: 0x1F5E8, symBinAddr: 0x100021B90, symSize: 0x54 }
  - { offsetInCU: 0x79C40, offset: 0x79C40, size: 0x8, addend: 0x0, symName: __ZN5Eigen16CwiseUnaryOpImplINS_8internal13scalar_exp_opIdEEKNS_13CwiseBinaryOpINS1_20scalar_difference_opIddEEKNS_3MapINS_5ArrayIdLin1ELi1ELi0ELin1ELi1EEELi0ENS_6StrideILi0ELi0EEEEEKNS_14CwiseNullaryOpINS1_18scalar_constant_opIdEEKS9_EEEENS_5DenseEEC2Ev, symObjAddr: 0x1F63C, symBinAddr: 0x100021BE4, symSize: 0x2C }
  - { offsetInCU: 0x79C6C, offset: 0x79C6C, size: 0x8, addend: 0x0, symName: __ZN5Eigen13CwiseBinaryOpINS_8internal20scalar_difference_opIddEEKNS_3MapINS_5ArrayIdLin1ELi1ELi0ELin1ELi1EEELi0ENS_6StrideILi0ELi0EEEEEKNS_14CwiseNullaryOpINS1_18scalar_constant_opIdEEKS6_EEEC1ERKSH_, symObjAddr: 0x1F668, symBinAddr: 0x100021C10, symSize: 0x34 }
  - { offsetInCU: 0x79CA1, offset: 0x79CA1, size: 0x8, addend: 0x0, symName: __ZN5Eigen8internal13scalar_exp_opIdEC1ERKS2_, symObjAddr: 0x1F69C, symBinAddr: 0x100021C44, symSize: 0x34 }
  - { offsetInCU: 0x79CD6, offset: 0x79CD6, size: 0x8, addend: 0x0, symName: __ZN5Eigen9ArrayBaseINS_12CwiseUnaryOpINS_8internal13scalar_exp_opIdEEKNS_13CwiseBinaryOpINS2_20scalar_difference_opIddEEKNS_3MapINS_5ArrayIdLin1ELi1ELi0ELin1ELi1EEELi0ENS_6StrideILi0ELi0EEEEEKNS_14CwiseNullaryOpINS2_18scalar_constant_opIdEEKSA_EEEEEEEC2Ev, symObjAddr: 0x1F6D0, symBinAddr: 0x100021C78, symSize: 0x2C }
  - { offsetInCU: 0x79D00, offset: 0x79D00, size: 0x8, addend: 0x0, symName: __ZN5Eigen9DenseBaseINS_12CwiseUnaryOpINS_8internal13scalar_exp_opIdEEKNS_13CwiseBinaryOpINS2_20scalar_difference_opIddEEKNS_3MapINS_5ArrayIdLin1ELi1ELi0ELin1ELi1EEELi0ENS_6StrideILi0ELi0EEEEEKNS_14CwiseNullaryOpINS2_18scalar_constant_opIdEEKSA_EEEEEEEC2Ev, symObjAddr: 0x1F6FC, symBinAddr: 0x100021CA4, symSize: 0x14 }
  - { offsetInCU: 0x79D2A, offset: 0x79D2A, size: 0x8, addend: 0x0, symName: __ZN5Eigen13CwiseBinaryOpINS_8internal20scalar_difference_opIddEEKNS_3MapINS_5ArrayIdLin1ELi1ELi0ELin1ELi1EEELi0ENS_6StrideILi0ELi0EEEEEKNS_14CwiseNullaryOpINS1_18scalar_constant_opIdEEKS6_EEEC2ERKSH_, symObjAddr: 0x1F710, symBinAddr: 0x100021CB8, symSize: 0x5C }
  - { offsetInCU: 0x79D5F, offset: 0x79D5F, size: 0x8, addend: 0x0, symName: __ZN5Eigen8internal13scalar_exp_opIdEC2ERKS2_, symObjAddr: 0x1F76C, symBinAddr: 0x100021D14, symSize: 0x18 }
  - { offsetInCU: 0x79D94, offset: 0x79D94, size: 0x8, addend: 0x0, symName: __ZN5Eigen5ArrayIdLin1ELi1ELi0ELin1ELi1EEC2INS_12CwiseUnaryOpINS_8internal13scalar_exp_opIdEEKNS_13CwiseBinaryOpINS4_20scalar_difference_opIddEEKNS_3MapIS1_Li0ENS_6StrideILi0ELi0EEEEEKNS_14CwiseNullaryOpINS4_18scalar_constant_opIdEEKS1_EEEEEEEERKNS_9EigenBaseIT_EENS4_9enable_ifIXsr8internal14is_convertibleINSP_6ScalarEdEE5valueENS1_11PrivateTypeEE4typeE, symObjAddr: 0x1F784, symBinAddr: 0x100021D2C, symSize: 0x40 }
  - { offsetInCU: 0x79DE1, offset: 0x79DE1, size: 0x8, addend: 0x0, symName: __ZNK5Eigen9EigenBaseINS_12CwiseUnaryOpINS_8internal13scalar_exp_opIdEEKNS_13CwiseBinaryOpINS2_20scalar_difference_opIddEEKNS_3MapINS_5ArrayIdLin1ELi1ELi0ELin1ELi1EEELi0ENS_6StrideILi0ELi0EEEEEKNS_14CwiseNullaryOpINS2_18scalar_constant_opIdEEKSA_EEEEEEE7derivedEv, symObjAddr: 0x1F7C4, symBinAddr: 0x100021D6C, symSize: 0x14 }
  - { offsetInCU: 0x79E07, offset: 0x79E07, size: 0x8, addend: 0x0, symName: __ZN5Eigen15PlainObjectBaseINS_5ArrayIdLin1ELi1ELi0ELin1ELi1EEEEC2INS_12CwiseUnaryOpINS_8internal13scalar_exp_opIdEEKNS_13CwiseBinaryOpINS6_20scalar_difference_opIddEEKNS_3MapIS2_Li0ENS_6StrideILi0ELi0EEEEEKNS_14CwiseNullaryOpINS6_18scalar_constant_opIdEEKS2_EEEEEEEERKNS_9DenseBaseIT_EE, symObjAddr: 0x1F7D8, symBinAddr: 0x100021D80, symSize: 0x80 }
  - { offsetInCU: 0x79E49, offset: 0x79E49, size: 0x8, addend: 0x0, symName: __ZN5Eigen9ArrayBaseINS_5ArrayIdLin1ELi1ELi0ELin1ELi1EEEEC2Ev, symObjAddr: 0x1F858, symBinAddr: 0x100021E00, symSize: 0x2C }
  - { offsetInCU: 0x79E73, offset: 0x79E73, size: 0x8, addend: 0x0, symName: __ZN5Eigen12DenseStorageIdLin1ELin1ELi1ELi0EEC1Ev, symObjAddr: 0x1F884, symBinAddr: 0x100021E2C, symSize: 0x2C }
  - { offsetInCU: 0x79E9D, offset: 0x79E9D, size: 0x8, addend: 0x0, symName: __ZN5Eigen15PlainObjectBaseINS_5ArrayIdLin1ELi1ELi0ELin1ELi1EEEE10resizeLikeINS_12CwiseUnaryOpINS_8internal13scalar_exp_opIdEEKNS_13CwiseBinaryOpINS6_20scalar_difference_opIddEEKNS_3MapIS2_Li0ENS_6StrideILi0ELi0EEEEEKNS_14CwiseNullaryOpINS6_18scalar_constant_opIdEEKS2_EEEEEEEEvRKNS_9EigenBaseIT_EE, symObjAddr: 0x1F8B0, symBinAddr: 0x100021E58, symSize: 0x170 }
  - { offsetInCU: 0x79F31, offset: 0x79F31, size: 0x8, addend: 0x0, symName: __ZN5Eigen15PlainObjectBaseINS_5ArrayIdLin1ELi1ELi0ELin1ELi1EEEE12_set_noaliasINS_12CwiseUnaryOpINS_8internal13scalar_exp_opIdEEKNS_13CwiseBinaryOpINS6_20scalar_difference_opIddEEKNS_3MapIS2_Li0ENS_6StrideILi0ELi0EEEEEKNS_14CwiseNullaryOpINS6_18scalar_constant_opIdEEKS2_EEEEEEEERS2_RKNS_9DenseBaseIT_EE, symObjAddr: 0x1FA20, symBinAddr: 0x100021FC8, symSize: 0x60 }
  - { offsetInCU: 0x79F6F, offset: 0x79F6F, size: 0x8, addend: 0x0, symName: __ZN5Eigen12DenseStorageIdLin1ELin1ELi1ELi0EED1Ev, symObjAddr: 0x1FA80, symBinAddr: 0x100022028, symSize: 0x2C }
  - { offsetInCU: 0x79F99, offset: 0x79F99, size: 0x8, addend: 0x0, symName: __ZN5Eigen9DenseBaseINS_5ArrayIdLin1ELi1ELi0ELin1ELi1EEEEC2Ev, symObjAddr: 0x1FAAC, symBinAddr: 0x100022054, symSize: 0x14 }
  - { offsetInCU: 0x79FC3, offset: 0x79FC3, size: 0x8, addend: 0x0, symName: __ZN5Eigen12DenseStorageIdLin1ELin1ELi1ELi0EEC2Ev, symObjAddr: 0x1FAC0, symBinAddr: 0x100022068, symSize: 0x1C }
  - { offsetInCU: 0x79FED, offset: 0x79FED, size: 0x8, addend: 0x0, symName: __ZNK5Eigen12CwiseUnaryOpINS_8internal13scalar_exp_opIdEEKNS_13CwiseBinaryOpINS1_20scalar_difference_opIddEEKNS_3MapINS_5ArrayIdLin1ELi1ELi0ELin1ELi1EEELi0ENS_6StrideILi0ELi0EEEEEKNS_14CwiseNullaryOpINS1_18scalar_constant_opIdEEKS9_EEEEE4rowsEv, symObjAddr: 0x1FADC, symBinAddr: 0x100022084, symSize: 0x28 }
  - { offsetInCU: 0x7A013, offset: 0x7A013, size: 0x8, addend: 0x0, symName: __ZNK5Eigen12CwiseUnaryOpINS_8internal13scalar_exp_opIdEEKNS_13CwiseBinaryOpINS1_20scalar_difference_opIddEEKNS_3MapINS_5ArrayIdLin1ELi1ELi0ELin1ELi1EEELi0ENS_6StrideILi0ELi0EEEEEKNS_14CwiseNullaryOpINS1_18scalar_constant_opIdEEKS9_EEEEE4colsEv, symObjAddr: 0x1FB04, symBinAddr: 0x1000220AC, symSize: 0x28 }
  - { offsetInCU: 0x7A039, offset: 0x7A039, size: 0x8, addend: 0x0, symName: __ZN5Eigen15PlainObjectBaseINS_5ArrayIdLin1ELi1ELi0ELin1ELi1EEEE6resizeEll, symObjAddr: 0x1FB2C, symBinAddr: 0x1000220D4, symSize: 0x168 }
  - { offsetInCU: 0x7A0B5, offset: 0x7A0B5, size: 0x8, addend: 0x0, symName: __ZNK5Eigen13CwiseBinaryOpINS_8internal20scalar_difference_opIddEEKNS_3MapINS_5ArrayIdLin1ELi1ELi0ELin1ELi1EEELi0ENS_6StrideILi0ELi0EEEEEKNS_14CwiseNullaryOpINS1_18scalar_constant_opIdEEKS6_EEE4rowsEv, symObjAddr: 0x1FC94, symBinAddr: 0x10002223C, symSize: 0x28 }
  - { offsetInCU: 0x7A0DB, offset: 0x7A0DB, size: 0x8, addend: 0x0, symName: __ZNK5Eigen13CwiseBinaryOpINS_8internal20scalar_difference_opIddEEKNS_3MapINS_5ArrayIdLin1ELi1ELi0ELin1ELi1EEELi0ENS_6StrideILi0ELi0EEEEEKNS_14CwiseNullaryOpINS1_18scalar_constant_opIdEEKS6_EEE4colsEv, symObjAddr: 0x1FCBC, symBinAddr: 0x100022264, symSize: 0x24 }
  - { offsetInCU: 0x7A101, offset: 0x7A101, size: 0x8, addend: 0x0, symName: __ZN5Eigen12DenseStorageIdLin1ELin1ELi1ELi0EE6resizeElll, symObjAddr: 0x1FCE0, symBinAddr: 0x100022288, symSize: 0xA4 }
  - { offsetInCU: 0x7A150, offset: 0x7A150, size: 0x8, addend: 0x0, symName: __ZN5Eigen9EigenBaseINS_5ArrayIdLin1ELi1ELi0ELin1ELi1EEEE7derivedEv, symObjAddr: 0x1FDC0, symBinAddr: 0x100022368, symSize: 0x14 }
  - { offsetInCU: 0x7A176, offset: 0x7A176, size: 0x8, addend: 0x0, symName: __ZN5Eigen8internal10AssignmentINS_5ArrayIdLin1ELi1ELi0ELin1ELi1EEENS_12CwiseUnaryOpINS0_13scalar_exp_opIdEEKNS_13CwiseBinaryOpINS0_20scalar_difference_opIddEEKNS_3MapIS3_Li0ENS_6StrideILi0ELi0EEEEEKNS_14CwiseNullaryOpINS0_18scalar_constant_opIdEEKS3_EEEEEENS0_9assign_opIddEENS0_11Dense2DenseEvE3runERS3_RKSN_RKSP_, symObjAddr: 0x1FDD4, symBinAddr: 0x10002237C, symSize: 0x40 }
  - { offsetInCU: 0x7A1B8, offset: 0x7A1B8, size: 0x8, addend: 0x0, symName: __ZN5Eigen8internal9evaluatorINS_12CwiseUnaryOpINS0_13scalar_exp_opIdEEKNS_13CwiseBinaryOpINS0_20scalar_difference_opIddEEKNS_3MapINS_5ArrayIdLin1ELi1ELi0ELin1ELi1EEELi0ENS_6StrideILi0ELi0EEEEEKNS_14CwiseNullaryOpINS0_18scalar_constant_opIdEEKSA_EEEEEEEC1ERKSN_, symObjAddr: 0x1FF08, symBinAddr: 0x1000224B0, symSize: 0x34 }
  - { offsetInCU: 0x7A1F0, offset: 0x7A1F0, size: 0x8, addend: 0x0, symName: __ZN5Eigen8internal9evaluatorINS_5ArrayIdLin1ELi1ELi0ELin1ELi1EEEEC1ERKS3_, symObjAddr: 0x20034, symBinAddr: 0x1000225DC, symSize: 0x34 }
  - { offsetInCU: 0x7A229, offset: 0x7A229, size: 0x8, addend: 0x0, symName: __ZNK5Eigen9EigenBaseINS_5ArrayIdLin1ELi1ELi0ELin1ELi1EEEE18const_cast_derivedEv, symObjAddr: 0x20068, symBinAddr: 0x100022610, symSize: 0x14 }
  - { offsetInCU: 0x7A24F, offset: 0x7A24F, size: 0x8, addend: 0x0, symName: __ZN5Eigen8internal31generic_dense_assignment_kernelINS0_9evaluatorINS_5ArrayIdLin1ELi1ELi0ELin1ELi1EEEEENS2_INS_12CwiseUnaryOpINS0_13scalar_exp_opIdEEKNS_13CwiseBinaryOpINS0_20scalar_difference_opIddEEKNS_3MapIS4_Li0ENS_6StrideILi0ELi0EEEEEKNS_14CwiseNullaryOpINS0_18scalar_constant_opIdEEKS4_EEEEEEEENS0_9assign_opIddEELi0EEC1ERS5_RKSQ_RKSS_RS4_, symObjAddr: 0x2007C, symBinAddr: 0x100022624, symSize: 0x4C }
  - { offsetInCU: 0x7A2B5, offset: 0x7A2B5, size: 0x8, addend: 0x0, symName: __ZN5Eigen8internal9evaluatorINS_5ArrayIdLin1ELi1ELi0ELin1ELi1EEEED1Ev, symObjAddr: 0x20170, symBinAddr: 0x100022718, symSize: 0x2C }
  - { offsetInCU: 0x7A2E2, offset: 0x7A2E2, size: 0x8, addend: 0x0, symName: __ZN5Eigen8internal9evaluatorINS_12CwiseUnaryOpINS0_13scalar_exp_opIdEEKNS_13CwiseBinaryOpINS0_20scalar_difference_opIddEEKNS_3MapINS_5ArrayIdLin1ELi1ELi0ELin1ELi1EEELi0ENS_6StrideILi0ELi0EEEEEKNS_14CwiseNullaryOpINS0_18scalar_constant_opIdEEKSA_EEEEEEED1Ev, symObjAddr: 0x2019C, symBinAddr: 0x100022744, symSize: 0x2C }
  - { offsetInCU: 0x7A30E, offset: 0x7A30E, size: 0x8, addend: 0x0, symName: __ZN5Eigen8internal9evaluatorINS_12CwiseUnaryOpINS0_13scalar_exp_opIdEEKNS_13CwiseBinaryOpINS0_20scalar_difference_opIddEEKNS_3MapINS_5ArrayIdLin1ELi1ELi0ELin1ELi1EEELi0ENS_6StrideILi0ELi0EEEEEKNS_14CwiseNullaryOpINS0_18scalar_constant_opIdEEKSA_EEEEEEEC2ERKSN_, symObjAddr: 0x201C8, symBinAddr: 0x100022770, symSize: 0x34 }
  - { offsetInCU: 0x7A346, offset: 0x7A346, size: 0x8, addend: 0x0, symName: __ZN5Eigen8internal15unary_evaluatorINS_12CwiseUnaryOpINS0_13scalar_exp_opIdEEKNS_13CwiseBinaryOpINS0_20scalar_difference_opIddEEKNS_3MapINS_5ArrayIdLin1ELi1ELi0ELin1ELi1EEELi0ENS_6StrideILi0ELi0EEEEEKNS_14CwiseNullaryOpINS0_18scalar_constant_opIdEEKSA_EEEEEENS0_10IndexBasedEdEC2ERKSN_, symObjAddr: 0x201FC, symBinAddr: 0x1000227A4, symSize: 0x64 }
  - { offsetInCU: 0x7A37F, offset: 0x7A37F, size: 0x8, addend: 0x0, symName: __ZN5Eigen8internal14evaluator_baseINS_12CwiseUnaryOpINS0_13scalar_exp_opIdEEKNS_13CwiseBinaryOpINS0_20scalar_difference_opIddEEKNS_3MapINS_5ArrayIdLin1ELi1ELi0ELin1ELi1EEELi0ENS_6StrideILi0ELi0EEEEEKNS_14CwiseNullaryOpINS0_18scalar_constant_opIdEEKSA_EEEEEEEC2Ev, symObjAddr: 0x20260, symBinAddr: 0x100022808, symSize: 0x14 }
  - { offsetInCU: 0x7A3A9, offset: 0x7A3A9, size: 0x8, addend: 0x0, symName: __ZN5Eigen8internal15unary_evaluatorINS_12CwiseUnaryOpINS0_13scalar_exp_opIdEEKNS_13CwiseBinaryOpINS0_20scalar_difference_opIddEEKNS_3MapINS_5ArrayIdLin1ELi1ELi0ELin1ELi1EEELi0ENS_6StrideILi0ELi0EEEEEKNS_14CwiseNullaryOpINS0_18scalar_constant_opIdEEKSA_EEEEEENS0_10IndexBasedEdE4DataC1ERKSN_, symObjAddr: 0x20274, symBinAddr: 0x10002281C, symSize: 0x34 }
  - { offsetInCU: 0x7A3E2, offset: 0x7A3E2, size: 0x8, addend: 0x0, symName: __ZN5Eigen8internal14evaluator_baseINS_12CwiseUnaryOpINS0_13scalar_exp_opIdEEKNS_13CwiseBinaryOpINS0_20scalar_difference_opIddEEKNS_3MapINS_5ArrayIdLin1ELi1ELi0ELin1ELi1EEELi0ENS_6StrideILi0ELi0EEEEEKNS_14CwiseNullaryOpINS0_18scalar_constant_opIdEEKSA_EEEEEEED2Ev, symObjAddr: 0x202A8, symBinAddr: 0x100022850, symSize: 0x14 }
  - { offsetInCU: 0x7A40C, offset: 0x7A40C, size: 0x8, addend: 0x0, symName: __ZN5Eigen8internal15unary_evaluatorINS_12CwiseUnaryOpINS0_13scalar_exp_opIdEEKNS_13CwiseBinaryOpINS0_20scalar_difference_opIddEEKNS_3MapINS_5ArrayIdLin1ELi1ELi0ELin1ELi1EEELi0ENS_6StrideILi0ELi0EEEEEKNS_14CwiseNullaryOpINS0_18scalar_constant_opIdEEKSA_EEEEEENS0_10IndexBasedEdE4DataC2ERKSN_, symObjAddr: 0x202BC, symBinAddr: 0x100022864, symSize: 0x58 }
  - { offsetInCU: 0x7A445, offset: 0x7A445, size: 0x8, addend: 0x0, symName: __ZNK5Eigen12CwiseUnaryOpINS_8internal13scalar_exp_opIdEEKNS_13CwiseBinaryOpINS1_20scalar_difference_opIddEEKNS_3MapINS_5ArrayIdLin1ELi1ELi0ELin1ELi1EEELi0ENS_6StrideILi0ELi0EEEEEKNS_14CwiseNullaryOpINS1_18scalar_constant_opIdEEKS9_EEEEE7functorEv, symObjAddr: 0x20314, symBinAddr: 0x1000228BC, symSize: 0x18 }
  - { offsetInCU: 0x7A46B, offset: 0x7A46B, size: 0x8, addend: 0x0, symName: __ZNK5Eigen12CwiseUnaryOpINS_8internal13scalar_exp_opIdEEKNS_13CwiseBinaryOpINS1_20scalar_difference_opIddEEKNS_3MapINS_5ArrayIdLin1ELi1ELi0ELin1ELi1EEELi0ENS_6StrideILi0ELi0EEEEEKNS_14CwiseNullaryOpINS1_18scalar_constant_opIdEEKS9_EEEEE16nestedExpressionEv, symObjAddr: 0x2032C, symBinAddr: 0x1000228D4, symSize: 0x18 }
  - { offsetInCU: 0x7A491, offset: 0x7A491, size: 0x8, addend: 0x0, symName: __ZN5Eigen8internal9evaluatorIKNS_13CwiseBinaryOpINS0_20scalar_difference_opIddEEKNS_3MapINS_5ArrayIdLin1ELi1ELi0ELin1ELi1EEELi0ENS_6StrideILi0ELi0EEEEEKNS_14CwiseNullaryOpINS0_18scalar_constant_opIdEEKS7_EEEEEC1ERSJ_, symObjAddr: 0x20344, symBinAddr: 0x1000228EC, symSize: 0x34 }
  - { offsetInCU: 0x7A4C9, offset: 0x7A4C9, size: 0x8, addend: 0x0, symName: __ZN5Eigen8internal9evaluatorIKNS_13CwiseBinaryOpINS0_20scalar_difference_opIddEEKNS_3MapINS_5ArrayIdLin1ELi1ELi0ELin1ELi1EEELi0ENS_6StrideILi0ELi0EEEEEKNS_14CwiseNullaryOpINS0_18scalar_constant_opIdEEKS7_EEEEEC2ERSJ_, symObjAddr: 0x20378, symBinAddr: 0x100022920, symSize: 0x34 }
  - { offsetInCU: 0x7A501, offset: 0x7A501, size: 0x8, addend: 0x0, symName: __ZN5Eigen8internal9evaluatorINS_13CwiseBinaryOpINS0_20scalar_difference_opIddEEKNS_3MapINS_5ArrayIdLin1ELi1ELi0ELin1ELi1EEELi0ENS_6StrideILi0ELi0EEEEEKNS_14CwiseNullaryOpINS0_18scalar_constant_opIdEEKS7_EEEEEC2ERKSI_, symObjAddr: 0x203AC, symBinAddr: 0x100022954, symSize: 0x34 }
  - { offsetInCU: 0x7A53A, offset: 0x7A53A, size: 0x8, addend: 0x0, symName: __ZN5Eigen8internal16binary_evaluatorINS_13CwiseBinaryOpINS0_20scalar_difference_opIddEEKNS_3MapINS_5ArrayIdLin1ELi1ELi0ELin1ELi1EEELi0ENS_6StrideILi0ELi0EEEEEKNS_14CwiseNullaryOpINS0_18scalar_constant_opIdEEKS7_EEEENS0_10IndexBasedESJ_ddEC2ERKSI_, symObjAddr: 0x203E0, symBinAddr: 0x100022988, symSize: 0x64 }
  - { offsetInCU: 0x7A573, offset: 0x7A573, size: 0x8, addend: 0x0, symName: __ZN5Eigen8internal14evaluator_baseINS_13CwiseBinaryOpINS0_20scalar_difference_opIddEEKNS_3MapINS_5ArrayIdLin1ELi1ELi0ELin1ELi1EEELi0ENS_6StrideILi0ELi0EEEEEKNS_14CwiseNullaryOpINS0_18scalar_constant_opIdEEKS7_EEEEEC2Ev, symObjAddr: 0x20444, symBinAddr: 0x1000229EC, symSize: 0x14 }
  - { offsetInCU: 0x7A59D, offset: 0x7A59D, size: 0x8, addend: 0x0, symName: __ZN5Eigen8internal16binary_evaluatorINS_13CwiseBinaryOpINS0_20scalar_difference_opIddEEKNS_3MapINS_5ArrayIdLin1ELi1ELi0ELin1ELi1EEELi0ENS_6StrideILi0ELi0EEEEEKNS_14CwiseNullaryOpINS0_18scalar_constant_opIdEEKS7_EEEENS0_10IndexBasedESJ_ddE4DataC1ERKSI_, symObjAddr: 0x20458, symBinAddr: 0x100022A00, symSize: 0x34 }
  - { offsetInCU: 0x7A5D6, offset: 0x7A5D6, size: 0x8, addend: 0x0, symName: __ZN5Eigen8internal14evaluator_baseINS_13CwiseBinaryOpINS0_20scalar_difference_opIddEEKNS_3MapINS_5ArrayIdLin1ELi1ELi0ELin1ELi1EEELi0ENS_6StrideILi0ELi0EEEEEKNS_14CwiseNullaryOpINS0_18scalar_constant_opIdEEKS7_EEEEED2Ev, symObjAddr: 0x2048C, symBinAddr: 0x100022A34, symSize: 0x14 }
  - { offsetInCU: 0x7A600, offset: 0x7A600, size: 0x8, addend: 0x0, symName: __ZN5Eigen8internal16binary_evaluatorINS_13CwiseBinaryOpINS0_20scalar_difference_opIddEEKNS_3MapINS_5ArrayIdLin1ELi1ELi0ELin1ELi1EEELi0ENS_6StrideILi0ELi0EEEEEKNS_14CwiseNullaryOpINS0_18scalar_constant_opIdEEKS7_EEEENS0_10IndexBasedESJ_ddE4DataC2ERKSI_, symObjAddr: 0x204A0, symBinAddr: 0x100022A48, symSize: 0xA8 }
  - { offsetInCU: 0x7A639, offset: 0x7A639, size: 0x8, addend: 0x0, symName: __ZNK5Eigen13CwiseBinaryOpINS_8internal20scalar_difference_opIddEEKNS_3MapINS_5ArrayIdLin1ELi1ELi0ELin1ELi1EEELi0ENS_6StrideILi0ELi0EEEEEKNS_14CwiseNullaryOpINS1_18scalar_constant_opIdEEKS6_EEE7functorEv, symObjAddr: 0x20548, symBinAddr: 0x100022AF0, symSize: 0x18 }
  - { offsetInCU: 0x7A65F, offset: 0x7A65F, size: 0x8, addend: 0x0, symName: __ZNK5Eigen13CwiseBinaryOpINS_8internal20scalar_difference_opIddEEKNS_3MapINS_5ArrayIdLin1ELi1ELi0ELin1ELi1EEELi0ENS_6StrideILi0ELi0EEEEEKNS_14CwiseNullaryOpINS1_18scalar_constant_opIdEEKS6_EEE3lhsEv, symObjAddr: 0x20560, symBinAddr: 0x100022B08, symSize: 0x14 }
  - { offsetInCU: 0x7A685, offset: 0x7A685, size: 0x8, addend: 0x0, symName: __ZN5Eigen8internal9evaluatorIKNS_3MapINS_5ArrayIdLin1ELi1ELi0ELin1ELi1EEELi0ENS_6StrideILi0ELi0EEEEEEC1ERS8_, symObjAddr: 0x20574, symBinAddr: 0x100022B1C, symSize: 0x34 }
  - { offsetInCU: 0x7A6BD, offset: 0x7A6BD, size: 0x8, addend: 0x0, symName: __ZNK5Eigen13CwiseBinaryOpINS_8internal20scalar_difference_opIddEEKNS_3MapINS_5ArrayIdLin1ELi1ELi0ELin1ELi1EEELi0ENS_6StrideILi0ELi0EEEEEKNS_14CwiseNullaryOpINS1_18scalar_constant_opIdEEKS6_EEE3rhsEv, symObjAddr: 0x205A8, symBinAddr: 0x100022B50, symSize: 0x18 }
  - { offsetInCU: 0x7A6E3, offset: 0x7A6E3, size: 0x8, addend: 0x0, symName: __ZN5Eigen8internal9evaluatorIKNS_14CwiseNullaryOpINS0_18scalar_constant_opIdEEKNS_5ArrayIdLin1ELi1ELi0ELin1ELi1EEEEEEC1ERS9_, symObjAddr: 0x205C0, symBinAddr: 0x100022B68, symSize: 0x34 }
  - { offsetInCU: 0x7A71B, offset: 0x7A71B, size: 0x8, addend: 0x0, symName: __ZN5Eigen8internal9evaluatorIKNS_3MapINS_5ArrayIdLin1ELi1ELi0ELin1ELi1EEELi0ENS_6StrideILi0ELi0EEEEEED1Ev, symObjAddr: 0x205F4, symBinAddr: 0x100022B9C, symSize: 0x2C }
  - { offsetInCU: 0x7A747, offset: 0x7A747, size: 0x8, addend: 0x0, symName: __ZN5Eigen8internal9evaluatorIKNS_3MapINS_5ArrayIdLin1ELi1ELi0ELin1ELi1EEELi0ENS_6StrideILi0ELi0EEEEEEC2ERS8_, symObjAddr: 0x20620, symBinAddr: 0x100022BC8, symSize: 0x34 }
  - { offsetInCU: 0x7A77F, offset: 0x7A77F, size: 0x8, addend: 0x0, symName: __ZN5Eigen8internal9evaluatorIKNS_14CwiseNullaryOpINS0_18scalar_constant_opIdEEKNS_5ArrayIdLin1ELi1ELi0ELin1ELi1EEEEEEC2ERS9_, symObjAddr: 0x20654, symBinAddr: 0x100022BFC, symSize: 0x34 }
  - { offsetInCU: 0x7A7B7, offset: 0x7A7B7, size: 0x8, addend: 0x0, symName: __ZN5Eigen8internal9evaluatorINS_14CwiseNullaryOpINS0_18scalar_constant_opIdEEKNS_5ArrayIdLin1ELi1ELi0ELin1ELi1EEEEEEC2ERKS8_, symObjAddr: 0x20688, symBinAddr: 0x100022C30, symSize: 0x74 }
  - { offsetInCU: 0x7A7F0, offset: 0x7A7F0, size: 0x8, addend: 0x0, symName: __ZN5Eigen8internal14evaluator_baseINS_14CwiseNullaryOpINS0_18scalar_constant_opIdEEKNS_5ArrayIdLin1ELi1ELi0ELin1ELi1EEEEEEC2Ev, symObjAddr: 0x206FC, symBinAddr: 0x100022CA4, symSize: 0x14 }
  - { offsetInCU: 0x7A81A, offset: 0x7A81A, size: 0x8, addend: 0x0, symName: __ZNK5Eigen14CwiseNullaryOpINS_8internal18scalar_constant_opIdEEKNS_5ArrayIdLin1ELi1ELi0ELin1ELi1EEEE7functorEv, symObjAddr: 0x20710, symBinAddr: 0x100022CB8, symSize: 0x18 }
  - { offsetInCU: 0x7A840, offset: 0x7A840, size: 0x8, addend: 0x0, symName: __ZN5Eigen8internal14evaluator_baseINS_14CwiseNullaryOpINS0_18scalar_constant_opIdEEKNS_5ArrayIdLin1ELi1ELi0ELin1ELi1EEEEEED2Ev, symObjAddr: 0x20728, symBinAddr: 0x100022CD0, symSize: 0x14 }
  - { offsetInCU: 0x7A86A, offset: 0x7A86A, size: 0x8, addend: 0x0, symName: __ZN5Eigen8internal9evaluatorIKNS_3MapINS_5ArrayIdLin1ELi1ELi0ELin1ELi1EEELi0ENS_6StrideILi0ELi0EEEEEED2Ev, symObjAddr: 0x2073C, symBinAddr: 0x100022CE4, symSize: 0x2C }
  - { offsetInCU: 0x7A896, offset: 0x7A896, size: 0x8, addend: 0x0, symName: __ZNK5Eigen15PlainObjectBaseINS_5ArrayIdLin1ELi1ELi0ELin1ELi1EEEE4rowsEv, symObjAddr: 0x20768, symBinAddr: 0x100022D10, symSize: 0x24 }
  - { offsetInCU: 0x7A8BC, offset: 0x7A8BC, size: 0x8, addend: 0x0, symName: __ZNK5Eigen15PlainObjectBaseINS_5ArrayIdLin1ELi1ELi0ELin1ELi1EEEE4colsEv, symObjAddr: 0x2078C, symBinAddr: 0x100022D34, symSize: 0x30 }
  - { offsetInCU: 0x7A8E2, offset: 0x7A8E2, size: 0x8, addend: 0x0, symName: __ZNK5Eigen12DenseStorageIdLin1ELin1ELi1ELi0EE4rowsEv, symObjAddr: 0x207BC, symBinAddr: 0x100022D64, symSize: 0x18 }
  - { offsetInCU: 0x7A908, offset: 0x7A908, size: 0x8, addend: 0x0, symName: __ZN5Eigen12DenseStorageIdLin1ELin1ELi1ELi0EE4colsEv, symObjAddr: 0x207D4, symBinAddr: 0x100022D7C, symSize: 0x8 }
  - { offsetInCU: 0x7A91C, offset: 0x7A91C, size: 0x8, addend: 0x0, symName: __ZN5Eigen8internal9evaluatorINS_5ArrayIdLin1ELi1ELi0ELin1ELi1EEEEC2ERKS3_, symObjAddr: 0x207DC, symBinAddr: 0x100022D84, symSize: 0x34 }
  - { offsetInCU: 0x7A955, offset: 0x7A955, size: 0x8, addend: 0x0, symName: __ZN5Eigen8internal9evaluatorINS_15PlainObjectBaseINS_5ArrayIdLin1ELi1ELi0ELin1ELi1EEEEEEC2ERKS5_, symObjAddr: 0x20810, symBinAddr: 0x100022DB8, symSize: 0x78 }
  - { offsetInCU: 0x7A98D, offset: 0x7A98D, size: 0x8, addend: 0x0, symName: __ZN5Eigen8internal14evaluator_baseINS_5ArrayIdLin1ELi1ELi0ELin1ELi1EEEEC2Ev, symObjAddr: 0x20888, symBinAddr: 0x100022E30, symSize: 0x14 }
  - { offsetInCU: 0x7A9B7, offset: 0x7A9B7, size: 0x8, addend: 0x0, symName: __ZNK5Eigen15PlainObjectBaseINS_5ArrayIdLin1ELi1ELi0ELin1ELi1EEEE4dataEv, symObjAddr: 0x2089C, symBinAddr: 0x100022E44, symSize: 0x24 }
  - { offsetInCU: 0x7A9DD, offset: 0x7A9DD, size: 0x8, addend: 0x0, symName: __ZN5Eigen8internal30plainobjectbase_evaluator_dataIdLi0EEC1EPKdl, symObjAddr: 0x208C0, symBinAddr: 0x100022E68, symSize: 0x3C }
  - { offsetInCU: 0x7AA23, offset: 0x7AA23, size: 0x8, addend: 0x0, symName: __ZN5Eigen8internal14evaluator_baseINS_5ArrayIdLin1ELi1ELi0ELin1ELi1EEEED2Ev, symObjAddr: 0x208FC, symBinAddr: 0x100022EA4, symSize: 0x14 }
  - { offsetInCU: 0x7AA4D, offset: 0x7AA4D, size: 0x8, addend: 0x0, symName: __ZNK5Eigen12DenseStorageIdLin1ELin1ELi1ELi0EE4dataEv, symObjAddr: 0x20910, symBinAddr: 0x100022EB8, symSize: 0x18 }
  - { offsetInCU: 0x7AA73, offset: 0x7AA73, size: 0x8, addend: 0x0, symName: __ZN5Eigen8internal30plainobjectbase_evaluator_dataIdLi0EEC2EPKdl, symObjAddr: 0x20928, symBinAddr: 0x100022ED0, symSize: 0x40 }
  - { offsetInCU: 0x7AAB9, offset: 0x7AAB9, size: 0x8, addend: 0x0, symName: __ZN5Eigen8internal31generic_dense_assignment_kernelINS0_9evaluatorINS_5ArrayIdLin1ELi1ELi0ELin1ELi1EEEEENS2_INS_12CwiseUnaryOpINS0_13scalar_exp_opIdEEKNS_13CwiseBinaryOpINS0_20scalar_difference_opIddEEKNS_3MapIS4_Li0ENS_6StrideILi0ELi0EEEEEKNS_14CwiseNullaryOpINS0_18scalar_constant_opIdEEKS4_EEEEEEEENS0_9assign_opIddEELi0EEC2ERS5_RKSQ_RKSS_RS4_, symObjAddr: 0x20968, symBinAddr: 0x100022F10, symSize: 0x44 }
  - { offsetInCU: 0x7AB1F, offset: 0x7AB1F, size: 0x8, addend: 0x0, symName: __ZNK5Eigen8internal31generic_dense_assignment_kernelINS0_9evaluatorINS_5ArrayIdLin1ELi1ELi0ELin1ELi1EEEEENS2_INS_12CwiseUnaryOpINS0_13scalar_exp_opIdEEKNS_13CwiseBinaryOpINS0_20scalar_difference_opIddEEKNS_3MapIS4_Li0ENS_6StrideILi0ELi0EEEEEKNS_14CwiseNullaryOpINS0_18scalar_constant_opIdEEKS4_EEEEEEEENS0_9assign_opIddEELi0EE4sizeEv, symObjAddr: 0x209AC, symBinAddr: 0x100022F54, symSize: 0x28 }
  - { offsetInCU: 0x7AB45, offset: 0x7AB45, size: 0x8, addend: 0x0, symName: __ZN5Eigen8internal31unaligned_dense_assignment_loopILb1EE3runINS0_31generic_dense_assignment_kernelINS0_9evaluatorINS_5ArrayIdLin1ELi1ELi0ELin1ELi1EEEEENS5_INS_12CwiseUnaryOpINS0_13scalar_exp_opIdEEKNS_13CwiseBinaryOpINS0_20scalar_difference_opIddEEKNS_3MapIS7_Li0ENS_6StrideILi0ELi0EEEEEKNS_14CwiseNullaryOpINS0_18scalar_constant_opIdEEKS7_EEEEEEEENS0_9assign_opIddEELi0EEEEEvRT_ll, symObjAddr: 0x209D4, symBinAddr: 0x100022F7C, symSize: 0x18 }
  - { offsetInCU: 0x7AB84, offset: 0x7AB84, size: 0x8, addend: 0x0, symName: __ZN5Eigen8internal31generic_dense_assignment_kernelINS0_9evaluatorINS_5ArrayIdLin1ELi1ELi0ELin1ELi1EEEEENS2_INS_12CwiseUnaryOpINS0_13scalar_exp_opIdEEKNS_13CwiseBinaryOpINS0_20scalar_difference_opIddEEKNS_3MapIS4_Li0ENS_6StrideILi0ELi0EEEEEKNS_14CwiseNullaryOpINS0_18scalar_constant_opIdEEKS4_EEEEEEEENS0_9assign_opIddEELi0EE12assignPacketILi16ELi0E19__simd128_float64_tEEvl, symObjAddr: 0x209EC, symBinAddr: 0x100022F94, symSize: 0x64 }
  - { offsetInCU: 0x7ABD6, offset: 0x7ABD6, size: 0x8, addend: 0x0, symName: __ZN5Eigen8internal31unaligned_dense_assignment_loopILb0EE3runINS0_31generic_dense_assignment_kernelINS0_9evaluatorINS_5ArrayIdLin1ELi1ELi0ELin1ELi1EEEEENS5_INS_12CwiseUnaryOpINS0_13scalar_exp_opIdEEKNS_13CwiseBinaryOpINS0_20scalar_difference_opIddEEKNS_3MapIS7_Li0ENS_6StrideILi0ELi0EEEEEKNS_14CwiseNullaryOpINS0_18scalar_constant_opIdEEKS7_EEEEEEEENS0_9assign_opIddEELi0EEEEEvRT_ll, symObjAddr: 0x20A50, symBinAddr: 0x100022FF8, symSize: 0x68 }
  - { offsetInCU: 0x7AC3E, offset: 0x7AC3E, size: 0x8, addend: 0x0, symName: __ZNK5Eigen9EigenBaseINS_5ArrayIdLin1ELi1ELi0ELin1ELi1EEEE4sizeEv, symObjAddr: 0x20AB8, symBinAddr: 0x100023060, symSize: 0x44 }
  - { offsetInCU: 0x7AC64, offset: 0x7AC64, size: 0x8, addend: 0x0, symName: __ZNK5Eigen9EigenBaseINS_5ArrayIdLin1ELi1ELi0ELin1ELi1EEEE4rowsEv, symObjAddr: 0x20AFC, symBinAddr: 0x1000230A4, symSize: 0x38 }
  - { offsetInCU: 0x7AC8A, offset: 0x7AC8A, size: 0x8, addend: 0x0, symName: __ZNK5Eigen9EigenBaseINS_5ArrayIdLin1ELi1ELi0ELin1ELi1EEEE4colsEv, symObjAddr: 0x20B34, symBinAddr: 0x1000230DC, symSize: 0x28 }
  - { offsetInCU: 0x7ACB0, offset: 0x7ACB0, size: 0x8, addend: 0x0, symName: __ZNK5Eigen9EigenBaseINS_5ArrayIdLin1ELi1ELi0ELin1ELi1EEEE7derivedEv, symObjAddr: 0x20B5C, symBinAddr: 0x100023104, symSize: 0x14 }
  - { offsetInCU: 0x7ACD6, offset: 0x7ACD6, size: 0x8, addend: 0x0, symName: __ZN5Eigen8internal9evaluatorINS_15PlainObjectBaseINS_5ArrayIdLin1ELi1ELi0ELin1ELi1EEEEEE8coeffRefEl, symObjAddr: 0x20B70, symBinAddr: 0x100023118, symSize: 0x24 }
  - { offsetInCU: 0x7AD0A, offset: 0x7AD0A, size: 0x8, addend: 0x0, symName: __ZNK5Eigen8internal15unary_evaluatorINS_12CwiseUnaryOpINS0_13scalar_exp_opIdEEKNS_13CwiseBinaryOpINS0_20scalar_difference_opIddEEKNS_3MapINS_5ArrayIdLin1ELi1ELi0ELin1ELi1EEELi0ENS_6StrideILi0ELi0EEEEEKNS_14CwiseNullaryOpINS0_18scalar_constant_opIdEEKSA_EEEEEENS0_10IndexBasedEdE6packetILi0E19__simd128_float64_tEET0_l, symObjAddr: 0x20B94, symBinAddr: 0x10002313C, symSize: 0x50 }
  - { offsetInCU: 0x7AD52, offset: 0x7AD52, size: 0x8, addend: 0x0, symName: __ZNK5Eigen8internal15unary_evaluatorINS_12CwiseUnaryOpINS0_13scalar_exp_opIdEEKNS_13CwiseBinaryOpINS0_20scalar_difference_opIddEEKNS_3MapINS_5ArrayIdLin1ELi1ELi0ELin1ELi1EEELi0ENS_6StrideILi0ELi0EEEEEKNS_14CwiseNullaryOpINS0_18scalar_constant_opIdEEKSA_EEEEEENS0_10IndexBasedEdE4Data4funcEv, symObjAddr: 0x20BE4, symBinAddr: 0x10002318C, symSize: 0x14 }
  - { offsetInCU: 0x7AD78, offset: 0x7AD78, size: 0x8, addend: 0x0, symName: __ZNK5Eigen8internal13scalar_exp_opIdE8packetOpI19__simd128_float64_tEET_RKS5_, symObjAddr: 0x20BF8, symBinAddr: 0x1000231A0, symSize: 0x28 }
  - { offsetInCU: 0x7ADB6, offset: 0x7ADB6, size: 0x8, addend: 0x0, symName: __ZNK5Eigen8internal16binary_evaluatorINS_13CwiseBinaryOpINS0_20scalar_difference_opIddEEKNS_3MapINS_5ArrayIdLin1ELi1ELi0ELin1ELi1EEELi0ENS_6StrideILi0ELi0EEEEEKNS_14CwiseNullaryOpINS0_18scalar_constant_opIdEEKS7_EEEENS0_10IndexBasedESJ_ddE6packetILi0E19__simd128_float64_tEET0_l, symObjAddr: 0x20C20, symBinAddr: 0x1000231C8, symSize: 0x70 }
  - { offsetInCU: 0x7ADFE, offset: 0x7ADFE, size: 0x8, addend: 0x0, symName: __ZNK5Eigen8internal16binary_evaluatorINS_13CwiseBinaryOpINS0_20scalar_difference_opIddEEKNS_3MapINS_5ArrayIdLin1ELi1ELi0ELin1ELi1EEELi0ENS_6StrideILi0ELi0EEEEEKNS_14CwiseNullaryOpINS0_18scalar_constant_opIdEEKS7_EEEENS0_10IndexBasedESJ_ddE4Data4funcEv, symObjAddr: 0x214BC, symBinAddr: 0x100023A64, symSize: 0x14 }
  - { offsetInCU: 0x7AE24, offset: 0x7AE24, size: 0x8, addend: 0x0, symName: __ZNK5Eigen8internal20scalar_difference_opIddE8packetOpI19__simd128_float64_tEEKT_RS6_S7_, symObjAddr: 0x214D0, symBinAddr: 0x100023A78, symSize: 0x30 }
  - { offsetInCU: 0x7AE7B, offset: 0x7AE7B, size: 0x8, addend: 0x0, symName: __ZNK5Eigen8internal9evaluatorINS_14CwiseNullaryOpINS0_18scalar_constant_opIdEEKNS_5ArrayIdLin1ELi1ELi0ELin1ELi1EEEEEE6packetILi0E19__simd128_float64_tlEET0_T1_, symObjAddr: 0x21500, symBinAddr: 0x100023AA8, symSize: 0x38 }
  - { offsetInCU: 0x7AECC, offset: 0x7AECC, size: 0x8, addend: 0x0, symName: __ZN5Eigen8internal31generic_dense_assignment_kernelINS0_9evaluatorINS_5ArrayIdLin1ELi1ELi0ELin1ELi1EEEEENS2_INS_12CwiseUnaryOpINS0_13scalar_exp_opIdEEKNS_13CwiseBinaryOpINS0_20scalar_difference_opIddEEKNS_3MapIS4_Li0ENS_6StrideILi0ELi0EEEEEKNS_14CwiseNullaryOpINS0_18scalar_constant_opIdEEKS4_EEEEEEEENS0_9assign_opIddEELi0EE11assignCoeffEl, symObjAddr: 0x21538, symBinAddr: 0x100023AE0, symSize: 0x64 }
  - { offsetInCU: 0x7AF01, offset: 0x7AF01, size: 0x8, addend: 0x0, symName: __ZNK5Eigen8internal15unary_evaluatorINS_12CwiseUnaryOpINS0_13scalar_exp_opIdEEKNS_13CwiseBinaryOpINS0_20scalar_difference_opIddEEKNS_3MapINS_5ArrayIdLin1ELi1ELi0ELin1ELi1EEELi0ENS_6StrideILi0ELi0EEEEEKNS_14CwiseNullaryOpINS0_18scalar_constant_opIdEEKSA_EEEEEENS0_10IndexBasedEdE5coeffEl, symObjAddr: 0x2159C, symBinAddr: 0x100023B44, symSize: 0x50 }
  - { offsetInCU: 0x7AF49, offset: 0x7AF49, size: 0x8, addend: 0x0, symName: __ZNK5Eigen8internal13scalar_exp_opIdEclERKd, symObjAddr: 0x215EC, symBinAddr: 0x100023B94, symSize: 0x34 }
  - { offsetInCU: 0x7AFA4, offset: 0x7AFA4, size: 0x8, addend: 0x0, symName: __ZNK5Eigen8internal16binary_evaluatorINS_13CwiseBinaryOpINS0_20scalar_difference_opIddEEKNS_3MapINS_5ArrayIdLin1ELi1ELi0ELin1ELi1EEELi0ENS_6StrideILi0ELi0EEEEEKNS_14CwiseNullaryOpINS0_18scalar_constant_opIdEEKS7_EEEENS0_10IndexBasedESJ_ddE5coeffEl, symObjAddr: 0x21620, symBinAddr: 0x100023BC8, symSize: 0x68 }
  - { offsetInCU: 0x7AFD9, offset: 0x7AFD9, size: 0x8, addend: 0x0, symName: __ZNK5Eigen8internal20scalar_difference_opIddEclERKdS4_, symObjAddr: 0x21688, symBinAddr: 0x100023C30, symSize: 0x2C }
  - { offsetInCU: 0x7B01D, offset: 0x7B01D, size: 0x8, addend: 0x0, symName: __ZNK5Eigen8internal9evaluatorINS_14CwiseNullaryOpINS0_18scalar_constant_opIdEEKNS_5ArrayIdLin1ELi1ELi0ELin1ELi1EEEEEE5coeffIlEEdT_, symObjAddr: 0x216B4, symBinAddr: 0x100023C5C, symSize: 0x38 }
  - { offsetInCU: 0x7B05B, offset: 0x7B05B, size: 0x8, addend: 0x0, symName: __ZN5Eigen8internal9evaluatorINS_5ArrayIdLin1ELi1ELi0ELin1ELi1EEEED2Ev, symObjAddr: 0x216EC, symBinAddr: 0x100023C94, symSize: 0x2C }
  - { offsetInCU: 0x7B088, offset: 0x7B088, size: 0x8, addend: 0x0, symName: __ZN5Eigen8internal9evaluatorINS_15PlainObjectBaseINS_5ArrayIdLin1ELi1ELi0ELin1ELi1EEEEEED2Ev, symObjAddr: 0x21718, symBinAddr: 0x100023CC0, symSize: 0x2C }
  - { offsetInCU: 0x7B0B4, offset: 0x7B0B4, size: 0x8, addend: 0x0, symName: __ZN5Eigen8internal9evaluatorINS_12CwiseUnaryOpINS0_13scalar_exp_opIdEEKNS_13CwiseBinaryOpINS0_20scalar_difference_opIddEEKNS_3MapINS_5ArrayIdLin1ELi1ELi0ELin1ELi1EEELi0ENS_6StrideILi0ELi0EEEEEKNS_14CwiseNullaryOpINS0_18scalar_constant_opIdEEKSA_EEEEEEED2Ev, symObjAddr: 0x21744, symBinAddr: 0x100023CEC, symSize: 0x2C }
  - { offsetInCU: 0x7B0E0, offset: 0x7B0E0, size: 0x8, addend: 0x0, symName: __ZN5Eigen8internal15unary_evaluatorINS_12CwiseUnaryOpINS0_13scalar_exp_opIdEEKNS_13CwiseBinaryOpINS0_20scalar_difference_opIddEEKNS_3MapINS_5ArrayIdLin1ELi1ELi0ELin1ELi1EEELi0ENS_6StrideILi0ELi0EEEEEKNS_14CwiseNullaryOpINS0_18scalar_constant_opIdEEKSA_EEEEEENS0_10IndexBasedEdED2Ev, symObjAddr: 0x21770, symBinAddr: 0x100023D18, symSize: 0x34 }
  - { offsetInCU: 0x7B10C, offset: 0x7B10C, size: 0x8, addend: 0x0, symName: __ZN5Eigen8internal15unary_evaluatorINS_12CwiseUnaryOpINS0_13scalar_exp_opIdEEKNS_13CwiseBinaryOpINS0_20scalar_difference_opIddEEKNS_3MapINS_5ArrayIdLin1ELi1ELi0ELin1ELi1EEELi0ENS_6StrideILi0ELi0EEEEEKNS_14CwiseNullaryOpINS0_18scalar_constant_opIdEEKSA_EEEEEENS0_10IndexBasedEdE4DataD1Ev, symObjAddr: 0x217A4, symBinAddr: 0x100023D4C, symSize: 0x2C }
  - { offsetInCU: 0x7B139, offset: 0x7B139, size: 0x8, addend: 0x0, symName: __ZN5Eigen8internal15unary_evaluatorINS_12CwiseUnaryOpINS0_13scalar_exp_opIdEEKNS_13CwiseBinaryOpINS0_20scalar_difference_opIddEEKNS_3MapINS_5ArrayIdLin1ELi1ELi0ELin1ELi1EEELi0ENS_6StrideILi0ELi0EEEEEKNS_14CwiseNullaryOpINS0_18scalar_constant_opIdEEKSA_EEEEEENS0_10IndexBasedEdE4DataD2Ev, symObjAddr: 0x217D0, symBinAddr: 0x100023D78, symSize: 0x30 }
  - { offsetInCU: 0x7B166, offset: 0x7B166, size: 0x8, addend: 0x0, symName: __ZN5Eigen8internal9evaluatorIKNS_13CwiseBinaryOpINS0_20scalar_difference_opIddEEKNS_3MapINS_5ArrayIdLin1ELi1ELi0ELin1ELi1EEELi0ENS_6StrideILi0ELi0EEEEEKNS_14CwiseNullaryOpINS0_18scalar_constant_opIdEEKS7_EEEEED1Ev, symObjAddr: 0x21800, symBinAddr: 0x100023DA8, symSize: 0x2C }
  - { offsetInCU: 0x7B192, offset: 0x7B192, size: 0x8, addend: 0x0, symName: __ZN5Eigen8internal9evaluatorIKNS_13CwiseBinaryOpINS0_20scalar_difference_opIddEEKNS_3MapINS_5ArrayIdLin1ELi1ELi0ELin1ELi1EEELi0ENS_6StrideILi0ELi0EEEEEKNS_14CwiseNullaryOpINS0_18scalar_constant_opIdEEKS7_EEEEED2Ev, symObjAddr: 0x2182C, symBinAddr: 0x100023DD4, symSize: 0x2C }
  - { offsetInCU: 0x7B1BE, offset: 0x7B1BE, size: 0x8, addend: 0x0, symName: __ZN5Eigen8internal9evaluatorINS_13CwiseBinaryOpINS0_20scalar_difference_opIddEEKNS_3MapINS_5ArrayIdLin1ELi1ELi0ELin1ELi1EEELi0ENS_6StrideILi0ELi0EEEEEKNS_14CwiseNullaryOpINS0_18scalar_constant_opIdEEKS7_EEEEED2Ev, symObjAddr: 0x21858, symBinAddr: 0x100023E00, symSize: 0x2C }
  - { offsetInCU: 0x7B1EB, offset: 0x7B1EB, size: 0x8, addend: 0x0, symName: __ZN5Eigen8internal16binary_evaluatorINS_13CwiseBinaryOpINS0_20scalar_difference_opIddEEKNS_3MapINS_5ArrayIdLin1ELi1ELi0ELin1ELi1EEELi0ENS_6StrideILi0ELi0EEEEEKNS_14CwiseNullaryOpINS0_18scalar_constant_opIdEEKS7_EEEENS0_10IndexBasedESJ_ddED2Ev, symObjAddr: 0x21884, symBinAddr: 0x100023E2C, symSize: 0x34 }
  - { offsetInCU: 0x7B217, offset: 0x7B217, size: 0x8, addend: 0x0, symName: __ZN5Eigen8internal16binary_evaluatorINS_13CwiseBinaryOpINS0_20scalar_difference_opIddEEKNS_3MapINS_5ArrayIdLin1ELi1ELi0ELin1ELi1EEELi0ENS_6StrideILi0ELi0EEEEEKNS_14CwiseNullaryOpINS0_18scalar_constant_opIdEEKS7_EEEENS0_10IndexBasedESJ_ddE4DataD1Ev, symObjAddr: 0x218B8, symBinAddr: 0x100023E60, symSize: 0x2C }
  - { offsetInCU: 0x7B244, offset: 0x7B244, size: 0x8, addend: 0x0, symName: __ZN5Eigen8internal16binary_evaluatorINS_13CwiseBinaryOpINS0_20scalar_difference_opIddEEKNS_3MapINS_5ArrayIdLin1ELi1ELi0ELin1ELi1EEELi0ENS_6StrideILi0ELi0EEEEEKNS_14CwiseNullaryOpINS0_18scalar_constant_opIdEEKS7_EEEENS0_10IndexBasedESJ_ddE4DataD2Ev, symObjAddr: 0x218E4, symBinAddr: 0x100023E8C, symSize: 0x3C }
  - { offsetInCU: 0x7B271, offset: 0x7B271, size: 0x8, addend: 0x0, symName: __ZN5Eigen8internal9evaluatorIKNS_14CwiseNullaryOpINS0_18scalar_constant_opIdEEKNS_5ArrayIdLin1ELi1ELi0ELin1ELi1EEEEEED1Ev, symObjAddr: 0x21920, symBinAddr: 0x100023EC8, symSize: 0x2C }
  - { offsetInCU: 0x7B29D, offset: 0x7B29D, size: 0x8, addend: 0x0, symName: __ZN5Eigen8internal9evaluatorIKNS_14CwiseNullaryOpINS0_18scalar_constant_opIdEEKNS_5ArrayIdLin1ELi1ELi0ELin1ELi1EEEEEED2Ev, symObjAddr: 0x2194C, symBinAddr: 0x100023EF4, symSize: 0x2C }
  - { offsetInCU: 0x7B2C9, offset: 0x7B2C9, size: 0x8, addend: 0x0, symName: __ZN5Eigen8internal9evaluatorINS_14CwiseNullaryOpINS0_18scalar_constant_opIdEEKNS_5ArrayIdLin1ELi1ELi0ELin1ELi1EEEEEED2Ev, symObjAddr: 0x21978, symBinAddr: 0x100023F20, symSize: 0x2C }
  - { offsetInCU: 0x7B2F5, offset: 0x7B2F5, size: 0x8, addend: 0x0, symName: __ZN5Eigen12DenseStorageIdLin1ELin1ELi1ELi0EED2Ev, symObjAddr: 0x219A4, symBinAddr: 0x100023F4C, symSize: 0x44 }
  - { offsetInCU: 0x7B31F, offset: 0x7B31F, size: 0x8, addend: 0x0, symName: __ZN5Eigen8internal18scalar_quotient_opIddEC1Ev, symObjAddr: 0x219E8, symBinAddr: 0x100023F90, symSize: 0x2C }
  - { offsetInCU: 0x7B349, offset: 0x7B349, size: 0x8, addend: 0x0, symName: __ZN5Eigen13CwiseBinaryOpINS_8internal18scalar_quotient_opIddEEKNS_5ArrayIdLin1ELi1ELi0ELin1ELi1EEEKNS_14CwiseNullaryOpINS1_18scalar_constant_opIdEES6_EEEC1ERS6_RSB_RKS3_, symObjAddr: 0x21A14, symBinAddr: 0x100023FBC, symSize: 0x44 }
  - { offsetInCU: 0x7B39D, offset: 0x7B39D, size: 0x8, addend: 0x0, symName: __ZN5Eigen8internal18scalar_quotient_opIddEC2Ev, symObjAddr: 0x21A58, symBinAddr: 0x100024000, symSize: 0x14 }
  - { offsetInCU: 0x7B3C7, offset: 0x7B3C7, size: 0x8, addend: 0x0, symName: __ZN5Eigen13CwiseBinaryOpINS_8internal18scalar_quotient_opIddEEKNS_5ArrayIdLin1ELi1ELi0ELin1ELi1EEEKNS_14CwiseNullaryOpINS1_18scalar_constant_opIdEES6_EEEC2ERS6_RSB_RKS3_, symObjAddr: 0x21A6C, symBinAddr: 0x100024014, symSize: 0xF8 }
  - { offsetInCU: 0x7B420, offset: 0x7B420, size: 0x8, addend: 0x0, symName: __ZN5Eigen17CwiseBinaryOpImplINS_8internal18scalar_quotient_opIddEEKNS_5ArrayIdLin1ELi1ELi0ELin1ELi1EEEKNS_14CwiseNullaryOpINS1_18scalar_constant_opIdEES6_EENS_5DenseEEC2Ev, symObjAddr: 0x21B64, symBinAddr: 0x10002410C, symSize: 0x2C }
  - { offsetInCU: 0x7B44C, offset: 0x7B44C, size: 0x8, addend: 0x0, symName: __ZN5Eigen8internal18scalar_quotient_opIddEC1ERKS2_, symObjAddr: 0x21B90, symBinAddr: 0x100024138, symSize: 0x34 }
  - { offsetInCU: 0x7B481, offset: 0x7B481, size: 0x8, addend: 0x0, symName: __ZN5Eigen9ArrayBaseINS_13CwiseBinaryOpINS_8internal18scalar_quotient_opIddEEKNS_5ArrayIdLin1ELi1ELi0ELin1ELi1EEEKNS_14CwiseNullaryOpINS2_18scalar_constant_opIdEES7_EEEEEC2Ev, symObjAddr: 0x21BC4, symBinAddr: 0x10002416C, symSize: 0x2C }
  - { offsetInCU: 0x7B4AB, offset: 0x7B4AB, size: 0x8, addend: 0x0, symName: __ZN5Eigen9DenseBaseINS_13CwiseBinaryOpINS_8internal18scalar_quotient_opIddEEKNS_5ArrayIdLin1ELi1ELi0ELin1ELi1EEEKNS_14CwiseNullaryOpINS2_18scalar_constant_opIdEES7_EEEEEC2Ev, symObjAddr: 0x21BF0, symBinAddr: 0x100024198, symSize: 0x14 }
  - { offsetInCU: 0x7B4D5, offset: 0x7B4D5, size: 0x8, addend: 0x0, symName: __ZN5Eigen8internal18scalar_quotient_opIddEC2ERKS2_, symObjAddr: 0x21C04, symBinAddr: 0x1000241AC, symSize: 0x18 }
  - { offsetInCU: 0x7B50A, offset: 0x7B50A, size: 0x8, addend: 0x0, symName: __ZNK5Eigen9DenseBaseINS_5ArrayIdLin1ELi1ELi0ELin1ELi1EEEE5reduxINS_8internal13scalar_sum_opIddEEEEdRKT_, symObjAddr: 0x21C1C, symBinAddr: 0x1000241C4, symSize: 0x10C }
  - { offsetInCU: 0x7B57F, offset: 0x7B57F, size: 0x8, addend: 0x0, symName: __ZN5Eigen8internal15redux_evaluatorINS_5ArrayIdLin1ELi1ELi0ELin1ELi1EEEEC1ERKS3_, symObjAddr: 0x21D28, symBinAddr: 0x1000242D0, symSize: 0x34 }
  - { offsetInCU: 0x7B5BD, offset: 0x7B5BD, size: 0x8, addend: 0x0, symName: __ZN5Eigen8internal10redux_implINS0_13scalar_sum_opIddEENS0_15redux_evaluatorINS_5ArrayIdLin1ELi1ELi0ELin1ELi1EEEEELi3ELi0EE3runIS6_EEdRKS7_RKS3_RKT_, symObjAddr: 0x21D5C, symBinAddr: 0x100024304, symSize: 0x340 }
  - { offsetInCU: 0x7B739, offset: 0x7B739, size: 0x8, addend: 0x0, symName: __ZN5Eigen8internal15redux_evaluatorINS_5ArrayIdLin1ELi1ELi0ELin1ELi1EEEED1Ev, symObjAddr: 0x2209C, symBinAddr: 0x100024644, symSize: 0x2C }
  - { offsetInCU: 0x7B766, offset: 0x7B766, size: 0x8, addend: 0x0, symName: __ZN5Eigen8internal15redux_evaluatorINS_5ArrayIdLin1ELi1ELi0ELin1ELi1EEEEC2ERKS3_, symObjAddr: 0x220C8, symBinAddr: 0x100024670, symSize: 0x34 }
  - { offsetInCU: 0x7B79F, offset: 0x7B79F, size: 0x8, addend: 0x0, symName: __ZNK5Eigen8internal9evaluatorINS_15PlainObjectBaseINS_5ArrayIdLin1ELi1ELi0ELin1ELi1EEEEEE6packetILi16E19__simd128_float64_tEET0_l, symObjAddr: 0x22120, symBinAddr: 0x1000246C8, symSize: 0x3C }
  - { offsetInCU: 0x7B803, offset: 0x7B803, size: 0x8, addend: 0x0, symName: __ZNK5Eigen8internal13scalar_sum_opIddE6preduxI19__simd128_float64_tEEdRKT_, symObjAddr: 0x2215C, symBinAddr: 0x100024704, symSize: 0x28 }
  - { offsetInCU: 0x7B840, offset: 0x7B840, size: 0x8, addend: 0x0, symName: __ZNK5Eigen8internal9evaluatorINS_15PlainObjectBaseINS_5ArrayIdLin1ELi1ELi0ELin1ELi1EEEEEE5coeffEl, symObjAddr: 0x22184, symBinAddr: 0x10002472C, symSize: 0x24 }
  - { offsetInCU: 0x7B874, offset: 0x7B874, size: 0x8, addend: 0x0, symName: __ZN5Eigen8internal18first_aligned_implILi16ENS_5ArrayIdLin1ELi1ELi0ELin1ELi1EEELb1EE3runERKS3_, symObjAddr: 0x221D0, symBinAddr: 0x100024778, symSize: 0x14 }
  - { offsetInCU: 0x7B894, offset: 0x7B894, size: 0x8, addend: 0x0, symName: __ZN5Eigen8internal15redux_evaluatorINS_5ArrayIdLin1ELi1ELi0ELin1ELi1EEEED2Ev, symObjAddr: 0x221E4, symBinAddr: 0x10002478C, symSize: 0x2C }
  - { offsetInCU: 0x7B8C1, offset: 0x7B8C1, size: 0x8, addend: 0x0, symName: __ZN5Eigen5ArrayIdLin1ELi1ELi0ELin1ELi1EEC2INS_13CwiseBinaryOpINS_8internal18scalar_quotient_opIddEEKS1_KNS_14CwiseNullaryOpINS4_18scalar_constant_opIdEES7_EEEEEERKNS_9EigenBaseIT_EENS4_9enable_ifIXsr8internal14is_convertibleINSF_6ScalarEdEE5valueENS1_11PrivateTypeEE4typeE, symObjAddr: 0x22210, symBinAddr: 0x1000247B8, symSize: 0x40 }
  - { offsetInCU: 0x7B90E, offset: 0x7B90E, size: 0x8, addend: 0x0, symName: __ZNK5Eigen9EigenBaseINS_13CwiseBinaryOpINS_8internal18scalar_quotient_opIddEEKNS_5ArrayIdLin1ELi1ELi0ELin1ELi1EEEKNS_14CwiseNullaryOpINS2_18scalar_constant_opIdEES7_EEEEE7derivedEv, symObjAddr: 0x22250, symBinAddr: 0x1000247F8, symSize: 0x14 }
  - { offsetInCU: 0x7B934, offset: 0x7B934, size: 0x8, addend: 0x0, symName: __ZN5Eigen15PlainObjectBaseINS_5ArrayIdLin1ELi1ELi0ELin1ELi1EEEEC2INS_13CwiseBinaryOpINS_8internal18scalar_quotient_opIddEEKS2_KNS_14CwiseNullaryOpINS6_18scalar_constant_opIdEES9_EEEEEERKNS_9DenseBaseIT_EE, symObjAddr: 0x22264, symBinAddr: 0x10002480C, symSize: 0x80 }
  - { offsetInCU: 0x7B976, offset: 0x7B976, size: 0x8, addend: 0x0, symName: __ZN5Eigen15PlainObjectBaseINS_5ArrayIdLin1ELi1ELi0ELin1ELi1EEEE10resizeLikeINS_13CwiseBinaryOpINS_8internal18scalar_quotient_opIddEEKS2_KNS_14CwiseNullaryOpINS6_18scalar_constant_opIdEES9_EEEEEEvRKNS_9EigenBaseIT_EE, symObjAddr: 0x222E4, symBinAddr: 0x10002488C, symSize: 0x170 }
  - { offsetInCU: 0x7BA0A, offset: 0x7BA0A, size: 0x8, addend: 0x0, symName: __ZN5Eigen15PlainObjectBaseINS_5ArrayIdLin1ELi1ELi0ELin1ELi1EEEE12_set_noaliasINS_13CwiseBinaryOpINS_8internal18scalar_quotient_opIddEEKS2_KNS_14CwiseNullaryOpINS6_18scalar_constant_opIdEES9_EEEEEERS2_RKNS_9DenseBaseIT_EE, symObjAddr: 0x22454, symBinAddr: 0x1000249FC, symSize: 0x60 }
  - { offsetInCU: 0x7BA48, offset: 0x7BA48, size: 0x8, addend: 0x0, symName: __ZNK5Eigen13CwiseBinaryOpINS_8internal18scalar_quotient_opIddEEKNS_5ArrayIdLin1ELi1ELi0ELin1ELi1EEEKNS_14CwiseNullaryOpINS1_18scalar_constant_opIdEES6_EEE4rowsEv, symObjAddr: 0x224B4, symBinAddr: 0x100024A5C, symSize: 0x28 }
  - { offsetInCU: 0x7BA6E, offset: 0x7BA6E, size: 0x8, addend: 0x0, symName: __ZNK5Eigen13CwiseBinaryOpINS_8internal18scalar_quotient_opIddEEKNS_5ArrayIdLin1ELi1ELi0ELin1ELi1EEEKNS_14CwiseNullaryOpINS1_18scalar_constant_opIdEES6_EEE4colsEv, symObjAddr: 0x224DC, symBinAddr: 0x100024A84, symSize: 0x28 }
  - { offsetInCU: 0x7BA94, offset: 0x7BA94, size: 0x8, addend: 0x0, symName: __ZN5Eigen8internal10AssignmentINS_5ArrayIdLin1ELi1ELi0ELin1ELi1EEENS_13CwiseBinaryOpINS0_18scalar_quotient_opIddEEKS3_KNS_14CwiseNullaryOpINS0_18scalar_constant_opIdEES7_EEEENS0_9assign_opIddEENS0_11Dense2DenseEvE3runERS3_RKSD_RKSF_, symObjAddr: 0x22540, symBinAddr: 0x100024AE8, symSize: 0x40 }
  - { offsetInCU: 0x7BAD6, offset: 0x7BAD6, size: 0x8, addend: 0x0, symName: __ZN5Eigen8internal9evaluatorINS_13CwiseBinaryOpINS0_18scalar_quotient_opIddEEKNS_5ArrayIdLin1ELi1ELi0ELin1ELi1EEEKNS_14CwiseNullaryOpINS0_18scalar_constant_opIdEES7_EEEEEC1ERKSD_, symObjAddr: 0x2266C, symBinAddr: 0x100024C14, symSize: 0x34 }
  - { offsetInCU: 0x7BB0F, offset: 0x7BB0F, size: 0x8, addend: 0x0, symName: __ZN5Eigen8internal31generic_dense_assignment_kernelINS0_9evaluatorINS_5ArrayIdLin1ELi1ELi0ELin1ELi1EEEEENS2_INS_13CwiseBinaryOpINS0_18scalar_quotient_opIddEEKS4_KNS_14CwiseNullaryOpINS0_18scalar_constant_opIdEES9_EEEEEENS0_9assign_opIddEELi0EEC1ERS5_RKSG_RKSI_RS4_, symObjAddr: 0x22798, symBinAddr: 0x100024D40, symSize: 0x4C }
  - { offsetInCU: 0x7BB75, offset: 0x7BB75, size: 0x8, addend: 0x0, symName: __ZN5Eigen8internal9evaluatorINS_13CwiseBinaryOpINS0_18scalar_quotient_opIddEEKNS_5ArrayIdLin1ELi1ELi0ELin1ELi1EEEKNS_14CwiseNullaryOpINS0_18scalar_constant_opIdEES7_EEEEED1Ev, symObjAddr: 0x2288C, symBinAddr: 0x100024E34, symSize: 0x2C }
  - { offsetInCU: 0x7BBA2, offset: 0x7BBA2, size: 0x8, addend: 0x0, symName: __ZN5Eigen8internal9evaluatorINS_13CwiseBinaryOpINS0_18scalar_quotient_opIddEEKNS_5ArrayIdLin1ELi1ELi0ELin1ELi1EEEKNS_14CwiseNullaryOpINS0_18scalar_constant_opIdEES7_EEEEEC2ERKSD_, symObjAddr: 0x228B8, symBinAddr: 0x100024E60, symSize: 0x34 }
  - { offsetInCU: 0x7BBDB, offset: 0x7BBDB, size: 0x8, addend: 0x0, symName: __ZN5Eigen8internal16binary_evaluatorINS_13CwiseBinaryOpINS0_18scalar_quotient_opIddEEKNS_5ArrayIdLin1ELi1ELi0ELin1ELi1EEEKNS_14CwiseNullaryOpINS0_18scalar_constant_opIdEES7_EEEENS0_10IndexBasedESE_ddEC2ERKSD_, symObjAddr: 0x228EC, symBinAddr: 0x100024E94, symSize: 0x64 }
  - { offsetInCU: 0x7BC14, offset: 0x7BC14, size: 0x8, addend: 0x0, symName: __ZN5Eigen8internal14evaluator_baseINS_13CwiseBinaryOpINS0_18scalar_quotient_opIddEEKNS_5ArrayIdLin1ELi1ELi0ELin1ELi1EEEKNS_14CwiseNullaryOpINS0_18scalar_constant_opIdEES7_EEEEEC2Ev, symObjAddr: 0x22950, symBinAddr: 0x100024EF8, symSize: 0x14 }
  - { offsetInCU: 0x7BC3E, offset: 0x7BC3E, size: 0x8, addend: 0x0, symName: __ZN5Eigen8internal16binary_evaluatorINS_13CwiseBinaryOpINS0_18scalar_quotient_opIddEEKNS_5ArrayIdLin1ELi1ELi0ELin1ELi1EEEKNS_14CwiseNullaryOpINS0_18scalar_constant_opIdEES7_EEEENS0_10IndexBasedESE_ddE4DataC1ERKSD_, symObjAddr: 0x22964, symBinAddr: 0x100024F0C, symSize: 0x34 }
  - { offsetInCU: 0x7BC77, offset: 0x7BC77, size: 0x8, addend: 0x0, symName: __ZN5Eigen8internal14evaluator_baseINS_13CwiseBinaryOpINS0_18scalar_quotient_opIddEEKNS_5ArrayIdLin1ELi1ELi0ELin1ELi1EEEKNS_14CwiseNullaryOpINS0_18scalar_constant_opIdEES7_EEEEED2Ev, symObjAddr: 0x22998, symBinAddr: 0x100024F40, symSize: 0x14 }
  - { offsetInCU: 0x7BCA1, offset: 0x7BCA1, size: 0x8, addend: 0x0, symName: __ZN5Eigen8internal16binary_evaluatorINS_13CwiseBinaryOpINS0_18scalar_quotient_opIddEEKNS_5ArrayIdLin1ELi1ELi0ELin1ELi1EEEKNS_14CwiseNullaryOpINS0_18scalar_constant_opIdEES7_EEEENS0_10IndexBasedESE_ddE4DataC2ERKSD_, symObjAddr: 0x229AC, symBinAddr: 0x100024F54, symSize: 0xA8 }
  - { offsetInCU: 0x7BCDA, offset: 0x7BCDA, size: 0x8, addend: 0x0, symName: __ZNK5Eigen13CwiseBinaryOpINS_8internal18scalar_quotient_opIddEEKNS_5ArrayIdLin1ELi1ELi0ELin1ELi1EEEKNS_14CwiseNullaryOpINS1_18scalar_constant_opIdEES6_EEE7functorEv, symObjAddr: 0x22A54, symBinAddr: 0x100024FFC, symSize: 0x18 }
  - { offsetInCU: 0x7BD00, offset: 0x7BD00, size: 0x8, addend: 0x0, symName: __ZNK5Eigen13CwiseBinaryOpINS_8internal18scalar_quotient_opIddEEKNS_5ArrayIdLin1ELi1ELi0ELin1ELi1EEEKNS_14CwiseNullaryOpINS1_18scalar_constant_opIdEES6_EEE3lhsEv, symObjAddr: 0x22A6C, symBinAddr: 0x100025014, symSize: 0x18 }
  - { offsetInCU: 0x7BD26, offset: 0x7BD26, size: 0x8, addend: 0x0, symName: __ZN5Eigen8internal9evaluatorIKNS_5ArrayIdLin1ELi1ELi0ELin1ELi1EEEEC1ERS4_, symObjAddr: 0x22A84, symBinAddr: 0x10002502C, symSize: 0x34 }
  - { offsetInCU: 0x7BD5E, offset: 0x7BD5E, size: 0x8, addend: 0x0, symName: __ZNK5Eigen13CwiseBinaryOpINS_8internal18scalar_quotient_opIddEEKNS_5ArrayIdLin1ELi1ELi0ELin1ELi1EEEKNS_14CwiseNullaryOpINS1_18scalar_constant_opIdEES6_EEE3rhsEv, symObjAddr: 0x22AB8, symBinAddr: 0x100025060, symSize: 0x18 }
  - { offsetInCU: 0x7BD84, offset: 0x7BD84, size: 0x8, addend: 0x0, symName: __ZN5Eigen8internal9evaluatorIKNS_5ArrayIdLin1ELi1ELi0ELin1ELi1EEEED1Ev, symObjAddr: 0x22AD0, symBinAddr: 0x100025078, symSize: 0x2C }
  - { offsetInCU: 0x7BDB0, offset: 0x7BDB0, size: 0x8, addend: 0x0, symName: __ZN5Eigen8internal9evaluatorIKNS_5ArrayIdLin1ELi1ELi0ELin1ELi1EEEEC2ERS4_, symObjAddr: 0x22AFC, symBinAddr: 0x1000250A4, symSize: 0x34 }
  - { offsetInCU: 0x7BDE8, offset: 0x7BDE8, size: 0x8, addend: 0x0, symName: __ZN5Eigen8internal9evaluatorIKNS_5ArrayIdLin1ELi1ELi0ELin1ELi1EEEED2Ev, symObjAddr: 0x22B30, symBinAddr: 0x1000250D8, symSize: 0x2C }
  - { offsetInCU: 0x7BE14, offset: 0x7BE14, size: 0x8, addend: 0x0, symName: __ZN5Eigen8internal31generic_dense_assignment_kernelINS0_9evaluatorINS_5ArrayIdLin1ELi1ELi0ELin1ELi1EEEEENS2_INS_13CwiseBinaryOpINS0_18scalar_quotient_opIddEEKS4_KNS_14CwiseNullaryOpINS0_18scalar_constant_opIdEES9_EEEEEENS0_9assign_opIddEELi0EEC2ERS5_RKSG_RKSI_RS4_, symObjAddr: 0x22B5C, symBinAddr: 0x100025104, symSize: 0x44 }
  - { offsetInCU: 0x7BE7A, offset: 0x7BE7A, size: 0x8, addend: 0x0, symName: __ZNK5Eigen8internal31generic_dense_assignment_kernelINS0_9evaluatorINS_5ArrayIdLin1ELi1ELi0ELin1ELi1EEEEENS2_INS_13CwiseBinaryOpINS0_18scalar_quotient_opIddEEKS4_KNS_14CwiseNullaryOpINS0_18scalar_constant_opIdEES9_EEEEEENS0_9assign_opIddEELi0EE4sizeEv, symObjAddr: 0x22BA0, symBinAddr: 0x100025148, symSize: 0x28 }
  - { offsetInCU: 0x7BEA0, offset: 0x7BEA0, size: 0x8, addend: 0x0, symName: __ZN5Eigen8internal31unaligned_dense_assignment_loopILb1EE3runINS0_31generic_dense_assignment_kernelINS0_9evaluatorINS_5ArrayIdLin1ELi1ELi0ELin1ELi1EEEEENS5_INS_13CwiseBinaryOpINS0_18scalar_quotient_opIddEEKS7_KNS_14CwiseNullaryOpINS0_18scalar_constant_opIdEESC_EEEEEENS0_9assign_opIddEELi0EEEEEvRT_ll, symObjAddr: 0x22BC8, symBinAddr: 0x100025170, symSize: 0x18 }
  - { offsetInCU: 0x7BEDF, offset: 0x7BEDF, size: 0x8, addend: 0x0, symName: __ZN5Eigen8internal31generic_dense_assignment_kernelINS0_9evaluatorINS_5ArrayIdLin1ELi1ELi0ELin1ELi1EEEEENS2_INS_13CwiseBinaryOpINS0_18scalar_quotient_opIddEEKS4_KNS_14CwiseNullaryOpINS0_18scalar_constant_opIdEES9_EEEEEENS0_9assign_opIddEELi0EE12assignPacketILi16ELi16E19__simd128_float64_tEEvl, symObjAddr: 0x22BE0, symBinAddr: 0x100025188, symSize: 0x64 }
  - { offsetInCU: 0x7BF31, offset: 0x7BF31, size: 0x8, addend: 0x0, symName: __ZN5Eigen8internal31unaligned_dense_assignment_loopILb0EE3runINS0_31generic_dense_assignment_kernelINS0_9evaluatorINS_5ArrayIdLin1ELi1ELi0ELin1ELi1EEEEENS5_INS_13CwiseBinaryOpINS0_18scalar_quotient_opIddEEKS7_KNS_14CwiseNullaryOpINS0_18scalar_constant_opIdEESC_EEEEEENS0_9assign_opIddEELi0EEEEEvRT_ll, symObjAddr: 0x22C44, symBinAddr: 0x1000251EC, symSize: 0x68 }
  - { offsetInCU: 0x7BF99, offset: 0x7BF99, size: 0x8, addend: 0x0, symName: __ZNK5Eigen8internal16binary_evaluatorINS_13CwiseBinaryOpINS0_18scalar_quotient_opIddEEKNS_5ArrayIdLin1ELi1ELi0ELin1ELi1EEEKNS_14CwiseNullaryOpINS0_18scalar_constant_opIdEES7_EEEENS0_10IndexBasedESE_ddE6packetILi16E19__simd128_float64_tEET0_l, symObjAddr: 0x22CAC, symBinAddr: 0x100025254, symSize: 0x70 }
  - { offsetInCU: 0x7BFE1, offset: 0x7BFE1, size: 0x8, addend: 0x0, symName: __ZNK5Eigen8internal16binary_evaluatorINS_13CwiseBinaryOpINS0_18scalar_quotient_opIddEEKNS_5ArrayIdLin1ELi1ELi0ELin1ELi1EEEKNS_14CwiseNullaryOpINS0_18scalar_constant_opIdEES7_EEEENS0_10IndexBasedESE_ddE4Data4funcEv, symObjAddr: 0x22D1C, symBinAddr: 0x1000252C4, symSize: 0x14 }
  - { offsetInCU: 0x7C007, offset: 0x7C007, size: 0x8, addend: 0x0, symName: __ZNK5Eigen8internal18scalar_quotient_opIddE8packetOpI19__simd128_float64_tEEKT_RS6_S7_, symObjAddr: 0x22D30, symBinAddr: 0x1000252D8, symSize: 0x30 }
  - { offsetInCU: 0x7C054, offset: 0x7C054, size: 0x8, addend: 0x0, symName: __ZNK5Eigen8internal9evaluatorINS_14CwiseNullaryOpINS0_18scalar_constant_opIdEEKNS_5ArrayIdLin1ELi1ELi0ELin1ELi1EEEEEE6packetILi16E19__simd128_float64_tlEET0_T1_, symObjAddr: 0x22D60, symBinAddr: 0x100025308, symSize: 0x38 }
  - { offsetInCU: 0x7C0A5, offset: 0x7C0A5, size: 0x8, addend: 0x0, symName: __ZN5Eigen8internal31generic_dense_assignment_kernelINS0_9evaluatorINS_5ArrayIdLin1ELi1ELi0ELin1ELi1EEEEENS2_INS_13CwiseBinaryOpINS0_18scalar_quotient_opIddEEKS4_KNS_14CwiseNullaryOpINS0_18scalar_constant_opIdEES9_EEEEEENS0_9assign_opIddEELi0EE11assignCoeffEl, symObjAddr: 0x22D98, symBinAddr: 0x100025340, symSize: 0x64 }
  - { offsetInCU: 0x7C0DA, offset: 0x7C0DA, size: 0x8, addend: 0x0, symName: __ZNK5Eigen8internal16binary_evaluatorINS_13CwiseBinaryOpINS0_18scalar_quotient_opIddEEKNS_5ArrayIdLin1ELi1ELi0ELin1ELi1EEEKNS_14CwiseNullaryOpINS0_18scalar_constant_opIdEES7_EEEENS0_10IndexBasedESE_ddE5coeffEl, symObjAddr: 0x22DFC, symBinAddr: 0x1000253A4, symSize: 0x68 }
  - { offsetInCU: 0x7C10F, offset: 0x7C10F, size: 0x8, addend: 0x0, symName: __ZNK5Eigen8internal18scalar_quotient_opIddEclERKdS4_, symObjAddr: 0x22E64, symBinAddr: 0x10002540C, symSize: 0x2C }
  - { offsetInCU: 0x7C153, offset: 0x7C153, size: 0x8, addend: 0x0, symName: __ZN5Eigen8internal9evaluatorINS_13CwiseBinaryOpINS0_18scalar_quotient_opIddEEKNS_5ArrayIdLin1ELi1ELi0ELin1ELi1EEEKNS_14CwiseNullaryOpINS0_18scalar_constant_opIdEES7_EEEEED2Ev, symObjAddr: 0x22E90, symBinAddr: 0x100025438, symSize: 0x2C }
  - { offsetInCU: 0x7C180, offset: 0x7C180, size: 0x8, addend: 0x0, symName: __ZN5Eigen8internal16binary_evaluatorINS_13CwiseBinaryOpINS0_18scalar_quotient_opIddEEKNS_5ArrayIdLin1ELi1ELi0ELin1ELi1EEEKNS_14CwiseNullaryOpINS0_18scalar_constant_opIdEES7_EEEENS0_10IndexBasedESE_ddED2Ev, symObjAddr: 0x22EBC, symBinAddr: 0x100025464, symSize: 0x34 }
  - { offsetInCU: 0x7C1AC, offset: 0x7C1AC, size: 0x8, addend: 0x0, symName: __ZN5Eigen8internal16binary_evaluatorINS_13CwiseBinaryOpINS0_18scalar_quotient_opIddEEKNS_5ArrayIdLin1ELi1ELi0ELin1ELi1EEEKNS_14CwiseNullaryOpINS0_18scalar_constant_opIdEES7_EEEENS0_10IndexBasedESE_ddE4DataD1Ev, symObjAddr: 0x22EF0, symBinAddr: 0x100025498, symSize: 0x2C }
  - { offsetInCU: 0x7C1D9, offset: 0x7C1D9, size: 0x8, addend: 0x0, symName: __ZN5Eigen8internal16binary_evaluatorINS_13CwiseBinaryOpINS0_18scalar_quotient_opIddEEKNS_5ArrayIdLin1ELi1ELi0ELin1ELi1EEEKNS_14CwiseNullaryOpINS0_18scalar_constant_opIdEES7_EEEENS0_10IndexBasedESE_ddE4DataD2Ev, symObjAddr: 0x22F1C, symBinAddr: 0x1000254C4, symSize: 0x3C }
  - { offsetInCU: 0x7C206, offset: 0x7C206, size: 0x8, addend: 0x0, symName: __ZN5Eigen6MatrixIdLin1ELin1ELi0ELin1ELin1EEC2INS_5ArrayIdLin1ELi1ELi0ELin1ELi1EEEEERKNS_9EigenBaseIT_EE, symObjAddr: 0x22F58, symBinAddr: 0x100025500, symSize: 0x40 }
  - { offsetInCU: 0x7C248, offset: 0x7C248, size: 0x8, addend: 0x0, symName: __ZN5Eigen15PlainObjectBaseINS_6MatrixIdLin1ELin1ELi0ELin1ELin1EEEEC2INS_5ArrayIdLin1ELi1ELi0ELin1ELi1EEEEERKNS_9DenseBaseIT_EE, symObjAddr: 0x22F98, symBinAddr: 0x100025540, symSize: 0x80 }
  - { offsetInCU: 0x7C28A, offset: 0x7C28A, size: 0x8, addend: 0x0, symName: __ZN5Eigen15PlainObjectBaseINS_6MatrixIdLin1ELin1ELi0ELin1ELin1EEEE10resizeLikeINS_5ArrayIdLin1ELi1ELi0ELin1ELi1EEEEEvRKNS_9EigenBaseIT_EE, symObjAddr: 0x23018, symBinAddr: 0x1000255C0, symSize: 0x11C }
  - { offsetInCU: 0x7C31E, offset: 0x7C31E, size: 0x8, addend: 0x0, symName: __ZN5Eigen15PlainObjectBaseINS_6MatrixIdLin1ELin1ELi0ELin1ELin1EEEE12_set_noaliasINS_5ArrayIdLin1ELi1ELi0ELin1ELi1EEEEERS2_RKNS_9DenseBaseIT_EE, symObjAddr: 0x23134, symBinAddr: 0x1000256DC, symSize: 0x60 }
  - { offsetInCU: 0x7C35C, offset: 0x7C35C, size: 0x8, addend: 0x0, symName: __ZN5Eigen8internal10AssignmentINS_6MatrixIdLin1ELin1ELi0ELin1ELin1EEENS_5ArrayIdLin1ELi1ELi0ELin1ELi1EEENS0_9assign_opIddEENS0_11Dense2DenseEvE3runERS3_RKS5_RKS7_, symObjAddr: 0x231D0, symBinAddr: 0x100025778, symSize: 0x40 }
  - { offsetInCU: 0x7C39E, offset: 0x7C39E, size: 0x8, addend: 0x0, symName: __ZN5Eigen8internal27checkTransposeAliasing_implINS_6MatrixIdLin1ELin1ELi0ELin1ELin1EEENS_5ArrayIdLin1ELi1ELi0ELin1ELi1EEELb0EE3runERKS3_RKS5_, symObjAddr: 0x23348, symBinAddr: 0x1000258F0, symSize: 0x14 }
  - { offsetInCU: 0x7C3C9, offset: 0x7C3C9, size: 0x8, addend: 0x0, symName: __ZN5Eigen8internal31generic_dense_assignment_kernelINS0_9evaluatorINS_6MatrixIdLin1ELin1ELi0ELin1ELin1EEEEENS2_INS_5ArrayIdLin1ELi1ELi0ELin1ELi1EEEEENS0_9assign_opIddEELi0EEC1ERS5_RKS8_RKSA_RS4_, symObjAddr: 0x23454, symBinAddr: 0x1000259FC, symSize: 0x4C }
  - { offsetInCU: 0x7C42F, offset: 0x7C42F, size: 0x8, addend: 0x0, symName: __ZN5Eigen8internal31generic_dense_assignment_kernelINS0_9evaluatorINS_6MatrixIdLin1ELin1ELi0ELin1ELin1EEEEENS2_INS_5ArrayIdLin1ELi1ELi0ELin1ELi1EEEEENS0_9assign_opIddEELi0EEC2ERS5_RKS8_RKSA_RS4_, symObjAddr: 0x23548, symBinAddr: 0x100025AF0, symSize: 0x44 }
  - { offsetInCU: 0x7C495, offset: 0x7C495, size: 0x8, addend: 0x0, symName: __ZNK5Eigen8internal31generic_dense_assignment_kernelINS0_9evaluatorINS_6MatrixIdLin1ELin1ELi0ELin1ELin1EEEEENS2_INS_5ArrayIdLin1ELi1ELi0ELin1ELi1EEEEENS0_9assign_opIddEELi0EE4sizeEv, symObjAddr: 0x2358C, symBinAddr: 0x100025B34, symSize: 0x28 }
  - { offsetInCU: 0x7C4BB, offset: 0x7C4BB, size: 0x8, addend: 0x0, symName: __ZN5Eigen8internal31unaligned_dense_assignment_loopILb1EE3runINS0_31generic_dense_assignment_kernelINS0_9evaluatorINS_6MatrixIdLin1ELin1ELi0ELin1ELin1EEEEENS5_INS_5ArrayIdLin1ELi1ELi0ELin1ELi1EEEEENS0_9assign_opIddEELi0EEEEEvRT_ll, symObjAddr: 0x235B4, symBinAddr: 0x100025B5C, symSize: 0x18 }
  - { offsetInCU: 0x7C4FA, offset: 0x7C4FA, size: 0x8, addend: 0x0, symName: __ZN5Eigen8internal31generic_dense_assignment_kernelINS0_9evaluatorINS_6MatrixIdLin1ELin1ELi0ELin1ELin1EEEEENS2_INS_5ArrayIdLin1ELi1ELi0ELin1ELi1EEEEENS0_9assign_opIddEELi0EE12assignPacketILi16ELi16E19__simd128_float64_tEEvl, symObjAddr: 0x235CC, symBinAddr: 0x100025B74, symSize: 0x64 }
  - { offsetInCU: 0x7C54C, offset: 0x7C54C, size: 0x8, addend: 0x0, symName: __ZN5Eigen8internal31unaligned_dense_assignment_loopILb0EE3runINS0_31generic_dense_assignment_kernelINS0_9evaluatorINS_6MatrixIdLin1ELin1ELi0ELin1ELin1EEEEENS5_INS_5ArrayIdLin1ELi1ELi0ELin1ELi1EEEEENS0_9assign_opIddEELi0EEEEEvRT_ll, symObjAddr: 0x23630, symBinAddr: 0x100025BD8, symSize: 0x68 }
  - { offsetInCU: 0x7C5B4, offset: 0x7C5B4, size: 0x8, addend: 0x0, symName: __ZN5Eigen8internal31generic_dense_assignment_kernelINS0_9evaluatorINS_6MatrixIdLin1ELin1ELi0ELin1ELin1EEEEENS2_INS_5ArrayIdLin1ELi1ELi0ELin1ELi1EEEEENS0_9assign_opIddEELi0EE11assignCoeffEl, symObjAddr: 0x23698, symBinAddr: 0x100025C40, symSize: 0x60 }
  - { offsetInCU: 0x7C5E9, offset: 0x7C5E9, size: 0x8, addend: 0x0, symName: __ZN5Eigen5ArrayIdLin1ELi1ELi0ELin1ELi1EEC2INS_6MatrixIdLin1ELin1ELi0ELin1ELin1EEEEERKNS_9EigenBaseIT_EENS_8internal9enable_ifIXsr8internal14is_convertibleINS6_6ScalarEdEE5valueENS1_11PrivateTypeEE4typeE, symObjAddr: 0x236F8, symBinAddr: 0x100025CA0, symSize: 0x40 }
  - { offsetInCU: 0x7C636, offset: 0x7C636, size: 0x8, addend: 0x0, symName: __ZN5Eigen15PlainObjectBaseINS_5ArrayIdLin1ELi1ELi0ELin1ELi1EEEEC2INS_6MatrixIdLin1ELin1ELi0ELin1ELin1EEEEERKNS_9DenseBaseIT_EE, symObjAddr: 0x23738, symBinAddr: 0x100025CE0, symSize: 0x80 }
  - { offsetInCU: 0x7C678, offset: 0x7C678, size: 0x8, addend: 0x0, symName: __ZN5Eigen15PlainObjectBaseINS_5ArrayIdLin1ELi1ELi0ELin1ELi1EEEE10resizeLikeINS_6MatrixIdLin1ELin1ELi0ELin1ELin1EEEEEvRKNS_9EigenBaseIT_EE, symObjAddr: 0x237B8, symBinAddr: 0x100025D60, symSize: 0x170 }
  - { offsetInCU: 0x7C70C, offset: 0x7C70C, size: 0x8, addend: 0x0, symName: __ZN5Eigen15PlainObjectBaseINS_5ArrayIdLin1ELi1ELi0ELin1ELi1EEEE12_set_noaliasINS_6MatrixIdLin1ELin1ELi0ELin1ELin1EEEEERS2_RKNS_9DenseBaseIT_EE, symObjAddr: 0x23928, symBinAddr: 0x100025ED0, symSize: 0x60 }
  - { offsetInCU: 0x7C74A, offset: 0x7C74A, size: 0x8, addend: 0x0, symName: __ZN5Eigen8internal10AssignmentINS_5ArrayIdLin1ELi1ELi0ELin1ELi1EEENS_6MatrixIdLin1ELin1ELi0ELin1ELin1EEENS0_9assign_opIddEENS0_11Dense2DenseEvE3runERS3_RKS5_RKS7_, symObjAddr: 0x239C4, symBinAddr: 0x100025F6C, symSize: 0x40 }
  - { offsetInCU: 0x7C78C, offset: 0x7C78C, size: 0x8, addend: 0x0, symName: __ZN5Eigen8internal31generic_dense_assignment_kernelINS0_9evaluatorINS_5ArrayIdLin1ELi1ELi0ELin1ELi1EEEEENS2_INS_6MatrixIdLin1ELin1ELi0ELin1ELin1EEEEENS0_9assign_opIddEELi0EEC1ERS5_RKS8_RKSA_RS4_, symObjAddr: 0x23BE8, symBinAddr: 0x100026190, symSize: 0x4C }
  - { offsetInCU: 0x7C7F2, offset: 0x7C7F2, size: 0x8, addend: 0x0, symName: __ZN5Eigen8internal31generic_dense_assignment_kernelINS0_9evaluatorINS_5ArrayIdLin1ELi1ELi0ELin1ELi1EEEEENS2_INS_6MatrixIdLin1ELin1ELi0ELin1ELin1EEEEENS0_9assign_opIddEELi0EEC2ERS5_RKS8_RKSA_RS4_, symObjAddr: 0x23CDC, symBinAddr: 0x100026284, symSize: 0x44 }
  - { offsetInCU: 0x7C858, offset: 0x7C858, size: 0x8, addend: 0x0, symName: __ZNK5Eigen8internal31generic_dense_assignment_kernelINS0_9evaluatorINS_5ArrayIdLin1ELi1ELi0ELin1ELi1EEEEENS2_INS_6MatrixIdLin1ELin1ELi0ELin1ELin1EEEEENS0_9assign_opIddEELi0EE4sizeEv, symObjAddr: 0x23D20, symBinAddr: 0x1000262C8, symSize: 0x28 }
  - { offsetInCU: 0x7C87E, offset: 0x7C87E, size: 0x8, addend: 0x0, symName: __ZN5Eigen8internal31unaligned_dense_assignment_loopILb1EE3runINS0_31generic_dense_assignment_kernelINS0_9evaluatorINS_5ArrayIdLin1ELi1ELi0ELin1ELi1EEEEENS5_INS_6MatrixIdLin1ELin1ELi0ELin1ELin1EEEEENS0_9assign_opIddEELi0EEEEEvRT_ll, symObjAddr: 0x23D48, symBinAddr: 0x1000262F0, symSize: 0x18 }
  - { offsetInCU: 0x7C8BD, offset: 0x7C8BD, size: 0x8, addend: 0x0, symName: __ZN5Eigen8internal31generic_dense_assignment_kernelINS0_9evaluatorINS_5ArrayIdLin1ELi1ELi0ELin1ELi1EEEEENS2_INS_6MatrixIdLin1ELin1ELi0ELin1ELin1EEEEENS0_9assign_opIddEELi0EE12assignPacketILi16ELi16E19__simd128_float64_tEEvl, symObjAddr: 0x23D60, symBinAddr: 0x100026308, symSize: 0x64 }
  - { offsetInCU: 0x7C90F, offset: 0x7C90F, size: 0x8, addend: 0x0, symName: __ZN5Eigen8internal31unaligned_dense_assignment_loopILb0EE3runINS0_31generic_dense_assignment_kernelINS0_9evaluatorINS_5ArrayIdLin1ELi1ELi0ELin1ELi1EEEEENS5_INS_6MatrixIdLin1ELin1ELi0ELin1ELin1EEEEENS0_9assign_opIddEELi0EEEEEvRT_ll, symObjAddr: 0x23DC4, symBinAddr: 0x10002636C, symSize: 0x68 }
  - { offsetInCU: 0x7C977, offset: 0x7C977, size: 0x8, addend: 0x0, symName: __ZN5Eigen8internal31generic_dense_assignment_kernelINS0_9evaluatorINS_5ArrayIdLin1ELi1ELi0ELin1ELi1EEEEENS2_INS_6MatrixIdLin1ELin1ELi0ELin1ELin1EEEEENS0_9assign_opIddEELi0EE11assignCoeffEl, symObjAddr: 0x23E2C, symBinAddr: 0x1000263D4, symSize: 0x60 }
  - { offsetInCU: 0x7C9AC, offset: 0x7C9AC, size: 0x8, addend: 0x0, symName: __ZN5Eigen5ArrayIdLin1ELi1ELi0ELin1ELi1EED2Ev, symObjAddr: 0x23E8C, symBinAddr: 0x100026434, symSize: 0x2C }
  - { offsetInCU: 0x7C9D8, offset: 0x7C9D8, size: 0x8, addend: 0x0, symName: __ZN5Eigen15PlainObjectBaseINS_5ArrayIdLin1ELi1ELi0ELin1ELi1EEEED2Ev, symObjAddr: 0x23EB8, symBinAddr: 0x100026460, symSize: 0x2C }
  - { offsetInCU: 0x7CA04, offset: 0x7CA04, size: 0x8, addend: 0x0, symName: __ZNSt12out_of_rangeC1B8ue170006EPKc, symObjAddr: 0x23F48, symBinAddr: 0x1000264F0, symSize: 0x34 }
  - { offsetInCU: 0x7CA3C, offset: 0x7CA3C, size: 0x8, addend: 0x0, symName: __ZNSt12out_of_rangeC2B8ue170006EPKc, symObjAddr: 0x23F7C, symBinAddr: 0x100026524, symSize: 0x4C }
  - { offsetInCU: 0x7CA79, offset: 0x7CA79, size: 0x8, addend: 0x0, symName: __ZNKSt3__16__lessIvvEclB8ue170006IttEEbRKT_RKT0_, symObjAddr: 0x2401C, symBinAddr: 0x1000265C4, symSize: 0x34 }
  - { offsetInCU: 0x7CACD, offset: 0x7CACD, size: 0x8, addend: 0x0, symName: __ZNK5Eigen12DenseStorageIdLin1ELin1ELin1ELi0EE4colsEv, symObjAddr: 0x24050, symBinAddr: 0x1000265F8, symSize: 0x18 }
  - { offsetInCU: 0x7CAF3, offset: 0x7CAF3, size: 0x8, addend: 0x0, symName: __ZN8AI_SnakeD2Ev, symObjAddr: 0x24068, symBinAddr: 0x100026610, symSize: 0x6C }
  - { offsetInCU: 0x7CB1F, offset: 0x7CB1F, size: 0x8, addend: 0x0, symName: __ZN5Eigen8symbolic10SymbolExprINS_8internal17symbolic_last_tagEEC2Ev, symObjAddr: 0x240D4, symBinAddr: 0x10002667C, symSize: 0x14 }
  - { offsetInCU: 0x7CB49, offset: 0x7CB49, size: 0x8, addend: 0x0, symName: __ZN5Eigen8internal8FixedIntILi1EEC2Ev, symObjAddr: 0x240E8, symBinAddr: 0x100026690, symSize: 0x14 }
  - { offsetInCU: 0x7CB73, offset: 0x7CB73, size: 0x8, addend: 0x0, symName: __ZNK5Eigen8symbolic8BaseExprINS0_10SymbolExprINS_8internal17symbolic_last_tagEEEE7derivedEv, symObjAddr: 0x240FC, symBinAddr: 0x1000266A4, symSize: 0x14 }
  - { offsetInCU: 0x7CB99, offset: 0x7CB99, size: 0x8, addend: 0x0, symName: __ZN5Eigen8symbolic9ValueExprINS_8internal8FixedIntILi1EEEEC1Ev, symObjAddr: 0x24110, symBinAddr: 0x1000266B8, symSize: 0x2C }
  - { offsetInCU: 0x7CBC3, offset: 0x7CBC3, size: 0x8, addend: 0x0, symName: __ZN5Eigen8symbolic7AddExprINS0_10SymbolExprINS_8internal17symbolic_last_tagEEENS0_9ValueExprINS3_8FixedIntILi1EEEEEEC1ERKS5_RKS9_, symObjAddr: 0x2413C, symBinAddr: 0x1000266E4, symSize: 0x3C }
  - { offsetInCU: 0x7CC09, offset: 0x7CC09, size: 0x8, addend: 0x0, symName: __ZN5Eigen8symbolic9ValueExprINS_8internal8FixedIntILi1EEEEC2Ev, symObjAddr: 0x24178, symBinAddr: 0x100026720, symSize: 0x14 }
  - { offsetInCU: 0x7CC33, offset: 0x7CC33, size: 0x8, addend: 0x0, symName: __ZN5Eigen8symbolic7AddExprINS0_10SymbolExprINS_8internal17symbolic_last_tagEEENS0_9ValueExprINS3_8FixedIntILi1EEEEEEC2ERKS5_RKS9_, symObjAddr: 0x2418C, symBinAddr: 0x100026734, symSize: 0x1C }
  - { offsetInCU: 0x7CC97, offset: 0x7CC97, size: 0x8, addend: 0x0, symName: __ZNKSt3__113basic_ostreamIcNS_11char_traitsIcEEE6sentrycvbB8ue170006Ev, symObjAddr: 0x24394, symBinAddr: 0x10002693C, symSize: 0x1C }
  - { offsetInCU: 0x7CCBD, offset: 0x7CCBD, size: 0x8, addend: 0x0, symName: __ZNSt3__119ostreambuf_iteratorIcNS_11char_traitsIcEEEC1B8ue170006ERNS_13basic_ostreamIcS2_EE, symObjAddr: 0x245F0, symBinAddr: 0x100026B98, symSize: 0x34 }
  - { offsetInCU: 0x7CCF5, offset: 0x7CCF5, size: 0x8, addend: 0x0, symName: __ZNKSt3__18ios_base5flagsB8ue170006Ev, symObjAddr: 0x24624, symBinAddr: 0x100026BCC, symSize: 0x18 }
  - { offsetInCU: 0x7CD1D, offset: 0x7CD1D, size: 0x8, addend: 0x0, symName: __ZNKSt3__19basic_iosIcNS_11char_traitsIcEEE4fillB8ue170006Ev, symObjAddr: 0x2463C, symBinAddr: 0x100026BE4, symSize: 0x64 }
  - { offsetInCU: 0x7CD45, offset: 0x7CD45, size: 0x8, addend: 0x0, symName: __ZNKSt3__119ostreambuf_iteratorIcNS_11char_traitsIcEEE6failedB8ue170006Ev, symObjAddr: 0x246A0, symBinAddr: 0x100026C48, symSize: 0x24 }
  - { offsetInCU: 0x7CD6B, offset: 0x7CD6B, size: 0x8, addend: 0x0, symName: __ZNSt3__19basic_iosIcNS_11char_traitsIcEEE8setstateB8ue170006Ej, symObjAddr: 0x246C4, symBinAddr: 0x100026C6C, symSize: 0x2C }
  - { offsetInCU: 0x7CDA0, offset: 0x7CDA0, size: 0x8, addend: 0x0, symName: __ZNKSt3__18ios_base5widthB8ue170006Ev, symObjAddr: 0x246F0, symBinAddr: 0x100026C98, symSize: 0x18 }
  - { offsetInCU: 0x7CDC8, offset: 0x7CDC8, size: 0x8, addend: 0x0, symName: __ZNSt3__115basic_streambufIcNS_11char_traitsIcEEE5sputnB8ue170006EPKcl, symObjAddr: 0x24708, symBinAddr: 0x100026CB0, symSize: 0x3C }
  - { offsetInCU: 0x7CE0A, offset: 0x7CE0A, size: 0x8, addend: 0x0, symName: __ZNSt3__112basic_stringIcNS_11char_traitsIcEENS_9allocatorIcEEEC1B8ue170006Emc, symObjAddr: 0x24744, symBinAddr: 0x100026CEC, symSize: 0x3C }
  - { offsetInCU: 0x7CE52, offset: 0x7CE52, size: 0x8, addend: 0x0, symName: __ZNSt3__112basic_stringIcNS_11char_traitsIcEENS_9allocatorIcEEE4dataB8ue170006Ev, symObjAddr: 0x24780, symBinAddr: 0x100026D28, symSize: 0x28 }
  - { offsetInCU: 0x7CE78, offset: 0x7CE78, size: 0x8, addend: 0x0, symName: __ZNSt3__18ios_base5widthB8ue170006El, symObjAddr: 0x247A8, symBinAddr: 0x100026D50, symSize: 0x2C }
  - { offsetInCU: 0x7CEBE, offset: 0x7CEBE, size: 0x8, addend: 0x0, symName: __ZNSt3__112basic_stringIcNS_11char_traitsIcEENS_9allocatorIcEEEC2B8ue170006Emc, symObjAddr: 0x247D4, symBinAddr: 0x100026D7C, symSize: 0x4C }
  - { offsetInCU: 0x7CF06, offset: 0x7CF06, size: 0x8, addend: 0x0, symName: __ZNSt3__112basic_stringIcNS_11char_traitsIcEENS_9allocatorIcEEE13__get_pointerB8ue170006Ev, symObjAddr: 0x24834, symBinAddr: 0x100026DDC, symSize: 0x54 }
  - { offsetInCU: 0x7CF2C, offset: 0x7CF2C, size: 0x8, addend: 0x0, symName: __ZNKSt3__112basic_stringIcNS_11char_traitsIcEENS_9allocatorIcEEE9__is_longB8ue170006Ev, symObjAddr: 0x24888, symBinAddr: 0x100026E30, symSize: 0x38 }
  - { offsetInCU: 0x7CF52, offset: 0x7CF52, size: 0x8, addend: 0x0, symName: __ZNSt3__112basic_stringIcNS_11char_traitsIcEENS_9allocatorIcEEE18__get_long_pointerB8ue170006Ev, symObjAddr: 0x248C0, symBinAddr: 0x100026E68, symSize: 0x28 }
  - { offsetInCU: 0x7CF78, offset: 0x7CF78, size: 0x8, addend: 0x0, symName: __ZNSt3__112basic_stringIcNS_11char_traitsIcEENS_9allocatorIcEEE19__get_short_pointerB8ue170006Ev, symObjAddr: 0x248E8, symBinAddr: 0x100026E90, symSize: 0x28 }
  - { offsetInCU: 0x7CF9E, offset: 0x7CF9E, size: 0x8, addend: 0x0, symName: __ZNKSt3__117__compressed_pairINS_12basic_stringIcNS_11char_traitsIcEENS_9allocatorIcEEE5__repES5_E5firstB8ue170006Ev, symObjAddr: 0x24910, symBinAddr: 0x100026EB8, symSize: 0x24 }
  - { offsetInCU: 0x7CFC4, offset: 0x7CFC4, size: 0x8, addend: 0x0, symName: __ZNKSt3__122__compressed_pair_elemINS_12basic_stringIcNS_11char_traitsIcEENS_9allocatorIcEEE5__repELi0ELb0EE5__getB8ue170006Ev, symObjAddr: 0x24934, symBinAddr: 0x100026EDC, symSize: 0x14 }
  - { offsetInCU: 0x7CFEA, offset: 0x7CFEA, size: 0x8, addend: 0x0, symName: __ZNSt3__117__compressed_pairINS_12basic_stringIcNS_11char_traitsIcEENS_9allocatorIcEEE5__repES5_E5firstB8ue170006Ev, symObjAddr: 0x24948, symBinAddr: 0x100026EF0, symSize: 0x24 }
  - { offsetInCU: 0x7D010, offset: 0x7D010, size: 0x8, addend: 0x0, symName: __ZNSt3__122__compressed_pair_elemINS_12basic_stringIcNS_11char_traitsIcEENS_9allocatorIcEEE5__repELi0ELb0EE5__getB8ue170006Ev, symObjAddr: 0x2496C, symBinAddr: 0x100026F14, symSize: 0x14 }
  - { offsetInCU: 0x7D036, offset: 0x7D036, size: 0x8, addend: 0x0, symName: __ZNSt3__114pointer_traitsIPcE10pointer_toB8ue170006ERc, symObjAddr: 0x24980, symBinAddr: 0x100026F28, symSize: 0x14 }
  - { offsetInCU: 0x7D059, offset: 0x7D059, size: 0x8, addend: 0x0, symName: __ZNSt3__119ostreambuf_iteratorIcNS_11char_traitsIcEEEC2B8ue170006ERNS_13basic_ostreamIcS2_EE, symObjAddr: 0x24994, symBinAddr: 0x100026F3C, symSize: 0x54 }
  - { offsetInCU: 0x7D091, offset: 0x7D091, size: 0x8, addend: 0x0, symName: __ZNKSt3__19basic_iosIcNS_11char_traitsIcEEE5rdbufB8ue170006Ev, symObjAddr: 0x249E8, symBinAddr: 0x100026F90, symSize: 0x24 }
  - { offsetInCU: 0x7D0B9, offset: 0x7D0B9, size: 0x8, addend: 0x0, symName: __ZNKSt3__18ios_base5rdbufB8ue170006Ev, symObjAddr: 0x24A0C, symBinAddr: 0x100026FB4, symSize: 0x18 }
  - { offsetInCU: 0x7D0DF, offset: 0x7D0DF, size: 0x8, addend: 0x0, symName: __ZNSt3__111char_traitsIcE11eq_int_typeB8ue170006Eii, symObjAddr: 0x24A24, symBinAddr: 0x100026FCC, symSize: 0x28 }
  - { offsetInCU: 0x7D112, offset: 0x7D112, size: 0x8, addend: 0x0, symName: __ZNSt3__111char_traitsIcE3eofB8ue170006Ev, symObjAddr: 0x24A4C, symBinAddr: 0x100026FF4, symSize: 0x8 }
  - { offsetInCU: 0x7D126, offset: 0x7D126, size: 0x8, addend: 0x0, symName: __ZNKSt3__19basic_iosIcNS_11char_traitsIcEEE5widenB8ue170006Ec, symObjAddr: 0x24A54, symBinAddr: 0x100026FFC, symSize: 0x84 }
  - { offsetInCU: 0x7D18F, offset: 0x7D18F, size: 0x8, addend: 0x0, symName: __ZNKSt3__15ctypeIcE5widenB8ue170006Ec, symObjAddr: 0x24B04, symBinAddr: 0x1000270AC, symSize: 0x38 }
  - { offsetInCU: 0x7D1C4, offset: 0x7D1C4, size: 0x8, addend: 0x0, symName: __ZNSt3__18ios_base8setstateB8ue170006Ej, symObjAddr: 0x24B3C, symBinAddr: 0x1000270E4, symSize: 0x34 }
  - { offsetInCU: 0x7D1FB, offset: 0x7D1FB, size: 0x8, addend: 0x0, symName: __ZNSt3__123mersenne_twister_engineIjLm32ELm624ELm397ELm31ELj2567483615ELm11ELj4294967295ELm7ELj2636928640ELm15ELj4022730752ELm18ELj1812433253EEC2B8ue170006Ej, symObjAddr: 0x24B70, symBinAddr: 0x100027118, symSize: 0x34 }
  - { offsetInCU: 0x7D233, offset: 0x7D233, size: 0x8, addend: 0x0, symName: __ZNSt3__123mersenne_twister_engineIjLm32ELm624ELm397ELm31ELj2567483615ELm11ELj4294967295ELm7ELj2636928640ELm15ELj4022730752ELm18ELj1812433253EE4seedEj, symObjAddr: 0x24BA4, symBinAddr: 0x10002714C, symSize: 0xC4 }
  - { offsetInCU: 0x7D286, offset: 0x7D286, size: 0x8, addend: 0x0, symName: __ZNSt3__123mersenne_twister_engineIjLm32ELm624ELm397ELm31ELj2567483615ELm11ELj4294967295ELm7ELj2636928640ELm15ELj4022730752ELm18ELj1812433253EE8__rshiftB8ue170006ILm30EEENS_9enable_ifIXltT_L_ZNS1_3_DtEEEjE4typeEj, symObjAddr: 0x24C68, symBinAddr: 0x100027210, symSize: 0x18 }
  - { offsetInCU: 0x7D2B3, offset: 0x7D2B3, size: 0x8, addend: 0x0, symName: __ZN5Eigen8internal8FixedIntILi0EEC2Ev, symObjAddr: 0x24C80, symBinAddr: 0x100027228, symSize: 0x14 }
  - { offsetInCU: 0x7D2DD, offset: 0x7D2DD, size: 0x8, addend: 0x0, symName: __ZN5Eigen8internal8FixedIntILi2EEC2Ev, symObjAddr: 0x24C94, symBinAddr: 0x10002723C, symSize: 0x14 }
  - { offsetInCU: 0x7D307, offset: 0x7D307, size: 0x8, addend: 0x0, symName: __ZN5Eigen8internal8FixedIntILi3EEC2Ev, symObjAddr: 0x24CA8, symBinAddr: 0x100027250, symSize: 0x14 }
  - { offsetInCU: 0x7D331, offset: 0x7D331, size: 0x8, addend: 0x0, symName: __ZN5Eigen6MatrixIdLin1ELin1ELi0ELin1ELin1EEC2ERKS1_, symObjAddr: 0x24CBC, symBinAddr: 0x100027264, symSize: 0x34 }
  - { offsetInCU: 0x7D36A, offset: 0x7D36A, size: 0x8, addend: 0x0, symName: __ZN5Eigen15PlainObjectBaseINS_6MatrixIdLin1ELin1ELi0ELin1ELin1EEEEC2ERKS3_, symObjAddr: 0x24CF0, symBinAddr: 0x100027298, symSize: 0x3C }
  - { offsetInCU: 0x7D3A3, offset: 0x7D3A3, size: 0x8, addend: 0x0, symName: __ZN5Eigen12DenseStorageIdLin1ELin1ELin1ELi0EEC1ERKS1_, symObjAddr: 0x24D2C, symBinAddr: 0x1000272D4, symSize: 0x34 }
  - { offsetInCU: 0x7D3DC, offset: 0x7D3DC, size: 0x8, addend: 0x0, symName: __ZN5Eigen12DenseStorageIdLin1ELin1ELin1ELi0EEC2ERKS1_, symObjAddr: 0x24D60, symBinAddr: 0x100027308, symSize: 0x94 }
  - { offsetInCU: 0x7D415, offset: 0x7D415, size: 0x8, addend: 0x0, symName: __ZN5Eigen8internal17smart_copy_helperIdLb1EE3runEPKdS4_Pd, symObjAddr: 0x24E28, symBinAddr: 0x1000273D0, symSize: 0x60 }
  - { offsetInCU: 0x7D46E, offset: 0x7D46E, size: 0x8, addend: 0x0, symName: __ZN5Eigen6MatrixIdLin1ELin1ELi0ELin1ELin1EEC2IiiEERKT_RKT0_, symObjAddr: 0x24E88, symBinAddr: 0x100027430, symSize: 0x7C }
  - { offsetInCU: 0x7D4CD, offset: 0x7D4CD, size: 0x8, addend: 0x0, symName: __ZN5Eigen15PlainObjectBaseINS_6MatrixIdLin1ELin1ELi0ELin1ELin1EEEE6_init2IiiEEvllPNS_8internal9enable_ifILb1ET_E4typeE, symObjAddr: 0x24F04, symBinAddr: 0x1000274AC, symSize: 0x44 }
  - { offsetInCU: 0x7D54C, offset: 0x7D54C, size: 0x8, addend: 0x0, symName: __ZN5Eigen6MatrixIdLin1ELin1ELi0ELin1ELin1EEC2INS_14CwiseNullaryOpINS_8internal18scalar_constant_opIdEES1_EEEERKT_, symObjAddr: 0x24F48, symBinAddr: 0x1000274F0, symSize: 0x68 }
  - { offsetInCU: 0x7D58E, offset: 0x7D58E, size: 0x8, addend: 0x0, symName: __ZN5Eigen15PlainObjectBaseINS_6MatrixIdLin1ELin1ELi0ELin1ELin1EEEE6_init1INS_14CwiseNullaryOpINS_8internal18scalar_constant_opIdEES2_EES9_EEvRKNS_9DenseBaseIT0_EE, symObjAddr: 0x24FB0, symBinAddr: 0x100027558, symSize: 0x2C }
  - { offsetInCU: 0x7D5D5, offset: 0x7D5D5, size: 0x8, addend: 0x0, symName: __ZN5Eigen15PlainObjectBaseINS_6MatrixIdLin1ELin1ELi0ELin1ELin1EEEE12_set_noaliasINS_14CwiseNullaryOpINS_8internal18scalar_constant_opIdEES2_EEEERS2_RKNS_9DenseBaseIT_EE, symObjAddr: 0x24FDC, symBinAddr: 0x100027584, symSize: 0x60 }
  - { offsetInCU: 0x7D613, offset: 0x7D613, size: 0x8, addend: 0x0, symName: __ZNK5Eigen9DenseBaseINS_5ArrayIdLin1ELi1ELi0ELin1ELi1EEEE8maxCoeffILi0ElEEdPT0_, symObjAddr: 0x2503C, symBinAddr: 0x1000275E4, symSize: 0xC8 }
  - { offsetInCU: 0x7D68B, offset: 0x7D68B, size: 0x8, addend: 0x0, symName: __ZN5Eigen8internal17max_coeff_visitorINS_5ArrayIdLin1ELi1ELi0ELin1ELi1EEELi0EEC1Ev, symObjAddr: 0x25104, symBinAddr: 0x1000276AC, symSize: 0x2C }
  - { offsetInCU: 0x7D6BC, offset: 0x7D6BC, size: 0x8, addend: 0x0, symName: __ZNK5Eigen9DenseBaseINS_5ArrayIdLin1ELi1ELi0ELin1ELi1EEEE5visitINS_8internal17max_coeff_visitorIS2_Li0EEEEEvRT_, symObjAddr: 0x25130, symBinAddr: 0x1000276D8, symSize: 0x94 }
  - { offsetInCU: 0x7D715, offset: 0x7D715, size: 0x8, addend: 0x0, symName: __ZN5Eigen8internal17max_coeff_visitorINS_5ArrayIdLin1ELi1ELi0ELin1ELi1EEELi0EEC2Ev, symObjAddr: 0x251C4, symBinAddr: 0x10002776C, symSize: 0x2C }
  - { offsetInCU: 0x7D741, offset: 0x7D741, size: 0x8, addend: 0x0, symName: __ZN5Eigen8internal13coeff_visitorINS_5ArrayIdLin1ELi1ELi0ELin1ELi1EEEEC2Ev, symObjAddr: 0x251F0, symBinAddr: 0x100027798, symSize: 0x28 }
  - { offsetInCU: 0x7D77A, offset: 0x7D77A, size: 0x8, addend: 0x0, symName: __ZN5Eigen8internal17visitor_evaluatorINS_5ArrayIdLin1ELi1ELi0ELin1ELi1EEEEC1ERKS3_, symObjAddr: 0x25218, symBinAddr: 0x1000277C0, symSize: 0x34 }
  - { offsetInCU: 0x7D7B7, offset: 0x7D7B7, size: 0x8, addend: 0x0, symName: __ZN5Eigen8internal12visitor_implINS0_17max_coeff_visitorINS_5ArrayIdLin1ELi1ELi0ELin1ELi1EEELi0EEENS0_17visitor_evaluatorIS4_EELin1EE3runERKS7_RS5_, symObjAddr: 0x2524C, symBinAddr: 0x1000277F4, symSize: 0x174 }
  - { offsetInCU: 0x7D83C, offset: 0x7D83C, size: 0x8, addend: 0x0, symName: __ZN5Eigen8internal17visitor_evaluatorINS_5ArrayIdLin1ELi1ELi0ELin1ELi1EEEED1Ev, symObjAddr: 0x253C0, symBinAddr: 0x100027968, symSize: 0x2C }
  - { offsetInCU: 0x7D868, offset: 0x7D868, size: 0x8, addend: 0x0, symName: __ZN5Eigen8internal17visitor_evaluatorINS_5ArrayIdLin1ELi1ELi0ELin1ELi1EEEEC2ERKS3_, symObjAddr: 0x253EC, symBinAddr: 0x100027994, symSize: 0x3C }
  - { offsetInCU: 0x7D8A0, offset: 0x7D8A0, size: 0x8, addend: 0x0, symName: __ZN5Eigen8internal13coeff_visitorINS_5ArrayIdLin1ELi1ELi0ELin1ELi1EEEE4initERKdll, symObjAddr: 0x25428, symBinAddr: 0x1000279D0, symSize: 0x3C }
  - { offsetInCU: 0x7D8F0, offset: 0x7D8F0, size: 0x8, addend: 0x0, symName: __ZNK5Eigen8internal17visitor_evaluatorINS_5ArrayIdLin1ELi1ELi0ELin1ELi1EEEE5coeffEll, symObjAddr: 0x25464, symBinAddr: 0x100027A0C, symSize: 0x34 }
  - { offsetInCU: 0x7D932, offset: 0x7D932, size: 0x8, addend: 0x0, symName: __ZNK5Eigen8internal17visitor_evaluatorINS_5ArrayIdLin1ELi1ELi0ELin1ELi1EEEE4rowsEv, symObjAddr: 0x25498, symBinAddr: 0x100027A40, symSize: 0x28 }
  - { offsetInCU: 0x7D958, offset: 0x7D958, size: 0x8, addend: 0x0, symName: __ZN5Eigen8internal17max_coeff_visitorINS_5ArrayIdLin1ELi1ELi0ELin1ELi1EEELi0EEclERKdll, symObjAddr: 0x254C0, symBinAddr: 0x100027A68, symSize: 0x64 }
  - { offsetInCU: 0x7D9A8, offset: 0x7D9A8, size: 0x8, addend: 0x0, symName: __ZNK5Eigen8internal17visitor_evaluatorINS_5ArrayIdLin1ELi1ELi0ELin1ELi1EEEE4colsEv, symObjAddr: 0x25524, symBinAddr: 0x100027ACC, symSize: 0x28 }
  - { offsetInCU: 0x7D9CE, offset: 0x7D9CE, size: 0x8, addend: 0x0, symName: __ZNK5Eigen8internal9evaluatorINS_15PlainObjectBaseINS_5ArrayIdLin1ELi1ELi0ELin1ELi1EEEEEE5coeffEll, symObjAddr: 0x2554C, symBinAddr: 0x100027AF4, symSize: 0x5C }
  - { offsetInCU: 0x7DA10, offset: 0x7DA10, size: 0x8, addend: 0x0, symName: __ZNK5Eigen8internal30plainobjectbase_evaluator_dataIdLi0EE11outerStrideEv, symObjAddr: 0x255A8, symBinAddr: 0x100027B50, symSize: 0x14 }
  - { offsetInCU: 0x7DA36, offset: 0x7DA36, size: 0x8, addend: 0x0, symName: __ZN5Eigen8internal17visitor_evaluatorINS_5ArrayIdLin1ELi1ELi0ELin1ELi1EEEED2Ev, symObjAddr: 0x255BC, symBinAddr: 0x100027B64, symSize: 0x2C }
  - { offsetInCU: 0x7DA62, offset: 0x7DA62, size: 0x8, addend: 0x0, symName: __ZN5Eigen15DenseCoeffsBaseINS_6MatrixIdLin1ELin1ELi0ELin1ELin1EEELi1EE8coeffRefEll, symObjAddr: 0x255E8, symBinAddr: 0x100027B90, symSize: 0x80 }
  - { offsetInCU: 0x7DAA6, offset: 0x7DAA6, size: 0x8, addend: 0x0, symName: __ZN5Eigen9DenseBaseINS_6MatrixIdLin1ELin1ELi0ELin1ELin1EEEE11NullaryExprINS_8internal16scalar_random_opIdEEEEKNS_14CwiseNullaryOpIT_S2_EEllRKS9_, symObjAddr: 0x25668, symBinAddr: 0x100027C10, symSize: 0x48 }
  - { offsetInCU: 0x7DAF3, offset: 0x7DAF3, size: 0x8, addend: 0x0, symName: __ZN5Eigen8internal16scalar_random_opIdEC1Ev, symObjAddr: 0x256B0, symBinAddr: 0x100027C58, symSize: 0x2C }
  - { offsetInCU: 0x7DB1D, offset: 0x7DB1D, size: 0x8, addend: 0x0, symName: __ZN5Eigen14CwiseNullaryOpINS_8internal16scalar_random_opIdEENS_6MatrixIdLin1ELin1ELi0ELin1ELin1EEEEC1EllRKS3_, symObjAddr: 0x256DC, symBinAddr: 0x100027C84, symSize: 0x44 }
  - { offsetInCU: 0x7DB71, offset: 0x7DB71, size: 0x8, addend: 0x0, symName: __ZN5Eigen14CwiseNullaryOpINS_8internal16scalar_random_opIdEENS_6MatrixIdLin1ELin1ELi0ELin1ELin1EEEEC2EllRKS3_, symObjAddr: 0x25720, symBinAddr: 0x100027CC8, symSize: 0xDC }
  - { offsetInCU: 0x7DBC5, offset: 0x7DBC5, size: 0x8, addend: 0x0, symName: __ZN5Eigen10MatrixBaseINS_14CwiseNullaryOpINS_8internal16scalar_random_opIdEENS_6MatrixIdLin1ELin1ELi0ELin1ELin1EEEEEEC2Ev, symObjAddr: 0x257FC, symBinAddr: 0x100027DA4, symSize: 0x2C }
  - { offsetInCU: 0x7DBEF, offset: 0x7DBEF, size: 0x8, addend: 0x0, symName: __ZN5Eigen8internal16scalar_random_opIdEC1ERKS2_, symObjAddr: 0x25828, symBinAddr: 0x100027DD0, symSize: 0x34 }
  - { offsetInCU: 0x7DC24, offset: 0x7DC24, size: 0x8, addend: 0x0, symName: __ZN5Eigen9DenseBaseINS_14CwiseNullaryOpINS_8internal16scalar_random_opIdEENS_6MatrixIdLin1ELin1ELi0ELin1ELin1EEEEEEC2Ev, symObjAddr: 0x2585C, symBinAddr: 0x100027E04, symSize: 0x14 }
  - { offsetInCU: 0x7DC4E, offset: 0x7DC4E, size: 0x8, addend: 0x0, symName: __ZN5Eigen8internal16scalar_random_opIdEC2ERKS2_, symObjAddr: 0x25870, symBinAddr: 0x100027E18, symSize: 0x18 }
  - { offsetInCU: 0x7DC83, offset: 0x7DC83, size: 0x8, addend: 0x0, symName: __ZN5Eigen8internal16scalar_random_opIdEC2Ev, symObjAddr: 0x25888, symBinAddr: 0x100027E30, symSize: 0x14 }
  - { offsetInCU: 0x7DCAD, offset: 0x7DCAD, size: 0x8, addend: 0x0, symName: __ZNK5Eigen9EigenBaseINS_14CwiseNullaryOpINS_8internal16scalar_random_opIdEENS_6MatrixIdLin1ELin1ELi0ELin1ELin1EEEEEE7derivedEv, symObjAddr: 0x2589C, symBinAddr: 0x100027E44, symSize: 0x14 }
  - { offsetInCU: 0x7DCD3, offset: 0x7DCD3, size: 0x8, addend: 0x0, symName: '__ZN5Eigen12CwiseUnaryOpIZN8AI_Snake16set_child_matrixENS_6MatrixIdLin1ELin1ELi0ELin1ELin1EEES3_RS3_E3$_0KNS_14CwiseNullaryOpINS_8internal16scalar_random_opIdEES3_EEEC1ERSB_RKS5_', symObjAddr: 0x258B0, symBinAddr: 0x100027E58, symSize: 0x3C }
  - { offsetInCU: 0x7DD19, offset: 0x7DD19, size: 0x8, addend: 0x0, symName: '__ZN5Eigen12CwiseUnaryOpIZN8AI_Snake16set_child_matrixENS_6MatrixIdLin1ELin1ELi0ELin1ELin1EEES3_RS3_E3$_0KNS_14CwiseNullaryOpINS_8internal16scalar_random_opIdEES3_EEEC2ERSB_RKS5_', symObjAddr: 0x258EC, symBinAddr: 0x100027E94, symSize: 0x44 }
  - { offsetInCU: 0x7DD64, offset: 0x7DD64, size: 0x8, addend: 0x0, symName: '__ZN5Eigen16CwiseUnaryOpImplIZN8AI_Snake16set_child_matrixENS_6MatrixIdLin1ELin1ELi0ELin1ELin1EEES3_RS3_E3$_0KNS_14CwiseNullaryOpINS_8internal16scalar_random_opIdEES3_EENS_5DenseEEC2Ev', symObjAddr: 0x25930, symBinAddr: 0x100027ED8, symSize: 0x2C }
  - { offsetInCU: 0x7DD90, offset: 0x7DD90, size: 0x8, addend: 0x0, symName: __ZN5Eigen14CwiseNullaryOpINS_8internal16scalar_random_opIdEENS_6MatrixIdLin1ELin1ELi0ELin1ELin1EEEEC1ERKS6_, symObjAddr: 0x2595C, symBinAddr: 0x100027F04, symSize: 0x34 }
  - { offsetInCU: 0x7DDC5, offset: 0x7DDC5, size: 0x8, addend: 0x0, symName: '__ZN5Eigen10MatrixBaseINS_12CwiseUnaryOpIZN8AI_Snake16set_child_matrixENS_6MatrixIdLin1ELin1ELi0ELin1ELin1EEES4_RS4_E3$_0KNS_14CwiseNullaryOpINS_8internal16scalar_random_opIdEES4_EEEEEC2Ev', symObjAddr: 0x25990, symBinAddr: 0x100027F38, symSize: 0x2C }
  - { offsetInCU: 0x7DDEF, offset: 0x7DDEF, size: 0x8, addend: 0x0, symName: '__ZN5Eigen9DenseBaseINS_12CwiseUnaryOpIZN8AI_Snake16set_child_matrixENS_6MatrixIdLin1ELin1ELi0ELin1ELin1EEES4_RS4_E3$_0KNS_14CwiseNullaryOpINS_8internal16scalar_random_opIdEES4_EEEEEC2Ev', symObjAddr: 0x259BC, symBinAddr: 0x100027F64, symSize: 0x14 }
  - { offsetInCU: 0x7DE19, offset: 0x7DE19, size: 0x8, addend: 0x0, symName: __ZN5Eigen14CwiseNullaryOpINS_8internal16scalar_random_opIdEENS_6MatrixIdLin1ELin1ELi0ELin1ELin1EEEEC2ERKS6_, symObjAddr: 0x259D0, symBinAddr: 0x100027F78, symSize: 0x48 }
  - { offsetInCU: 0x7DE4E, offset: 0x7DE4E, size: 0x8, addend: 0x0, symName: '__ZN5Eigen6MatrixIdLin1ELin1ELi0ELin1ELin1EEC2INS_12CwiseUnaryOpIZN8AI_Snake16set_child_matrixES1_S1_RS1_E3$_0KNS_14CwiseNullaryOpINS_8internal16scalar_random_opIdEES1_EEEEEERKNS_9EigenBaseIT_EE', symObjAddr: 0x25A18, symBinAddr: 0x100027FC0, symSize: 0x40 }
  - { offsetInCU: 0x7DE90, offset: 0x7DE90, size: 0x8, addend: 0x0, symName: '__ZNK5Eigen9EigenBaseINS_12CwiseUnaryOpIZN8AI_Snake16set_child_matrixENS_6MatrixIdLin1ELin1ELi0ELin1ELin1EEES4_RS4_E3$_0KNS_14CwiseNullaryOpINS_8internal16scalar_random_opIdEES4_EEEEE7derivedEv', symObjAddr: 0x25A58, symBinAddr: 0x100028000, symSize: 0x14 }
  - { offsetInCU: 0x7DEB6, offset: 0x7DEB6, size: 0x8, addend: 0x0, symName: '__ZN5Eigen15PlainObjectBaseINS_6MatrixIdLin1ELin1ELi0ELin1ELin1EEEEC2INS_12CwiseUnaryOpIZN8AI_Snake16set_child_matrixES2_S2_RS2_E3$_0KNS_14CwiseNullaryOpINS_8internal16scalar_random_opIdEES2_EEEEEERKNS_9DenseBaseIT_EE', symObjAddr: 0x25A6C, symBinAddr: 0x100028014, symSize: 0x80 }
  - { offsetInCU: 0x7DEF8, offset: 0x7DEF8, size: 0x8, addend: 0x0, symName: '__ZN5Eigen15PlainObjectBaseINS_6MatrixIdLin1ELin1ELi0ELin1ELin1EEEE10resizeLikeINS_12CwiseUnaryOpIZN8AI_Snake16set_child_matrixES2_S2_RS2_E3$_0KNS_14CwiseNullaryOpINS_8internal16scalar_random_opIdEES2_EEEEEEvRKNS_9EigenBaseIT_EE', symObjAddr: 0x25AEC, symBinAddr: 0x100028094, symSize: 0x11C }
  - { offsetInCU: 0x7DF8C, offset: 0x7DF8C, size: 0x8, addend: 0x0, symName: '__ZN5Eigen15PlainObjectBaseINS_6MatrixIdLin1ELin1ELi0ELin1ELin1EEEE12_set_noaliasINS_12CwiseUnaryOpIZN8AI_Snake16set_child_matrixES2_S2_RS2_E3$_0KNS_14CwiseNullaryOpINS_8internal16scalar_random_opIdEES2_EEEEEES7_RKNS_9DenseBaseIT_EE', symObjAddr: 0x25C08, symBinAddr: 0x1000281B0, symSize: 0x60 }
  - { offsetInCU: 0x7DFCA, offset: 0x7DFCA, size: 0x8, addend: 0x0, symName: '__ZNK5Eigen12CwiseUnaryOpIZN8AI_Snake16set_child_matrixENS_6MatrixIdLin1ELin1ELi0ELin1ELin1EEES3_RS3_E3$_0KNS_14CwiseNullaryOpINS_8internal16scalar_random_opIdEES3_EEE4rowsEv', symObjAddr: 0x25C68, symBinAddr: 0x100028210, symSize: 0x38 }
  - { offsetInCU: 0x7DFF0, offset: 0x7DFF0, size: 0x8, addend: 0x0, symName: '__ZNK5Eigen12CwiseUnaryOpIZN8AI_Snake16set_child_matrixENS_6MatrixIdLin1ELin1ELi0ELin1ELin1EEES3_RS3_E3$_0KNS_14CwiseNullaryOpINS_8internal16scalar_random_opIdEES3_EEE4colsEv', symObjAddr: 0x25CA0, symBinAddr: 0x100028248, symSize: 0x38 }
  - { offsetInCU: 0x7E016, offset: 0x7E016, size: 0x8, addend: 0x0, symName: __ZNK5Eigen14CwiseNullaryOpINS_8internal16scalar_random_opIdEENS_6MatrixIdLin1ELin1ELi0ELin1ELin1EEEE4rowsEv, symObjAddr: 0x25CD8, symBinAddr: 0x100028280, symSize: 0x24 }
  - { offsetInCU: 0x7E03C, offset: 0x7E03C, size: 0x8, addend: 0x0, symName: __ZNK5Eigen14CwiseNullaryOpINS_8internal16scalar_random_opIdEENS_6MatrixIdLin1ELin1ELi0ELin1ELin1EEEE4colsEv, symObjAddr: 0x25CFC, symBinAddr: 0x1000282A4, symSize: 0x28 }
  - { offsetInCU: 0x7E062, offset: 0x7E062, size: 0x8, addend: 0x0, symName: '__ZN5Eigen8internal10AssignmentINS_6MatrixIdLin1ELin1ELi0ELin1ELin1EEENS_12CwiseUnaryOpIZN8AI_Snake16set_child_matrixES3_S3_RS3_E3$_0KNS_14CwiseNullaryOpINS0_16scalar_random_opIdEES3_EEEENS0_9assign_opIddEENS0_11Dense2DenseEvE3runES6_RKSD_RKSF_', symObjAddr: 0x25D60, symBinAddr: 0x100028308, symSize: 0x40 }
  - { offsetInCU: 0x7E0A4, offset: 0x7E0A4, size: 0x8, addend: 0x0, symName: '__ZN5Eigen8internal27checkTransposeAliasing_implINS_6MatrixIdLin1ELin1ELi0ELin1ELin1EEENS_12CwiseUnaryOpIZN8AI_Snake16set_child_matrixES3_S3_RS3_E3$_0KNS_14CwiseNullaryOpINS0_16scalar_random_opIdEES3_EEEELb0EE3runERKS3_RKSD_', symObjAddr: 0x25ED8, symBinAddr: 0x100028480, symSize: 0x14 }
  - { offsetInCU: 0x7E133, offset: 0x7E133, size: 0x8, addend: 0x0, symName: '__ZN5Eigen8internal9evaluatorINS_12CwiseUnaryOpIZN8AI_Snake16set_child_matrixENS_6MatrixIdLin1ELin1ELi0ELin1ELin1EEES5_RS5_E3$_0KNS_14CwiseNullaryOpINS0_16scalar_random_opIdEES5_EEEEEC1ERKSD_', symObjAddr: 0x25EEC, symBinAddr: 0x100028494, symSize: 0x34 }
  - { offsetInCU: 0x7E198, offset: 0x7E198, size: 0x8, addend: 0x0, symName: '__ZN5Eigen8internal31generic_dense_assignment_kernelINS0_9evaluatorINS_6MatrixIdLin1ELin1ELi0ELin1ELin1EEEEENS2_INS_12CwiseUnaryOpIZN8AI_Snake16set_child_matrixES4_S4_RS4_E3$_0KNS_14CwiseNullaryOpINS0_16scalar_random_opIdEES4_EEEEEENS0_9assign_opIddEELi0EEC1ERS5_RKSG_RKSI_S8_', symObjAddr: 0x26018, symBinAddr: 0x1000285C0, symSize: 0x4C }
  - { offsetInCU: 0x7E203, offset: 0x7E203, size: 0x8, addend: 0x0, symName: '__ZN5Eigen8internal21dense_assignment_loopINS0_31generic_dense_assignment_kernelINS0_9evaluatorINS_6MatrixIdLin1ELin1ELi0ELin1ELin1EEEEENS3_INS_12CwiseUnaryOpIZN8AI_Snake16set_child_matrixES5_S5_RS5_E3$_0KNS_14CwiseNullaryOpINS0_16scalar_random_opIdEES5_EEEEEENS0_9assign_opIddEELi0EEELi1ELi0EE3runERSK_', symObjAddr: 0x26064, symBinAddr: 0x10002860C, symSize: 0x68 }
  - { offsetInCU: 0x7E253, offset: 0x7E253, size: 0x8, addend: 0x0, symName: '__ZN5Eigen8internal9evaluatorINS_12CwiseUnaryOpIZN8AI_Snake16set_child_matrixENS_6MatrixIdLin1ELin1ELi0ELin1ELin1EEES5_RS5_E3$_0KNS_14CwiseNullaryOpINS0_16scalar_random_opIdEES5_EEEEED1Ev', symObjAddr: 0x260CC, symBinAddr: 0x100028674, symSize: 0x2C }
  - { offsetInCU: 0x7E27F, offset: 0x7E27F, size: 0x8, addend: 0x0, symName: '__ZN5Eigen8internal9evaluatorINS_12CwiseUnaryOpIZN8AI_Snake16set_child_matrixENS_6MatrixIdLin1ELin1ELi0ELin1ELin1EEES5_RS5_E3$_0KNS_14CwiseNullaryOpINS0_16scalar_random_opIdEES5_EEEEEC2ERKSD_', symObjAddr: 0x260F8, symBinAddr: 0x1000286A0, symSize: 0x34 }
  - { offsetInCU: 0x7E2B7, offset: 0x7E2B7, size: 0x8, addend: 0x0, symName: '__ZN5Eigen8internal15unary_evaluatorINS_12CwiseUnaryOpIZN8AI_Snake16set_child_matrixENS_6MatrixIdLin1ELin1ELi0ELin1ELin1EEES5_RS5_E3$_0KNS_14CwiseNullaryOpINS0_16scalar_random_opIdEES5_EEEENS0_10IndexBasedEdEC2ERKSD_', symObjAddr: 0x2612C, symBinAddr: 0x1000286D4, symSize: 0x64 }
  - { offsetInCU: 0x7E2F0, offset: 0x7E2F0, size: 0x8, addend: 0x0, symName: '__ZN5Eigen8internal14evaluator_baseINS_12CwiseUnaryOpIZN8AI_Snake16set_child_matrixENS_6MatrixIdLin1ELin1ELi0ELin1ELin1EEES5_RS5_E3$_0KNS_14CwiseNullaryOpINS0_16scalar_random_opIdEES5_EEEEEC2Ev', symObjAddr: 0x26190, symBinAddr: 0x100028738, symSize: 0x14 }
  - { offsetInCU: 0x7E31A, offset: 0x7E31A, size: 0x8, addend: 0x0, symName: '__ZN5Eigen8internal15unary_evaluatorINS_12CwiseUnaryOpIZN8AI_Snake16set_child_matrixENS_6MatrixIdLin1ELin1ELi0ELin1ELin1EEES5_RS5_E3$_0KNS_14CwiseNullaryOpINS0_16scalar_random_opIdEES5_EEEENS0_10IndexBasedEdE4DataC1ERKSD_', symObjAddr: 0x261A4, symBinAddr: 0x10002874C, symSize: 0x34 }
  - { offsetInCU: 0x7E353, offset: 0x7E353, size: 0x8, addend: 0x0, symName: '__ZN5Eigen8internal14evaluator_baseINS_12CwiseUnaryOpIZN8AI_Snake16set_child_matrixENS_6MatrixIdLin1ELin1ELi0ELin1ELin1EEES5_RS5_E3$_0KNS_14CwiseNullaryOpINS0_16scalar_random_opIdEES5_EEEEED2Ev', symObjAddr: 0x261D8, symBinAddr: 0x100028780, symSize: 0x14 }
  - { offsetInCU: 0x7E37D, offset: 0x7E37D, size: 0x8, addend: 0x0, symName: '__ZN5Eigen8internal15unary_evaluatorINS_12CwiseUnaryOpIZN8AI_Snake16set_child_matrixENS_6MatrixIdLin1ELin1ELi0ELin1ELin1EEES5_RS5_E3$_0KNS_14CwiseNullaryOpINS0_16scalar_random_opIdEES5_EEEENS0_10IndexBasedEdE4DataC2ERKSD_', symObjAddr: 0x261EC, symBinAddr: 0x100028794, symSize: 0x4C }
  - { offsetInCU: 0x7E3B6, offset: 0x7E3B6, size: 0x8, addend: 0x0, symName: '__ZNK5Eigen12CwiseUnaryOpIZN8AI_Snake16set_child_matrixENS_6MatrixIdLin1ELin1ELi0ELin1ELin1EEES3_RS3_E3$_0KNS_14CwiseNullaryOpINS_8internal16scalar_random_opIdEES3_EEE7functorEv', symObjAddr: 0x26238, symBinAddr: 0x1000287E0, symSize: 0x18 }
  - { offsetInCU: 0x7E3DC, offset: 0x7E3DC, size: 0x8, addend: 0x0, symName: '__ZNK5Eigen12CwiseUnaryOpIZN8AI_Snake16set_child_matrixENS_6MatrixIdLin1ELin1ELi0ELin1ELin1EEES3_RS3_E3$_0KNS_14CwiseNullaryOpINS_8internal16scalar_random_opIdEES3_EEE16nestedExpressionEv', symObjAddr: 0x26250, symBinAddr: 0x1000287F8, symSize: 0x18 }
  - { offsetInCU: 0x7E402, offset: 0x7E402, size: 0x8, addend: 0x0, symName: __ZN5Eigen8internal9evaluatorIKNS_14CwiseNullaryOpINS0_16scalar_random_opIdEENS_6MatrixIdLin1ELin1ELi0ELin1ELin1EEEEEEC1ERS8_, symObjAddr: 0x26268, symBinAddr: 0x100028810, symSize: 0x34 }
  - { offsetInCU: 0x7E43A, offset: 0x7E43A, size: 0x8, addend: 0x0, symName: __ZN5Eigen8internal9evaluatorIKNS_14CwiseNullaryOpINS0_16scalar_random_opIdEENS_6MatrixIdLin1ELin1ELi0ELin1ELin1EEEEEEC2ERS8_, symObjAddr: 0x2629C, symBinAddr: 0x100028844, symSize: 0x34 }
  - { offsetInCU: 0x7E472, offset: 0x7E472, size: 0x8, addend: 0x0, symName: __ZN5Eigen8internal9evaluatorINS_14CwiseNullaryOpINS0_16scalar_random_opIdEENS_6MatrixIdLin1ELin1ELi0ELin1ELin1EEEEEEC2ERKS7_, symObjAddr: 0x262D0, symBinAddr: 0x100028878, symSize: 0x74 }
  - { offsetInCU: 0x7E4AB, offset: 0x7E4AB, size: 0x8, addend: 0x0, symName: __ZN5Eigen8internal14evaluator_baseINS_14CwiseNullaryOpINS0_16scalar_random_opIdEENS_6MatrixIdLin1ELin1ELi0ELin1ELin1EEEEEEC2Ev, symObjAddr: 0x26344, symBinAddr: 0x1000288EC, symSize: 0x14 }
  - { offsetInCU: 0x7E4D5, offset: 0x7E4D5, size: 0x8, addend: 0x0, symName: __ZNK5Eigen14CwiseNullaryOpINS_8internal16scalar_random_opIdEENS_6MatrixIdLin1ELin1ELi0ELin1ELin1EEEE7functorEv, symObjAddr: 0x26358, symBinAddr: 0x100028900, symSize: 0x18 }
  - { offsetInCU: 0x7E4FB, offset: 0x7E4FB, size: 0x8, addend: 0x0, symName: __ZN5Eigen8internal14evaluator_baseINS_14CwiseNullaryOpINS0_16scalar_random_opIdEENS_6MatrixIdLin1ELin1ELi0ELin1ELin1EEEEEED2Ev, symObjAddr: 0x26370, symBinAddr: 0x100028918, symSize: 0x14 }
  - { offsetInCU: 0x7E525, offset: 0x7E525, size: 0x8, addend: 0x0, symName: '__ZN5Eigen8internal31generic_dense_assignment_kernelINS0_9evaluatorINS_6MatrixIdLin1ELin1ELi0ELin1ELin1EEEEENS2_INS_12CwiseUnaryOpIZN8AI_Snake16set_child_matrixES4_S4_RS4_E3$_0KNS_14CwiseNullaryOpINS0_16scalar_random_opIdEES4_EEEEEENS0_9assign_opIddEELi0EEC2ERS5_RKSG_RKSI_S8_', symObjAddr: 0x26384, symBinAddr: 0x10002892C, symSize: 0x44 }
  - { offsetInCU: 0x7E58B, offset: 0x7E58B, size: 0x8, addend: 0x0, symName: '__ZNK5Eigen8internal31generic_dense_assignment_kernelINS0_9evaluatorINS_6MatrixIdLin1ELin1ELi0ELin1ELin1EEEEENS2_INS_12CwiseUnaryOpIZN8AI_Snake16set_child_matrixES4_S4_RS4_E3$_0KNS_14CwiseNullaryOpINS0_16scalar_random_opIdEES4_EEEEEENS0_9assign_opIddEELi0EE4sizeEv', symObjAddr: 0x263C8, symBinAddr: 0x100028970, symSize: 0x28 }
  - { offsetInCU: 0x7E5B1, offset: 0x7E5B1, size: 0x8, addend: 0x0, symName: '__ZN5Eigen8internal31generic_dense_assignment_kernelINS0_9evaluatorINS_6MatrixIdLin1ELin1ELi0ELin1ELin1EEEEENS2_INS_12CwiseUnaryOpIZN8AI_Snake16set_child_matrixES4_S4_RS4_E3$_0KNS_14CwiseNullaryOpINS0_16scalar_random_opIdEES4_EEEEEENS0_9assign_opIddEELi0EE11assignCoeffEl', symObjAddr: 0x263F0, symBinAddr: 0x100028998, symSize: 0x64 }
  - { offsetInCU: 0x7E5E6, offset: 0x7E5E6, size: 0x8, addend: 0x0, symName: '__ZNK5Eigen8internal15unary_evaluatorINS_12CwiseUnaryOpIZN8AI_Snake16set_child_matrixENS_6MatrixIdLin1ELin1ELi0ELin1ELin1EEES5_RS5_E3$_0KNS_14CwiseNullaryOpINS0_16scalar_random_opIdEES5_EEEENS0_10IndexBasedEdE5coeffEl', symObjAddr: 0x26454, symBinAddr: 0x1000289FC, symSize: 0x48 }
  - { offsetInCU: 0x7E61B, offset: 0x7E61B, size: 0x8, addend: 0x0, symName: '__ZNK5Eigen8internal15unary_evaluatorINS_12CwiseUnaryOpIZN8AI_Snake16set_child_matrixENS_6MatrixIdLin1ELin1ELi0ELin1ELin1EEES5_RS5_E3$_0KNS_14CwiseNullaryOpINS0_16scalar_random_opIdEES5_EEEENS0_10IndexBasedEdE4Data4funcEv', symObjAddr: 0x2649C, symBinAddr: 0x100028A44, symSize: 0x14 }
  - { offsetInCU: 0x7E646, offset: 0x7E646, size: 0x8, addend: 0x0, symName: '__ZZN8AI_Snake16set_child_matrixEN5Eigen6MatrixIdLin1ELin1ELi0ELin1ELin1EEES2_RS2_ENK3$_0clEd', symObjAddr: 0x264B0, symBinAddr: 0x100028A58, symSize: 0x34 }
  - { offsetInCU: 0x7E688, offset: 0x7E688, size: 0x8, addend: 0x0, symName: __ZNK5Eigen8internal9evaluatorINS_14CwiseNullaryOpINS0_16scalar_random_opIdEENS_6MatrixIdLin1ELin1ELi0ELin1ELin1EEEEEE5coeffIlEEdT_, symObjAddr: 0x264E4, symBinAddr: 0x100028A8C, symSize: 0x38 }
  - { offsetInCU: 0x7E6CB, offset: 0x7E6CB, size: 0x8, addend: 0x0, symName: __ZNK5Eigen8internal15nullary_wrapperIdNS0_16scalar_random_opIdEELb1ELb0ELb0EEclIlEEdRKS3_T_S8_, symObjAddr: 0x2651C, symBinAddr: 0x100028AC4, symSize: 0x30 }
  - { offsetInCU: 0x7E71F, offset: 0x7E71F, size: 0x8, addend: 0x0, symName: __ZNK5Eigen8internal16scalar_random_opIdEclEv, symObjAddr: 0x2654C, symBinAddr: 0x100028AF4, symSize: 0x20 }
  - { offsetInCU: 0x7E745, offset: 0x7E745, size: 0x8, addend: 0x0, symName: __ZN5Eigen8internal19random_default_implIdLb0ELb0EE3runEv, symObjAddr: 0x26580, symBinAddr: 0x100028B28, symSize: 0x34 }
  - { offsetInCU: 0x7E759, offset: 0x7E759, size: 0x8, addend: 0x0, symName: __ZN5Eigen8internal19random_default_implIdLb0ELb0EE3runERKdS4_, symObjAddr: 0x265B4, symBinAddr: 0x100028B5C, symSize: 0x68 }
  - { offsetInCU: 0x7E78C, offset: 0x7E78C, size: 0x8, addend: 0x0, symName: '__ZN5Eigen8internal9evaluatorINS_12CwiseUnaryOpIZN8AI_Snake16set_child_matrixENS_6MatrixIdLin1ELin1ELi0ELin1ELin1EEES5_RS5_E3$_0KNS_14CwiseNullaryOpINS0_16scalar_random_opIdEES5_EEEEED2Ev', symObjAddr: 0x2661C, symBinAddr: 0x100028BC4, symSize: 0x2C }
  - { offsetInCU: 0x7E7B8, offset: 0x7E7B8, size: 0x8, addend: 0x0, symName: '__ZN5Eigen8internal15unary_evaluatorINS_12CwiseUnaryOpIZN8AI_Snake16set_child_matrixENS_6MatrixIdLin1ELin1ELi0ELin1ELin1EEES5_RS5_E3$_0KNS_14CwiseNullaryOpINS0_16scalar_random_opIdEES5_EEEENS0_10IndexBasedEdED2Ev', symObjAddr: 0x26648, symBinAddr: 0x100028BF0, symSize: 0x34 }
  - { offsetInCU: 0x7E7E4, offset: 0x7E7E4, size: 0x8, addend: 0x0, symName: '__ZN5Eigen8internal15unary_evaluatorINS_12CwiseUnaryOpIZN8AI_Snake16set_child_matrixENS_6MatrixIdLin1ELin1ELi0ELin1ELin1EEES5_RS5_E3$_0KNS_14CwiseNullaryOpINS0_16scalar_random_opIdEES5_EEEENS0_10IndexBasedEdE4DataD1Ev', symObjAddr: 0x2667C, symBinAddr: 0x100028C24, symSize: 0x2C }
  - { offsetInCU: 0x7E811, offset: 0x7E811, size: 0x8, addend: 0x0, symName: '__ZN5Eigen8internal15unary_evaluatorINS_12CwiseUnaryOpIZN8AI_Snake16set_child_matrixENS_6MatrixIdLin1ELin1ELi0ELin1ELin1EEES5_RS5_E3$_0KNS_14CwiseNullaryOpINS0_16scalar_random_opIdEES5_EEEENS0_10IndexBasedEdE4DataD2Ev', symObjAddr: 0x266A8, symBinAddr: 0x100028C50, symSize: 0x30 }
  - { offsetInCU: 0x7E83E, offset: 0x7E83E, size: 0x8, addend: 0x0, symName: __ZN5Eigen8internal9evaluatorIKNS_14CwiseNullaryOpINS0_16scalar_random_opIdEENS_6MatrixIdLin1ELin1ELi0ELin1ELin1EEEEEED1Ev, symObjAddr: 0x266D8, symBinAddr: 0x100028C80, symSize: 0x2C }
  - { offsetInCU: 0x7E86A, offset: 0x7E86A, size: 0x8, addend: 0x0, symName: __ZN5Eigen8internal9evaluatorIKNS_14CwiseNullaryOpINS0_16scalar_random_opIdEENS_6MatrixIdLin1ELin1ELi0ELin1ELin1EEEEEED2Ev, symObjAddr: 0x26704, symBinAddr: 0x100028CAC, symSize: 0x2C }
  - { offsetInCU: 0x7E896, offset: 0x7E896, size: 0x8, addend: 0x0, symName: __ZN5Eigen8internal9evaluatorINS_14CwiseNullaryOpINS0_16scalar_random_opIdEENS_6MatrixIdLin1ELin1ELi0ELin1ELin1EEEEEED2Ev, symObjAddr: 0x26730, symBinAddr: 0x100028CD8, symSize: 0x2C }
  - { offsetInCU: 0x7E8C2, offset: 0x7E8C2, size: 0x8, addend: 0x0, symName: __ZN5Eigen13CwiseBinaryOpINS_8internal17scalar_product_opIddEEKNS_6MatrixIdLin1ELin1ELi0ELin1ELin1EEES6_EC1ERS6_S8_RKS3_, symObjAddr: 0x2675C, symBinAddr: 0x100028D04, symSize: 0x44 }
  - { offsetInCU: 0x7E916, offset: 0x7E916, size: 0x8, addend: 0x0, symName: __ZN5Eigen13CwiseBinaryOpINS_8internal17scalar_product_opIddEEKNS_6MatrixIdLin1ELin1ELi0ELin1ELin1EEES6_EC2ERS6_S8_RKS3_, symObjAddr: 0x267A0, symBinAddr: 0x100028D48, symSize: 0xF0 }
  - { offsetInCU: 0x7E96F, offset: 0x7E96F, size: 0x8, addend: 0x0, symName: __ZN5Eigen17CwiseBinaryOpImplINS_8internal17scalar_product_opIddEEKNS_6MatrixIdLin1ELin1ELi0ELin1ELin1EEES6_NS_5DenseEEC2Ev, symObjAddr: 0x26890, symBinAddr: 0x100028E38, symSize: 0x2C }
  - { offsetInCU: 0x7E99B, offset: 0x7E99B, size: 0x8, addend: 0x0, symName: __ZN5Eigen10MatrixBaseINS_13CwiseBinaryOpINS_8internal17scalar_product_opIddEEKNS_6MatrixIdLin1ELin1ELi0ELin1ELin1EEES7_EEEC2Ev, symObjAddr: 0x268BC, symBinAddr: 0x100028E64, symSize: 0x2C }
  - { offsetInCU: 0x7E9C5, offset: 0x7E9C5, size: 0x8, addend: 0x0, symName: __ZN5Eigen9DenseBaseINS_13CwiseBinaryOpINS_8internal17scalar_product_opIddEEKNS_6MatrixIdLin1ELin1ELi0ELin1ELin1EEES7_EEEC2Ev, symObjAddr: 0x268E8, symBinAddr: 0x100028E90, symSize: 0x14 }
  - { offsetInCU: 0x7E9EF, offset: 0x7E9EF, size: 0x8, addend: 0x0, symName: __ZN5Eigen13CwiseBinaryOpINS_8internal20scalar_difference_opIddEEKNS_14CwiseNullaryOpINS1_18scalar_constant_opIdEENS_6MatrixIdLin1ELin1ELi0ELin1ELin1EEEEEKS8_EC1ERSA_RSB_RKS3_, symObjAddr: 0x268FC, symBinAddr: 0x100028EA4, symSize: 0x44 }
  - { offsetInCU: 0x7EA43, offset: 0x7EA43, size: 0x8, addend: 0x0, symName: __ZN5Eigen13CwiseBinaryOpINS_8internal20scalar_difference_opIddEEKNS_14CwiseNullaryOpINS1_18scalar_constant_opIdEENS_6MatrixIdLin1ELin1ELi0ELin1ELin1EEEEEKS8_EC2ERSA_RSB_RKS3_, symObjAddr: 0x26940, symBinAddr: 0x100028EE8, symSize: 0xF8 }
  - { offsetInCU: 0x7EA9C, offset: 0x7EA9C, size: 0x8, addend: 0x0, symName: __ZN5Eigen17CwiseBinaryOpImplINS_8internal20scalar_difference_opIddEEKNS_14CwiseNullaryOpINS1_18scalar_constant_opIdEENS_6MatrixIdLin1ELin1ELi0ELin1ELin1EEEEEKS8_NS_5DenseEEC2Ev, symObjAddr: 0x26A38, symBinAddr: 0x100028FE0, symSize: 0x2C }
  - { offsetInCU: 0x7EAC8, offset: 0x7EAC8, size: 0x8, addend: 0x0, symName: __ZN5Eigen10MatrixBaseINS_13CwiseBinaryOpINS_8internal20scalar_difference_opIddEEKNS_14CwiseNullaryOpINS2_18scalar_constant_opIdEENS_6MatrixIdLin1ELin1ELi0ELin1ELin1EEEEEKS9_EEEC2Ev, symObjAddr: 0x26A64, symBinAddr: 0x10002900C, symSize: 0x2C }
  - { offsetInCU: 0x7EAF2, offset: 0x7EAF2, size: 0x8, addend: 0x0, symName: __ZN5Eigen9DenseBaseINS_13CwiseBinaryOpINS_8internal20scalar_difference_opIddEEKNS_14CwiseNullaryOpINS2_18scalar_constant_opIdEENS_6MatrixIdLin1ELin1ELi0ELin1ELin1EEEEEKS9_EEEC2Ev, symObjAddr: 0x26A90, symBinAddr: 0x100029038, symSize: 0x14 }
  - { offsetInCU: 0x7EB1C, offset: 0x7EB1C, size: 0x8, addend: 0x0, symName: __ZNK5Eigen9EigenBaseINS_13CwiseBinaryOpINS_8internal20scalar_difference_opIddEEKNS_14CwiseNullaryOpINS2_18scalar_constant_opIdEENS_6MatrixIdLin1ELin1ELi0ELin1ELin1EEEEEKS9_EEE7derivedEv, symObjAddr: 0x26AA4, symBinAddr: 0x10002904C, symSize: 0x14 }
  - { offsetInCU: 0x7EB42, offset: 0x7EB42, size: 0x8, addend: 0x0, symName: __ZN5Eigen13CwiseBinaryOpINS_8internal17scalar_product_opIddEEKNS0_INS1_20scalar_difference_opIddEEKNS_14CwiseNullaryOpINS1_18scalar_constant_opIdEENS_6MatrixIdLin1ELin1ELi0ELin1ELin1EEEEEKSA_EESD_EC1ERSF_RSD_RKS3_, symObjAddr: 0x26AB8, symBinAddr: 0x100029060, symSize: 0x44 }
  - { offsetInCU: 0x7EB96, offset: 0x7EB96, size: 0x8, addend: 0x0, symName: __ZN5Eigen13CwiseBinaryOpINS_8internal17scalar_product_opIddEEKNS0_INS1_20scalar_difference_opIddEEKNS_14CwiseNullaryOpINS1_18scalar_constant_opIdEENS_6MatrixIdLin1ELin1ELi0ELin1ELin1EEEEEKSA_EESD_EC2ERSF_RSD_RKS3_, symObjAddr: 0x26AFC, symBinAddr: 0x1000290A4, symSize: 0xF8 }
  - { offsetInCU: 0x7EBEF, offset: 0x7EBEF, size: 0x8, addend: 0x0, symName: __ZN5Eigen17CwiseBinaryOpImplINS_8internal17scalar_product_opIddEEKNS_13CwiseBinaryOpINS1_20scalar_difference_opIddEEKNS_14CwiseNullaryOpINS1_18scalar_constant_opIdEENS_6MatrixIdLin1ELin1ELi0ELin1ELin1EEEEEKSB_EESE_NS_5DenseEEC2Ev, symObjAddr: 0x26BF4, symBinAddr: 0x10002919C, symSize: 0x2C }
  - { offsetInCU: 0x7EC1B, offset: 0x7EC1B, size: 0x8, addend: 0x0, symName: __ZN5Eigen13CwiseBinaryOpINS_8internal20scalar_difference_opIddEEKNS_14CwiseNullaryOpINS1_18scalar_constant_opIdEENS_6MatrixIdLin1ELin1ELi0ELin1ELin1EEEEEKS8_EC1ERKSC_, symObjAddr: 0x26C20, symBinAddr: 0x1000291C8, symSize: 0x34 }
  - { offsetInCU: 0x7EC50, offset: 0x7EC50, size: 0x8, addend: 0x0, symName: __ZNK5Eigen13CwiseBinaryOpINS_8internal20scalar_difference_opIddEEKNS_14CwiseNullaryOpINS1_18scalar_constant_opIdEENS_6MatrixIdLin1ELin1ELi0ELin1ELin1EEEEEKS8_E4rowsEv, symObjAddr: 0x26C54, symBinAddr: 0x1000291FC, symSize: 0x28 }
  - { offsetInCU: 0x7EC76, offset: 0x7EC76, size: 0x8, addend: 0x0, symName: __ZNK5Eigen13CwiseBinaryOpINS_8internal20scalar_difference_opIddEEKNS_14CwiseNullaryOpINS1_18scalar_constant_opIdEENS_6MatrixIdLin1ELin1ELi0ELin1ELin1EEEEEKS8_E4colsEv, symObjAddr: 0x26C7C, symBinAddr: 0x100029224, symSize: 0x28 }
  - { offsetInCU: 0x7EC9C, offset: 0x7EC9C, size: 0x8, addend: 0x0, symName: __ZN5Eigen10MatrixBaseINS_13CwiseBinaryOpINS_8internal17scalar_product_opIddEEKNS1_INS2_20scalar_difference_opIddEEKNS_14CwiseNullaryOpINS2_18scalar_constant_opIdEENS_6MatrixIdLin1ELin1ELi0ELin1ELin1EEEEEKSB_EESE_EEEC2Ev, symObjAddr: 0x26CA4, symBinAddr: 0x10002924C, symSize: 0x2C }
  - { offsetInCU: 0x7ECC6, offset: 0x7ECC6, size: 0x8, addend: 0x0, symName: __ZN5Eigen9DenseBaseINS_13CwiseBinaryOpINS_8internal17scalar_product_opIddEEKNS1_INS2_20scalar_difference_opIddEEKNS_14CwiseNullaryOpINS2_18scalar_constant_opIdEENS_6MatrixIdLin1ELin1ELi0ELin1ELin1EEEEEKSB_EESE_EEEC2Ev, symObjAddr: 0x26CD0, symBinAddr: 0x100029278, symSize: 0x14 }
  - { offsetInCU: 0x7ECF0, offset: 0x7ECF0, size: 0x8, addend: 0x0, symName: __ZN5Eigen13CwiseBinaryOpINS_8internal20scalar_difference_opIddEEKNS_14CwiseNullaryOpINS1_18scalar_constant_opIdEENS_6MatrixIdLin1ELin1ELi0ELin1ELin1EEEEEKS8_EC2ERKSC_, symObjAddr: 0x26CE4, symBinAddr: 0x10002928C, symSize: 0x5C }
  - { offsetInCU: 0x7ED25, offset: 0x7ED25, size: 0x8, addend: 0x0, symName: __ZNK5Eigen9EigenBaseINS_13CwiseBinaryOpINS_8internal17scalar_product_opIddEEKNS_6MatrixIdLin1ELin1ELi0ELin1ELin1EEES7_EEE7derivedEv, symObjAddr: 0x26D40, symBinAddr: 0x1000292E8, symSize: 0x14 }
  - { offsetInCU: 0x7ED4B, offset: 0x7ED4B, size: 0x8, addend: 0x0, symName: __ZNK5Eigen9EigenBaseINS_13CwiseBinaryOpINS_8internal17scalar_product_opIddEEKNS1_INS2_20scalar_difference_opIddEEKNS_14CwiseNullaryOpINS2_18scalar_constant_opIdEENS_6MatrixIdLin1ELin1ELi0ELin1ELin1EEEEEKSB_EESE_EEE7derivedEv, symObjAddr: 0x26D54, symBinAddr: 0x1000292FC, symSize: 0x14 }
  - { offsetInCU: 0x7ED71, offset: 0x7ED71, size: 0x8, addend: 0x0, symName: __ZN5Eigen13CwiseBinaryOpINS_8internal13scalar_sum_opIddEEKNS0_INS1_17scalar_product_opIddEEKNS_6MatrixIdLin1ELin1ELi0ELin1ELin1EEES8_EEKNS0_IS5_KNS0_INS1_20scalar_difference_opIddEEKNS_14CwiseNullaryOpINS1_18scalar_constant_opIdEES7_EES8_EES8_EEEC1ERSA_RSL_RKS3_, symObjAddr: 0x26D68, symBinAddr: 0x100029310, symSize: 0x44 }
  - { offsetInCU: 0x7EDC5, offset: 0x7EDC5, size: 0x8, addend: 0x0, symName: __ZN5Eigen13CwiseBinaryOpINS_8internal13scalar_sum_opIddEEKNS0_INS1_17scalar_product_opIddEEKNS_6MatrixIdLin1ELin1ELi0ELin1ELin1EEES8_EEKNS0_IS5_KNS0_INS1_20scalar_difference_opIddEEKNS_14CwiseNullaryOpINS1_18scalar_constant_opIdEES7_EES8_EES8_EEEC2ERSA_RSL_RKS3_, symObjAddr: 0x26DAC, symBinAddr: 0x100029354, symSize: 0xFC }
  - { offsetInCU: 0x7EE1E, offset: 0x7EE1E, size: 0x8, addend: 0x0, symName: __ZN5Eigen17CwiseBinaryOpImplINS_8internal13scalar_sum_opIddEEKNS_13CwiseBinaryOpINS1_17scalar_product_opIddEEKNS_6MatrixIdLin1ELin1ELi0ELin1ELin1EEES9_EEKNS4_IS6_KNS4_INS1_20scalar_difference_opIddEEKNS_14CwiseNullaryOpINS1_18scalar_constant_opIdEES8_EES9_EES9_EENS_5DenseEEC2Ev, symObjAddr: 0x26EA8, symBinAddr: 0x100029450, symSize: 0x2C }
  - { offsetInCU: 0x7EE4A, offset: 0x7EE4A, size: 0x8, addend: 0x0, symName: __ZN5Eigen13CwiseBinaryOpINS_8internal17scalar_product_opIddEEKNS_6MatrixIdLin1ELin1ELi0ELin1ELin1EEES6_EC1ERKS7_, symObjAddr: 0x26ED4, symBinAddr: 0x10002947C, symSize: 0x34 }
  - { offsetInCU: 0x7EE7F, offset: 0x7EE7F, size: 0x8, addend: 0x0, symName: __ZN5Eigen13CwiseBinaryOpINS_8internal17scalar_product_opIddEEKNS0_INS1_20scalar_difference_opIddEEKNS_14CwiseNullaryOpINS1_18scalar_constant_opIdEENS_6MatrixIdLin1ELin1ELi0ELin1ELin1EEEEEKSA_EESD_EC1ERKSG_, symObjAddr: 0x26F08, symBinAddr: 0x1000294B0, symSize: 0x34 }
  - { offsetInCU: 0x7EEB4, offset: 0x7EEB4, size: 0x8, addend: 0x0, symName: __ZNK5Eigen13CwiseBinaryOpINS_8internal17scalar_product_opIddEEKNS_6MatrixIdLin1ELin1ELi0ELin1ELin1EEES6_E4rowsEv, symObjAddr: 0x26F3C, symBinAddr: 0x1000294E4, symSize: 0x28 }
  - { offsetInCU: 0x7EEDA, offset: 0x7EEDA, size: 0x8, addend: 0x0, symName: __ZNK5Eigen13CwiseBinaryOpINS_8internal17scalar_product_opIddEEKNS0_INS1_20scalar_difference_opIddEEKNS_14CwiseNullaryOpINS1_18scalar_constant_opIdEENS_6MatrixIdLin1ELin1ELi0ELin1ELin1EEEEEKSA_EESD_E4rowsEv, symObjAddr: 0x26F64, symBinAddr: 0x10002950C, symSize: 0x28 }
  - { offsetInCU: 0x7EF00, offset: 0x7EF00, size: 0x8, addend: 0x0, symName: __ZNK5Eigen13CwiseBinaryOpINS_8internal17scalar_product_opIddEEKNS_6MatrixIdLin1ELin1ELi0ELin1ELin1EEES6_E4colsEv, symObjAddr: 0x26F8C, symBinAddr: 0x100029534, symSize: 0x28 }
  - { offsetInCU: 0x7EF26, offset: 0x7EF26, size: 0x8, addend: 0x0, symName: __ZNK5Eigen13CwiseBinaryOpINS_8internal17scalar_product_opIddEEKNS0_INS1_20scalar_difference_opIddEEKNS_14CwiseNullaryOpINS1_18scalar_constant_opIdEENS_6MatrixIdLin1ELin1ELi0ELin1ELin1EEEEEKSA_EESD_E4colsEv, symObjAddr: 0x26FB4, symBinAddr: 0x10002955C, symSize: 0x28 }
  - { offsetInCU: 0x7EF4C, offset: 0x7EF4C, size: 0x8, addend: 0x0, symName: __ZN5Eigen10MatrixBaseINS_13CwiseBinaryOpINS_8internal13scalar_sum_opIddEEKNS1_INS2_17scalar_product_opIddEEKNS_6MatrixIdLin1ELin1ELi0ELin1ELin1EEES9_EEKNS1_IS6_KNS1_INS2_20scalar_difference_opIddEEKNS_14CwiseNullaryOpINS2_18scalar_constant_opIdEES8_EES9_EES9_EEEEEC2Ev, symObjAddr: 0x26FDC, symBinAddr: 0x100029584, symSize: 0x2C }
  - { offsetInCU: 0x7EF76, offset: 0x7EF76, size: 0x8, addend: 0x0, symName: __ZN5Eigen9DenseBaseINS_13CwiseBinaryOpINS_8internal13scalar_sum_opIddEEKNS1_INS2_17scalar_product_opIddEEKNS_6MatrixIdLin1ELin1ELi0ELin1ELin1EEES9_EEKNS1_IS6_KNS1_INS2_20scalar_difference_opIddEEKNS_14CwiseNullaryOpINS2_18scalar_constant_opIdEES8_EES9_EES9_EEEEEC2Ev, symObjAddr: 0x27008, symBinAddr: 0x1000295B0, symSize: 0x14 }
  - { offsetInCU: 0x7EFA0, offset: 0x7EFA0, size: 0x8, addend: 0x0, symName: __ZN5Eigen13CwiseBinaryOpINS_8internal17scalar_product_opIddEEKNS_6MatrixIdLin1ELin1ELi0ELin1ELin1EEES6_EC2ERKS7_, symObjAddr: 0x2701C, symBinAddr: 0x1000295C4, symSize: 0x48 }
  - { offsetInCU: 0x7EFD5, offset: 0x7EFD5, size: 0x8, addend: 0x0, symName: __ZN5Eigen13CwiseBinaryOpINS_8internal17scalar_product_opIddEEKNS0_INS1_20scalar_difference_opIddEEKNS_14CwiseNullaryOpINS1_18scalar_constant_opIdEENS_6MatrixIdLin1ELin1ELi0ELin1ELin1EEEEEKSA_EESD_EC2ERKSG_, symObjAddr: 0x27064, symBinAddr: 0x10002960C, symSize: 0x5C }
  - { offsetInCU: 0x7F00A, offset: 0x7F00A, size: 0x8, addend: 0x0, symName: __ZN5Eigen15PlainObjectBaseINS_6MatrixIdLin1ELin1ELi0ELin1ELin1EEEE4_setINS_13CwiseBinaryOpINS_8internal13scalar_sum_opIddEEKNS5_INS6_17scalar_product_opIddEEKS2_SB_EEKNS5_ISA_KNS5_INS6_20scalar_difference_opIddEEKNS_14CwiseNullaryOpINS6_18scalar_constant_opIdEES2_EESB_EESB_EEEEEERS2_RKNS_9DenseBaseIT_EE, symObjAddr: 0x270C0, symBinAddr: 0x100029668, symSize: 0x4C }
  - { offsetInCU: 0x7F048, offset: 0x7F048, size: 0x8, addend: 0x0, symName: __ZNK5Eigen9EigenBaseINS_13CwiseBinaryOpINS_8internal13scalar_sum_opIddEEKNS1_INS2_17scalar_product_opIddEEKNS_6MatrixIdLin1ELin1ELi0ELin1ELin1EEES9_EEKNS1_IS6_KNS1_INS2_20scalar_difference_opIddEEKNS_14CwiseNullaryOpINS2_18scalar_constant_opIdEES8_EES9_EES9_EEEEE7derivedEv, symObjAddr: 0x2715C, symBinAddr: 0x100029704, symSize: 0x14 }
  - { offsetInCU: 0x7F06E, offset: 0x7F06E, size: 0x8, addend: 0x0, symName: __ZN5Eigen8internal10AssignmentINS_6MatrixIdLin1ELin1ELi0ELin1ELin1EEENS_13CwiseBinaryOpINS0_13scalar_sum_opIddEEKNS4_INS0_17scalar_product_opIddEEKS3_S9_EEKNS4_IS8_KNS4_INS0_20scalar_difference_opIddEEKNS_14CwiseNullaryOpINS0_18scalar_constant_opIdEES3_EES9_EES9_EEEENS0_9assign_opIddEENS0_11Dense2DenseEvE3runERS3_RKSN_RKSP_, symObjAddr: 0x271E4, symBinAddr: 0x10002978C, symSize: 0x40 }
  - { offsetInCU: 0x7F0B0, offset: 0x7F0B0, size: 0x8, addend: 0x0, symName: __ZN5Eigen8internal27checkTransposeAliasing_implINS_6MatrixIdLin1ELin1ELi0ELin1ELin1EEENS_13CwiseBinaryOpINS0_13scalar_sum_opIddEEKNS4_INS0_17scalar_product_opIddEEKS3_S9_EEKNS4_IS8_KNS4_INS0_20scalar_difference_opIddEEKNS_14CwiseNullaryOpINS0_18scalar_constant_opIdEES3_EES9_EES9_EEEELb0EE3runERS9_RKSN_, symObjAddr: 0x2735C, symBinAddr: 0x100029904, symSize: 0x14 }
  - { offsetInCU: 0x7F0DB, offset: 0x7F0DB, size: 0x8, addend: 0x0, symName: __ZN5Eigen8internal9evaluatorINS_13CwiseBinaryOpINS0_13scalar_sum_opIddEEKNS2_INS0_17scalar_product_opIddEEKNS_6MatrixIdLin1ELin1ELi0ELin1ELin1EEES9_EEKNS2_IS6_KNS2_INS0_20scalar_difference_opIddEEKNS_14CwiseNullaryOpINS0_18scalar_constant_opIdEES8_EES9_EES9_EEEEEC1ERKSN_, symObjAddr: 0x27370, symBinAddr: 0x100029918, symSize: 0x34 }
  - { offsetInCU: 0x7F114, offset: 0x7F114, size: 0x8, addend: 0x0, symName: __ZN5Eigen8internal31generic_dense_assignment_kernelINS0_9evaluatorINS_6MatrixIdLin1ELin1ELi0ELin1ELin1EEEEENS2_INS_13CwiseBinaryOpINS0_13scalar_sum_opIddEEKNS6_INS0_17scalar_product_opIddEEKS4_SB_EEKNS6_ISA_KNS6_INS0_20scalar_difference_opIddEEKNS_14CwiseNullaryOpINS0_18scalar_constant_opIdEES4_EESB_EESB_EEEEEENS0_9assign_opIddEELi0EEC1ERS5_RKSQ_RKSS_RS4_, symObjAddr: 0x2749C, symBinAddr: 0x100029A44, symSize: 0x4C }
  - { offsetInCU: 0x7F17A, offset: 0x7F17A, size: 0x8, addend: 0x0, symName: __ZN5Eigen8internal9evaluatorINS_13CwiseBinaryOpINS0_13scalar_sum_opIddEEKNS2_INS0_17scalar_product_opIddEEKNS_6MatrixIdLin1ELin1ELi0ELin1ELin1EEES9_EEKNS2_IS6_KNS2_INS0_20scalar_difference_opIddEEKNS_14CwiseNullaryOpINS0_18scalar_constant_opIdEES8_EES9_EES9_EEEEED1Ev, symObjAddr: 0x27590, symBinAddr: 0x100029B38, symSize: 0x2C }
  - { offsetInCU: 0x7F1A7, offset: 0x7F1A7, size: 0x8, addend: 0x0, symName: __ZN5Eigen8internal9evaluatorINS_13CwiseBinaryOpINS0_13scalar_sum_opIddEEKNS2_INS0_17scalar_product_opIddEEKNS_6MatrixIdLin1ELin1ELi0ELin1ELin1EEES9_EEKNS2_IS6_KNS2_INS0_20scalar_difference_opIddEEKNS_14CwiseNullaryOpINS0_18scalar_constant_opIdEES8_EES9_EES9_EEEEEC2ERKSN_, symObjAddr: 0x275BC, symBinAddr: 0x100029B64, symSize: 0x34 }
  - { offsetInCU: 0x7F1E0, offset: 0x7F1E0, size: 0x8, addend: 0x0, symName: __ZN5Eigen8internal16binary_evaluatorINS_13CwiseBinaryOpINS0_13scalar_sum_opIddEEKNS2_INS0_17scalar_product_opIddEEKNS_6MatrixIdLin1ELin1ELi0ELin1ELin1EEES9_EEKNS2_IS6_KNS2_INS0_20scalar_difference_opIddEEKNS_14CwiseNullaryOpINS0_18scalar_constant_opIdEES8_EES9_EES9_EEEENS0_10IndexBasedESO_ddEC2ERKSN_, symObjAddr: 0x275F0, symBinAddr: 0x100029B98, symSize: 0x64 }
  - { offsetInCU: 0x7F219, offset: 0x7F219, size: 0x8, addend: 0x0, symName: __ZN5Eigen8internal14evaluator_baseINS_13CwiseBinaryOpINS0_13scalar_sum_opIddEEKNS2_INS0_17scalar_product_opIddEEKNS_6MatrixIdLin1ELin1ELi0ELin1ELin1EEES9_EEKNS2_IS6_KNS2_INS0_20scalar_difference_opIddEEKNS_14CwiseNullaryOpINS0_18scalar_constant_opIdEES8_EES9_EES9_EEEEEC2Ev, symObjAddr: 0x27654, symBinAddr: 0x100029BFC, symSize: 0x14 }
  - { offsetInCU: 0x7F243, offset: 0x7F243, size: 0x8, addend: 0x0, symName: __ZN5Eigen8internal16binary_evaluatorINS_13CwiseBinaryOpINS0_13scalar_sum_opIddEEKNS2_INS0_17scalar_product_opIddEEKNS_6MatrixIdLin1ELin1ELi0ELin1ELin1EEES9_EEKNS2_IS6_KNS2_INS0_20scalar_difference_opIddEEKNS_14CwiseNullaryOpINS0_18scalar_constant_opIdEES8_EES9_EES9_EEEENS0_10IndexBasedESO_ddE4DataC1ERKSN_, symObjAddr: 0x27668, symBinAddr: 0x100029C10, symSize: 0x34 }
  - { offsetInCU: 0x7F27C, offset: 0x7F27C, size: 0x8, addend: 0x0, symName: __ZN5Eigen8internal14evaluator_baseINS_13CwiseBinaryOpINS0_13scalar_sum_opIddEEKNS2_INS0_17scalar_product_opIddEEKNS_6MatrixIdLin1ELin1ELi0ELin1ELin1EEES9_EEKNS2_IS6_KNS2_INS0_20scalar_difference_opIddEEKNS_14CwiseNullaryOpINS0_18scalar_constant_opIdEES8_EES9_EES9_EEEEED2Ev, symObjAddr: 0x2769C, symBinAddr: 0x100029C44, symSize: 0x14 }
  - { offsetInCU: 0x7F2A6, offset: 0x7F2A6, size: 0x8, addend: 0x0, symName: __ZN5Eigen8internal16binary_evaluatorINS_13CwiseBinaryOpINS0_13scalar_sum_opIddEEKNS2_INS0_17scalar_product_opIddEEKNS_6MatrixIdLin1ELin1ELi0ELin1ELin1EEES9_EEKNS2_IS6_KNS2_INS0_20scalar_difference_opIddEEKNS_14CwiseNullaryOpINS0_18scalar_constant_opIdEES8_EES9_EES9_EEEENS0_10IndexBasedESO_ddE4DataC2ERKSN_, symObjAddr: 0x276B0, symBinAddr: 0x100029C58, symSize: 0xA8 }
  - { offsetInCU: 0x7F2DF, offset: 0x7F2DF, size: 0x8, addend: 0x0, symName: __ZNK5Eigen13CwiseBinaryOpINS_8internal13scalar_sum_opIddEEKNS0_INS1_17scalar_product_opIddEEKNS_6MatrixIdLin1ELin1ELi0ELin1ELin1EEES8_EEKNS0_IS5_KNS0_INS1_20scalar_difference_opIddEEKNS_14CwiseNullaryOpINS1_18scalar_constant_opIdEES7_EES8_EES8_EEE7functorEv, symObjAddr: 0x27758, symBinAddr: 0x100029D00, symSize: 0x18 }
  - { offsetInCU: 0x7F305, offset: 0x7F305, size: 0x8, addend: 0x0, symName: __ZNK5Eigen13CwiseBinaryOpINS_8internal13scalar_sum_opIddEEKNS0_INS1_17scalar_product_opIddEEKNS_6MatrixIdLin1ELin1ELi0ELin1ELin1EEES8_EEKNS0_IS5_KNS0_INS1_20scalar_difference_opIddEEKNS_14CwiseNullaryOpINS1_18scalar_constant_opIdEES7_EES8_EES8_EEE3lhsEv, symObjAddr: 0x27770, symBinAddr: 0x100029D18, symSize: 0x18 }
  - { offsetInCU: 0x7F32B, offset: 0x7F32B, size: 0x8, addend: 0x0, symName: __ZN5Eigen8internal9evaluatorIKNS_13CwiseBinaryOpINS0_17scalar_product_opIddEEKNS_6MatrixIdLin1ELin1ELi0ELin1ELin1EEES7_EEEC1ERS9_, symObjAddr: 0x27788, symBinAddr: 0x100029D30, symSize: 0x34 }
  - { offsetInCU: 0x7F363, offset: 0x7F363, size: 0x8, addend: 0x0, symName: __ZNK5Eigen13CwiseBinaryOpINS_8internal13scalar_sum_opIddEEKNS0_INS1_17scalar_product_opIddEEKNS_6MatrixIdLin1ELin1ELi0ELin1ELin1EEES8_EEKNS0_IS5_KNS0_INS1_20scalar_difference_opIddEEKNS_14CwiseNullaryOpINS1_18scalar_constant_opIdEES7_EES8_EES8_EEE3rhsEv, symObjAddr: 0x277BC, symBinAddr: 0x100029D64, symSize: 0x18 }
  - { offsetInCU: 0x7F389, offset: 0x7F389, size: 0x8, addend: 0x0, symName: __ZN5Eigen8internal9evaluatorIKNS_13CwiseBinaryOpINS0_17scalar_product_opIddEEKNS2_INS0_20scalar_difference_opIddEEKNS_14CwiseNullaryOpINS0_18scalar_constant_opIdEENS_6MatrixIdLin1ELin1ELi0ELin1ELin1EEEEEKSB_EESE_EEEC1ERSI_, symObjAddr: 0x277D4, symBinAddr: 0x100029D7C, symSize: 0x34 }
  - { offsetInCU: 0x7F3C1, offset: 0x7F3C1, size: 0x8, addend: 0x0, symName: __ZN5Eigen8internal9evaluatorIKNS_13CwiseBinaryOpINS0_17scalar_product_opIddEEKNS_6MatrixIdLin1ELin1ELi0ELin1ELin1EEES7_EEED1Ev, symObjAddr: 0x27808, symBinAddr: 0x100029DB0, symSize: 0x2C }
  - { offsetInCU: 0x7F3ED, offset: 0x7F3ED, size: 0x8, addend: 0x0, symName: __ZN5Eigen8internal9evaluatorIKNS_13CwiseBinaryOpINS0_17scalar_product_opIddEEKNS_6MatrixIdLin1ELin1ELi0ELin1ELin1EEES7_EEEC2ERS9_, symObjAddr: 0x27834, symBinAddr: 0x100029DDC, symSize: 0x34 }
  - { offsetInCU: 0x7F425, offset: 0x7F425, size: 0x8, addend: 0x0, symName: __ZN5Eigen8internal9evaluatorINS_13CwiseBinaryOpINS0_17scalar_product_opIddEEKNS_6MatrixIdLin1ELin1ELi0ELin1ELin1EEES7_EEEC2ERKS8_, symObjAddr: 0x27868, symBinAddr: 0x100029E10, symSize: 0x34 }
  - { offsetInCU: 0x7F45E, offset: 0x7F45E, size: 0x8, addend: 0x0, symName: __ZN5Eigen8internal16binary_evaluatorINS_13CwiseBinaryOpINS0_17scalar_product_opIddEEKNS_6MatrixIdLin1ELin1ELi0ELin1ELin1EEES7_EENS0_10IndexBasedES9_ddEC2ERKS8_, symObjAddr: 0x2789C, symBinAddr: 0x100029E44, symSize: 0x64 }
  - { offsetInCU: 0x7F497, offset: 0x7F497, size: 0x8, addend: 0x0, symName: __ZN5Eigen8internal14evaluator_baseINS_13CwiseBinaryOpINS0_17scalar_product_opIddEEKNS_6MatrixIdLin1ELin1ELi0ELin1ELin1EEES7_EEEC2Ev, symObjAddr: 0x27900, symBinAddr: 0x100029EA8, symSize: 0x14 }
  - { offsetInCU: 0x7F4C1, offset: 0x7F4C1, size: 0x8, addend: 0x0, symName: __ZN5Eigen8internal16binary_evaluatorINS_13CwiseBinaryOpINS0_17scalar_product_opIddEEKNS_6MatrixIdLin1ELin1ELi0ELin1ELin1EEES7_EENS0_10IndexBasedES9_ddE4DataC1ERKS8_, symObjAddr: 0x27914, symBinAddr: 0x100029EBC, symSize: 0x34 }
  - { offsetInCU: 0x7F4FA, offset: 0x7F4FA, size: 0x8, addend: 0x0, symName: __ZN5Eigen8internal14evaluator_baseINS_13CwiseBinaryOpINS0_17scalar_product_opIddEEKNS_6MatrixIdLin1ELin1ELi0ELin1ELin1EEES7_EEED2Ev, symObjAddr: 0x27948, symBinAddr: 0x100029EF0, symSize: 0x14 }
  - { offsetInCU: 0x7F524, offset: 0x7F524, size: 0x8, addend: 0x0, symName: __ZN5Eigen8internal16binary_evaluatorINS_13CwiseBinaryOpINS0_17scalar_product_opIddEEKNS_6MatrixIdLin1ELin1ELi0ELin1ELin1EEES7_EENS0_10IndexBasedES9_ddE4DataC2ERKS8_, symObjAddr: 0x2795C, symBinAddr: 0x100029F04, symSize: 0xA8 }
  - { offsetInCU: 0x7F55D, offset: 0x7F55D, size: 0x8, addend: 0x0, symName: __ZNK5Eigen13CwiseBinaryOpINS_8internal17scalar_product_opIddEEKNS_6MatrixIdLin1ELin1ELi0ELin1ELin1EEES6_E7functorEv, symObjAddr: 0x27A04, symBinAddr: 0x100029FAC, symSize: 0x18 }
  - { offsetInCU: 0x7F583, offset: 0x7F583, size: 0x8, addend: 0x0, symName: __ZNK5Eigen13CwiseBinaryOpINS_8internal17scalar_product_opIddEEKNS_6MatrixIdLin1ELin1ELi0ELin1ELin1EEES6_E3lhsEv, symObjAddr: 0x27A1C, symBinAddr: 0x100029FC4, symSize: 0x18 }
  - { offsetInCU: 0x7F5A9, offset: 0x7F5A9, size: 0x8, addend: 0x0, symName: __ZNK5Eigen13CwiseBinaryOpINS_8internal17scalar_product_opIddEEKNS_6MatrixIdLin1ELin1ELi0ELin1ELin1EEES6_E3rhsEv, symObjAddr: 0x27A34, symBinAddr: 0x100029FDC, symSize: 0x18 }
  - { offsetInCU: 0x7F5CF, offset: 0x7F5CF, size: 0x8, addend: 0x0, symName: __ZN5Eigen8internal9evaluatorIKNS_13CwiseBinaryOpINS0_17scalar_product_opIddEEKNS2_INS0_20scalar_difference_opIddEEKNS_14CwiseNullaryOpINS0_18scalar_constant_opIdEENS_6MatrixIdLin1ELin1ELi0ELin1ELin1EEEEEKSB_EESE_EEEC2ERSI_, symObjAddr: 0x27A4C, symBinAddr: 0x100029FF4, symSize: 0x34 }
  - { offsetInCU: 0x7F607, offset: 0x7F607, size: 0x8, addend: 0x0, symName: __ZN5Eigen8internal9evaluatorINS_13CwiseBinaryOpINS0_17scalar_product_opIddEEKNS2_INS0_20scalar_difference_opIddEEKNS_14CwiseNullaryOpINS0_18scalar_constant_opIdEENS_6MatrixIdLin1ELin1ELi0ELin1ELin1EEEEEKSB_EESE_EEEC2ERKSH_, symObjAddr: 0x27A80, symBinAddr: 0x10002A028, symSize: 0x34 }
  - { offsetInCU: 0x7F640, offset: 0x7F640, size: 0x8, addend: 0x0, symName: __ZN5Eigen8internal16binary_evaluatorINS_13CwiseBinaryOpINS0_17scalar_product_opIddEEKNS2_INS0_20scalar_difference_opIddEEKNS_14CwiseNullaryOpINS0_18scalar_constant_opIdEENS_6MatrixIdLin1ELin1ELi0ELin1ELin1EEEEEKSB_EESE_EENS0_10IndexBasedESI_ddEC2ERKSH_, symObjAddr: 0x27AB4, symBinAddr: 0x10002A05C, symSize: 0x64 }
  - { offsetInCU: 0x7F679, offset: 0x7F679, size: 0x8, addend: 0x0, symName: __ZN5Eigen8internal14evaluator_baseINS_13CwiseBinaryOpINS0_17scalar_product_opIddEEKNS2_INS0_20scalar_difference_opIddEEKNS_14CwiseNullaryOpINS0_18scalar_constant_opIdEENS_6MatrixIdLin1ELin1ELi0ELin1ELin1EEEEEKSB_EESE_EEEC2Ev, symObjAddr: 0x27B18, symBinAddr: 0x10002A0C0, symSize: 0x14 }
  - { offsetInCU: 0x7F6A3, offset: 0x7F6A3, size: 0x8, addend: 0x0, symName: __ZN5Eigen8internal16binary_evaluatorINS_13CwiseBinaryOpINS0_17scalar_product_opIddEEKNS2_INS0_20scalar_difference_opIddEEKNS_14CwiseNullaryOpINS0_18scalar_constant_opIdEENS_6MatrixIdLin1ELin1ELi0ELin1ELin1EEEEEKSB_EESE_EENS0_10IndexBasedESI_ddE4DataC1ERKSH_, symObjAddr: 0x27B2C, symBinAddr: 0x10002A0D4, symSize: 0x34 }
  - { offsetInCU: 0x7F6DC, offset: 0x7F6DC, size: 0x8, addend: 0x0, symName: __ZN5Eigen8internal14evaluator_baseINS_13CwiseBinaryOpINS0_17scalar_product_opIddEEKNS2_INS0_20scalar_difference_opIddEEKNS_14CwiseNullaryOpINS0_18scalar_constant_opIdEENS_6MatrixIdLin1ELin1ELi0ELin1ELin1EEEEEKSB_EESE_EEED2Ev, symObjAddr: 0x27B60, symBinAddr: 0x10002A108, symSize: 0x14 }
  - { offsetInCU: 0x7F706, offset: 0x7F706, size: 0x8, addend: 0x0, symName: __ZN5Eigen8internal16binary_evaluatorINS_13CwiseBinaryOpINS0_17scalar_product_opIddEEKNS2_INS0_20scalar_difference_opIddEEKNS_14CwiseNullaryOpINS0_18scalar_constant_opIdEENS_6MatrixIdLin1ELin1ELi0ELin1ELin1EEEEEKSB_EESE_EENS0_10IndexBasedESI_ddE4DataC2ERKSH_, symObjAddr: 0x27B74, symBinAddr: 0x10002A11C, symSize: 0xA8 }
  - { offsetInCU: 0x7F73F, offset: 0x7F73F, size: 0x8, addend: 0x0, symName: __ZNK5Eigen13CwiseBinaryOpINS_8internal17scalar_product_opIddEEKNS0_INS1_20scalar_difference_opIddEEKNS_14CwiseNullaryOpINS1_18scalar_constant_opIdEENS_6MatrixIdLin1ELin1ELi0ELin1ELin1EEEEEKSA_EESD_E7functorEv, symObjAddr: 0x27C1C, symBinAddr: 0x10002A1C4, symSize: 0x18 }
  - { offsetInCU: 0x7F765, offset: 0x7F765, size: 0x8, addend: 0x0, symName: __ZNK5Eigen13CwiseBinaryOpINS_8internal17scalar_product_opIddEEKNS0_INS1_20scalar_difference_opIddEEKNS_14CwiseNullaryOpINS1_18scalar_constant_opIdEENS_6MatrixIdLin1ELin1ELi0ELin1ELin1EEEEEKSA_EESD_E3lhsEv, symObjAddr: 0x27C34, symBinAddr: 0x10002A1DC, symSize: 0x18 }
  - { offsetInCU: 0x7F78B, offset: 0x7F78B, size: 0x8, addend: 0x0, symName: __ZN5Eigen8internal9evaluatorIKNS_13CwiseBinaryOpINS0_20scalar_difference_opIddEEKNS_14CwiseNullaryOpINS0_18scalar_constant_opIdEENS_6MatrixIdLin1ELin1ELi0ELin1ELin1EEEEEKS9_EEEC1ERSE_, symObjAddr: 0x27C4C, symBinAddr: 0x10002A1F4, symSize: 0x34 }
  - { offsetInCU: 0x7F7C3, offset: 0x7F7C3, size: 0x8, addend: 0x0, symName: __ZNK5Eigen13CwiseBinaryOpINS_8internal17scalar_product_opIddEEKNS0_INS1_20scalar_difference_opIddEEKNS_14CwiseNullaryOpINS1_18scalar_constant_opIdEENS_6MatrixIdLin1ELin1ELi0ELin1ELin1EEEEEKSA_EESD_E3rhsEv, symObjAddr: 0x27C80, symBinAddr: 0x10002A228, symSize: 0x18 }
  - { offsetInCU: 0x7F7E9, offset: 0x7F7E9, size: 0x8, addend: 0x0, symName: __ZN5Eigen8internal9evaluatorIKNS_13CwiseBinaryOpINS0_20scalar_difference_opIddEEKNS_14CwiseNullaryOpINS0_18scalar_constant_opIdEENS_6MatrixIdLin1ELin1ELi0ELin1ELin1EEEEEKS9_EEED1Ev, symObjAddr: 0x27C98, symBinAddr: 0x10002A240, symSize: 0x2C }
  - { offsetInCU: 0x7F815, offset: 0x7F815, size: 0x8, addend: 0x0, symName: __ZN5Eigen8internal9evaluatorIKNS_13CwiseBinaryOpINS0_20scalar_difference_opIddEEKNS_14CwiseNullaryOpINS0_18scalar_constant_opIdEENS_6MatrixIdLin1ELin1ELi0ELin1ELin1EEEEEKS9_EEEC2ERSE_, symObjAddr: 0x27CC4, symBinAddr: 0x10002A26C, symSize: 0x34 }
  - { offsetInCU: 0x7F84D, offset: 0x7F84D, size: 0x8, addend: 0x0, symName: __ZN5Eigen8internal9evaluatorINS_13CwiseBinaryOpINS0_20scalar_difference_opIddEEKNS_14CwiseNullaryOpINS0_18scalar_constant_opIdEENS_6MatrixIdLin1ELin1ELi0ELin1ELin1EEEEEKS9_EEEC2ERKSD_, symObjAddr: 0x27CF8, symBinAddr: 0x10002A2A0, symSize: 0x34 }
  - { offsetInCU: 0x7F886, offset: 0x7F886, size: 0x8, addend: 0x0, symName: __ZN5Eigen8internal16binary_evaluatorINS_13CwiseBinaryOpINS0_20scalar_difference_opIddEEKNS_14CwiseNullaryOpINS0_18scalar_constant_opIdEENS_6MatrixIdLin1ELin1ELi0ELin1ELin1EEEEEKS9_EENS0_10IndexBasedESE_ddEC2ERKSD_, symObjAddr: 0x27D2C, symBinAddr: 0x10002A2D4, symSize: 0x64 }
  - { offsetInCU: 0x7F8BF, offset: 0x7F8BF, size: 0x8, addend: 0x0, symName: __ZN5Eigen8internal14evaluator_baseINS_13CwiseBinaryOpINS0_20scalar_difference_opIddEEKNS_14CwiseNullaryOpINS0_18scalar_constant_opIdEENS_6MatrixIdLin1ELin1ELi0ELin1ELin1EEEEEKS9_EEEC2Ev, symObjAddr: 0x27D90, symBinAddr: 0x10002A338, symSize: 0x14 }
  - { offsetInCU: 0x7F8E9, offset: 0x7F8E9, size: 0x8, addend: 0x0, symName: __ZN5Eigen8internal16binary_evaluatorINS_13CwiseBinaryOpINS0_20scalar_difference_opIddEEKNS_14CwiseNullaryOpINS0_18scalar_constant_opIdEENS_6MatrixIdLin1ELin1ELi0ELin1ELin1EEEEEKS9_EENS0_10IndexBasedESE_ddE4DataC1ERKSD_, symObjAddr: 0x27DA4, symBinAddr: 0x10002A34C, symSize: 0x34 }
  - { offsetInCU: 0x7F922, offset: 0x7F922, size: 0x8, addend: 0x0, symName: __ZN5Eigen8internal14evaluator_baseINS_13CwiseBinaryOpINS0_20scalar_difference_opIddEEKNS_14CwiseNullaryOpINS0_18scalar_constant_opIdEENS_6MatrixIdLin1ELin1ELi0ELin1ELin1EEEEEKS9_EEED2Ev, symObjAddr: 0x27DD8, symBinAddr: 0x10002A380, symSize: 0x14 }
  - { offsetInCU: 0x7F94C, offset: 0x7F94C, size: 0x8, addend: 0x0, symName: __ZN5Eigen8internal16binary_evaluatorINS_13CwiseBinaryOpINS0_20scalar_difference_opIddEEKNS_14CwiseNullaryOpINS0_18scalar_constant_opIdEENS_6MatrixIdLin1ELin1ELi0ELin1ELin1EEEEEKS9_EENS0_10IndexBasedESE_ddE4DataC2ERKSD_, symObjAddr: 0x27DEC, symBinAddr: 0x10002A394, symSize: 0xA8 }
  - { offsetInCU: 0x7F985, offset: 0x7F985, size: 0x8, addend: 0x0, symName: __ZNK5Eigen13CwiseBinaryOpINS_8internal20scalar_difference_opIddEEKNS_14CwiseNullaryOpINS1_18scalar_constant_opIdEENS_6MatrixIdLin1ELin1ELi0ELin1ELin1EEEEEKS8_E7functorEv, symObjAddr: 0x27E94, symBinAddr: 0x10002A43C, symSize: 0x18 }
  - { offsetInCU: 0x7F9AB, offset: 0x7F9AB, size: 0x8, addend: 0x0, symName: __ZNK5Eigen13CwiseBinaryOpINS_8internal20scalar_difference_opIddEEKNS_14CwiseNullaryOpINS1_18scalar_constant_opIdEENS_6MatrixIdLin1ELin1ELi0ELin1ELin1EEEEEKS8_E3lhsEv, symObjAddr: 0x27EAC, symBinAddr: 0x10002A454, symSize: 0x18 }
  - { offsetInCU: 0x7F9D1, offset: 0x7F9D1, size: 0x8, addend: 0x0, symName: __ZNK5Eigen13CwiseBinaryOpINS_8internal20scalar_difference_opIddEEKNS_14CwiseNullaryOpINS1_18scalar_constant_opIdEENS_6MatrixIdLin1ELin1ELi0ELin1ELin1EEEEEKS8_E3rhsEv, symObjAddr: 0x27EC4, symBinAddr: 0x10002A46C, symSize: 0x18 }
  - { offsetInCU: 0x7F9F7, offset: 0x7F9F7, size: 0x8, addend: 0x0, symName: __ZN5Eigen8internal9evaluatorIKNS_13CwiseBinaryOpINS0_20scalar_difference_opIddEEKNS_14CwiseNullaryOpINS0_18scalar_constant_opIdEENS_6MatrixIdLin1ELin1ELi0ELin1ELin1EEEEEKS9_EEED2Ev, symObjAddr: 0x27EDC, symBinAddr: 0x10002A484, symSize: 0x2C }
  - { offsetInCU: 0x7FA23, offset: 0x7FA23, size: 0x8, addend: 0x0, symName: __ZN5Eigen8internal9evaluatorINS_13CwiseBinaryOpINS0_20scalar_difference_opIddEEKNS_14CwiseNullaryOpINS0_18scalar_constant_opIdEENS_6MatrixIdLin1ELin1ELi0ELin1ELin1EEEEEKS9_EEED2Ev, symObjAddr: 0x27F08, symBinAddr: 0x10002A4B0, symSize: 0x2C }
  - { offsetInCU: 0x7FA50, offset: 0x7FA50, size: 0x8, addend: 0x0, symName: __ZN5Eigen8internal16binary_evaluatorINS_13CwiseBinaryOpINS0_20scalar_difference_opIddEEKNS_14CwiseNullaryOpINS0_18scalar_constant_opIdEENS_6MatrixIdLin1ELin1ELi0ELin1ELin1EEEEEKS9_EENS0_10IndexBasedESE_ddED2Ev, symObjAddr: 0x27F34, symBinAddr: 0x10002A4DC, symSize: 0x34 }
  - { offsetInCU: 0x7FA7C, offset: 0x7FA7C, size: 0x8, addend: 0x0, symName: __ZN5Eigen8internal16binary_evaluatorINS_13CwiseBinaryOpINS0_20scalar_difference_opIddEEKNS_14CwiseNullaryOpINS0_18scalar_constant_opIdEENS_6MatrixIdLin1ELin1ELi0ELin1ELin1EEEEEKS9_EENS0_10IndexBasedESE_ddE4DataD1Ev, symObjAddr: 0x27F68, symBinAddr: 0x10002A510, symSize: 0x2C }
  - { offsetInCU: 0x7FAA9, offset: 0x7FAA9, size: 0x8, addend: 0x0, symName: __ZN5Eigen8internal16binary_evaluatorINS_13CwiseBinaryOpINS0_20scalar_difference_opIddEEKNS_14CwiseNullaryOpINS0_18scalar_constant_opIdEENS_6MatrixIdLin1ELin1ELi0ELin1ELin1EEEEEKS9_EENS0_10IndexBasedESE_ddE4DataD2Ev, symObjAddr: 0x27F94, symBinAddr: 0x10002A53C, symSize: 0x3C }
  - { offsetInCU: 0x7FAD6, offset: 0x7FAD6, size: 0x8, addend: 0x0, symName: __ZN5Eigen8internal9evaluatorIKNS_13CwiseBinaryOpINS0_17scalar_product_opIddEEKNS_6MatrixIdLin1ELin1ELi0ELin1ELin1EEES7_EEED2Ev, symObjAddr: 0x27FD0, symBinAddr: 0x10002A578, symSize: 0x2C }
  - { offsetInCU: 0x7FB02, offset: 0x7FB02, size: 0x8, addend: 0x0, symName: __ZN5Eigen8internal9evaluatorINS_13CwiseBinaryOpINS0_17scalar_product_opIddEEKNS_6MatrixIdLin1ELin1ELi0ELin1ELin1EEES7_EEED2Ev, symObjAddr: 0x27FFC, symBinAddr: 0x10002A5A4, symSize: 0x2C }
  - { offsetInCU: 0x7FB2F, offset: 0x7FB2F, size: 0x8, addend: 0x0, symName: __ZN5Eigen8internal16binary_evaluatorINS_13CwiseBinaryOpINS0_17scalar_product_opIddEEKNS_6MatrixIdLin1ELin1ELi0ELin1ELin1EEES7_EENS0_10IndexBasedES9_ddED2Ev, symObjAddr: 0x28028, symBinAddr: 0x10002A5D0, symSize: 0x34 }
  - { offsetInCU: 0x7FB5B, offset: 0x7FB5B, size: 0x8, addend: 0x0, symName: __ZN5Eigen8internal16binary_evaluatorINS_13CwiseBinaryOpINS0_17scalar_product_opIddEEKNS_6MatrixIdLin1ELin1ELi0ELin1ELin1EEES7_EENS0_10IndexBasedES9_ddE4DataD1Ev, symObjAddr: 0x2805C, symBinAddr: 0x10002A604, symSize: 0x2C }
  - { offsetInCU: 0x7FB88, offset: 0x7FB88, size: 0x8, addend: 0x0, symName: __ZN5Eigen8internal16binary_evaluatorINS_13CwiseBinaryOpINS0_17scalar_product_opIddEEKNS_6MatrixIdLin1ELin1ELi0ELin1ELin1EEES7_EENS0_10IndexBasedES9_ddE4DataD2Ev, symObjAddr: 0x28088, symBinAddr: 0x10002A630, symSize: 0x3C }
  - { offsetInCU: 0x7FBB5, offset: 0x7FBB5, size: 0x8, addend: 0x0, symName: __ZNK5Eigen13CwiseBinaryOpINS_8internal13scalar_sum_opIddEEKNS0_INS1_17scalar_product_opIddEEKNS_6MatrixIdLin1ELin1ELi0ELin1ELin1EEES8_EEKNS0_IS5_KNS0_INS1_20scalar_difference_opIddEEKNS_14CwiseNullaryOpINS1_18scalar_constant_opIdEES7_EES8_EES8_EEE4rowsEv, symObjAddr: 0x280C4, symBinAddr: 0x10002A66C, symSize: 0x28 }
  - { offsetInCU: 0x7FBDB, offset: 0x7FBDB, size: 0x8, addend: 0x0, symName: __ZNK5Eigen13CwiseBinaryOpINS_8internal13scalar_sum_opIddEEKNS0_INS1_17scalar_product_opIddEEKNS_6MatrixIdLin1ELin1ELi0ELin1ELin1EEES8_EEKNS0_IS5_KNS0_INS1_20scalar_difference_opIddEEKNS_14CwiseNullaryOpINS1_18scalar_constant_opIdEES7_EES8_EES8_EEE4colsEv, symObjAddr: 0x280EC, symBinAddr: 0x10002A694, symSize: 0x28 }
  - { offsetInCU: 0x7FC01, offset: 0x7FC01, size: 0x8, addend: 0x0, symName: __ZN5Eigen8internal31generic_dense_assignment_kernelINS0_9evaluatorINS_6MatrixIdLin1ELin1ELi0ELin1ELin1EEEEENS2_INS_13CwiseBinaryOpINS0_13scalar_sum_opIddEEKNS6_INS0_17scalar_product_opIddEEKS4_SB_EEKNS6_ISA_KNS6_INS0_20scalar_difference_opIddEEKNS_14CwiseNullaryOpINS0_18scalar_constant_opIdEES4_EESB_EESB_EEEEEENS0_9assign_opIddEELi0EEC2ERS5_RKSQ_RKSS_RS4_, symObjAddr: 0x28114, symBinAddr: 0x10002A6BC, symSize: 0x44 }
  - { offsetInCU: 0x7FC67, offset: 0x7FC67, size: 0x8, addend: 0x0, symName: __ZNK5Eigen8internal31generic_dense_assignment_kernelINS0_9evaluatorINS_6MatrixIdLin1ELin1ELi0ELin1ELin1EEEEENS2_INS_13CwiseBinaryOpINS0_13scalar_sum_opIddEEKNS6_INS0_17scalar_product_opIddEEKS4_SB_EEKNS6_ISA_KNS6_INS0_20scalar_difference_opIddEEKNS_14CwiseNullaryOpINS0_18scalar_constant_opIdEES4_EESB_EESB_EEEEEENS0_9assign_opIddEELi0EE4sizeEv, symObjAddr: 0x28158, symBinAddr: 0x10002A700, symSize: 0x28 }
  - { offsetInCU: 0x7FC8D, offset: 0x7FC8D, size: 0x8, addend: 0x0, symName: __ZN5Eigen8internal31unaligned_dense_assignment_loopILb1EE3runINS0_31generic_dense_assignment_kernelINS0_9evaluatorINS_6MatrixIdLin1ELin1ELi0ELin1ELin1EEEEENS5_INS_13CwiseBinaryOpINS0_13scalar_sum_opIddEEKNS9_INS0_17scalar_product_opIddEEKS7_SE_EEKNS9_ISD_KNS9_INS0_20scalar_difference_opIddEEKNS_14CwiseNullaryOpINS0_18scalar_constant_opIdEES7_EESE_EESE_EEEEEENS0_9assign_opIddEELi0EEEEEvRT_ll, symObjAddr: 0x28180, symBinAddr: 0x10002A728, symSize: 0x18 }
  - { offsetInCU: 0x7FCCC, offset: 0x7FCCC, size: 0x8, addend: 0x0, symName: __ZN5Eigen8internal31generic_dense_assignment_kernelINS0_9evaluatorINS_6MatrixIdLin1ELin1ELi0ELin1ELin1EEEEENS2_INS_13CwiseBinaryOpINS0_13scalar_sum_opIddEEKNS6_INS0_17scalar_product_opIddEEKS4_SB_EEKNS6_ISA_KNS6_INS0_20scalar_difference_opIddEEKNS_14CwiseNullaryOpINS0_18scalar_constant_opIdEES4_EESB_EESB_EEEEEENS0_9assign_opIddEELi0EE12assignPacketILi16ELi16E19__simd128_float64_tEEvl, symObjAddr: 0x28198, symBinAddr: 0x10002A740, symSize: 0x64 }
  - { offsetInCU: 0x7FD1E, offset: 0x7FD1E, size: 0x8, addend: 0x0, symName: __ZN5Eigen8internal31unaligned_dense_assignment_loopILb0EE3runINS0_31generic_dense_assignment_kernelINS0_9evaluatorINS_6MatrixIdLin1ELin1ELi0ELin1ELin1EEEEENS5_INS_13CwiseBinaryOpINS0_13scalar_sum_opIddEEKNS9_INS0_17scalar_product_opIddEEKS7_SE_EEKNS9_ISD_KNS9_INS0_20scalar_difference_opIddEEKNS_14CwiseNullaryOpINS0_18scalar_constant_opIdEES7_EESE_EESE_EEEEEENS0_9assign_opIddEELi0EEEEEvRT_ll, symObjAddr: 0x281FC, symBinAddr: 0x10002A7A4, symSize: 0x68 }
  - { offsetInCU: 0x7FD86, offset: 0x7FD86, size: 0x8, addend: 0x0, symName: __ZNK5Eigen8internal16binary_evaluatorINS_13CwiseBinaryOpINS0_13scalar_sum_opIddEEKNS2_INS0_17scalar_product_opIddEEKNS_6MatrixIdLin1ELin1ELi0ELin1ELin1EEES9_EEKNS2_IS6_KNS2_INS0_20scalar_difference_opIddEEKNS_14CwiseNullaryOpINS0_18scalar_constant_opIdEES8_EES9_EES9_EEEENS0_10IndexBasedESO_ddE6packetILi16E19__simd128_float64_tEET0_l, symObjAddr: 0x28264, symBinAddr: 0x10002A80C, symSize: 0x70 }
  - { offsetInCU: 0x7FDCE, offset: 0x7FDCE, size: 0x8, addend: 0x0, symName: __ZNK5Eigen8internal16binary_evaluatorINS_13CwiseBinaryOpINS0_13scalar_sum_opIddEEKNS2_INS0_17scalar_product_opIddEEKNS_6MatrixIdLin1ELin1ELi0ELin1ELin1EEES9_EEKNS2_IS6_KNS2_INS0_20scalar_difference_opIddEEKNS_14CwiseNullaryOpINS0_18scalar_constant_opIdEES8_EES9_EES9_EEEENS0_10IndexBasedESO_ddE4Data4funcEv, symObjAddr: 0x282D4, symBinAddr: 0x10002A87C, symSize: 0x14 }
  - { offsetInCU: 0x7FDF4, offset: 0x7FDF4, size: 0x8, addend: 0x0, symName: __ZNK5Eigen8internal16binary_evaluatorINS_13CwiseBinaryOpINS0_17scalar_product_opIddEEKNS_6MatrixIdLin1ELin1ELi0ELin1ELin1EEES7_EENS0_10IndexBasedES9_ddE6packetILi16E19__simd128_float64_tEET0_l, symObjAddr: 0x282E8, symBinAddr: 0x10002A890, symSize: 0x70 }
  - { offsetInCU: 0x7FE3C, offset: 0x7FE3C, size: 0x8, addend: 0x0, symName: __ZNK5Eigen8internal16binary_evaluatorINS_13CwiseBinaryOpINS0_17scalar_product_opIddEEKNS2_INS0_20scalar_difference_opIddEEKNS_14CwiseNullaryOpINS0_18scalar_constant_opIdEENS_6MatrixIdLin1ELin1ELi0ELin1ELin1EEEEEKSB_EESE_EENS0_10IndexBasedESI_ddE6packetILi16E19__simd128_float64_tEET0_l, symObjAddr: 0x28358, symBinAddr: 0x10002A900, symSize: 0x70 }
  - { offsetInCU: 0x7FE84, offset: 0x7FE84, size: 0x8, addend: 0x0, symName: __ZNK5Eigen8internal16binary_evaluatorINS_13CwiseBinaryOpINS0_17scalar_product_opIddEEKNS_6MatrixIdLin1ELin1ELi0ELin1ELin1EEES7_EENS0_10IndexBasedES9_ddE4Data4funcEv, symObjAddr: 0x283C8, symBinAddr: 0x10002A970, symSize: 0x14 }
  - { offsetInCU: 0x7FEAA, offset: 0x7FEAA, size: 0x8, addend: 0x0, symName: __ZNK5Eigen8internal17scalar_product_opIddE8packetOpI19__simd128_float64_tEET_RKS5_S7_, symObjAddr: 0x283DC, symBinAddr: 0x10002A984, symSize: 0x30 }
  - { offsetInCU: 0x7FEF5, offset: 0x7FEF5, size: 0x8, addend: 0x0, symName: __ZNK5Eigen8internal16binary_evaluatorINS_13CwiseBinaryOpINS0_17scalar_product_opIddEEKNS2_INS0_20scalar_difference_opIddEEKNS_14CwiseNullaryOpINS0_18scalar_constant_opIdEENS_6MatrixIdLin1ELin1ELi0ELin1ELin1EEEEEKSB_EESE_EENS0_10IndexBasedESI_ddE4Data4funcEv, symObjAddr: 0x2840C, symBinAddr: 0x10002A9B4, symSize: 0x14 }
  - { offsetInCU: 0x7FF1B, offset: 0x7FF1B, size: 0x8, addend: 0x0, symName: __ZNK5Eigen8internal16binary_evaluatorINS_13CwiseBinaryOpINS0_20scalar_difference_opIddEEKNS_14CwiseNullaryOpINS0_18scalar_constant_opIdEENS_6MatrixIdLin1ELin1ELi0ELin1ELin1EEEEEKS9_EENS0_10IndexBasedESE_ddE6packetILi16E19__simd128_float64_tEET0_l, symObjAddr: 0x28420, symBinAddr: 0x10002A9C8, symSize: 0x70 }
  - { offsetInCU: 0x7FF63, offset: 0x7FF63, size: 0x8, addend: 0x0, symName: __ZNK5Eigen8internal16binary_evaluatorINS_13CwiseBinaryOpINS0_20scalar_difference_opIddEEKNS_14CwiseNullaryOpINS0_18scalar_constant_opIdEENS_6MatrixIdLin1ELin1ELi0ELin1ELin1EEEEEKS9_EENS0_10IndexBasedESE_ddE4Data4funcEv, symObjAddr: 0x28490, symBinAddr: 0x10002AA38, symSize: 0x14 }
  - { offsetInCU: 0x7FF89, offset: 0x7FF89, size: 0x8, addend: 0x0, symName: __ZN5Eigen8internal31generic_dense_assignment_kernelINS0_9evaluatorINS_6MatrixIdLin1ELin1ELi0ELin1ELin1EEEEENS2_INS_13CwiseBinaryOpINS0_13scalar_sum_opIddEEKNS6_INS0_17scalar_product_opIddEEKS4_SB_EEKNS6_ISA_KNS6_INS0_20scalar_difference_opIddEEKNS_14CwiseNullaryOpINS0_18scalar_constant_opIdEES4_EESB_EESB_EEEEEENS0_9assign_opIddEELi0EE11assignCoeffEl, symObjAddr: 0x284A4, symBinAddr: 0x10002AA4C, symSize: 0x64 }
  - { offsetInCU: 0x7FFBE, offset: 0x7FFBE, size: 0x8, addend: 0x0, symName: __ZNK5Eigen8internal16binary_evaluatorINS_13CwiseBinaryOpINS0_13scalar_sum_opIddEEKNS2_INS0_17scalar_product_opIddEEKNS_6MatrixIdLin1ELin1ELi0ELin1ELin1EEES9_EEKNS2_IS6_KNS2_INS0_20scalar_difference_opIddEEKNS_14CwiseNullaryOpINS0_18scalar_constant_opIdEES8_EES9_EES9_EEEENS0_10IndexBasedESO_ddE5coeffEl, symObjAddr: 0x28508, symBinAddr: 0x10002AAB0, symSize: 0x70 }
  - { offsetInCU: 0x7FFF3, offset: 0x7FFF3, size: 0x8, addend: 0x0, symName: __ZNK5Eigen8internal16binary_evaluatorINS_13CwiseBinaryOpINS0_17scalar_product_opIddEEKNS_6MatrixIdLin1ELin1ELi0ELin1ELin1EEES7_EENS0_10IndexBasedES9_ddE5coeffEl, symObjAddr: 0x28578, symBinAddr: 0x10002AB20, symSize: 0x64 }
  - { offsetInCU: 0x80028, offset: 0x80028, size: 0x8, addend: 0x0, symName: __ZNK5Eigen8internal16binary_evaluatorINS_13CwiseBinaryOpINS0_17scalar_product_opIddEEKNS2_INS0_20scalar_difference_opIddEEKNS_14CwiseNullaryOpINS0_18scalar_constant_opIdEENS_6MatrixIdLin1ELin1ELi0ELin1ELin1EEEEEKSB_EESE_EENS0_10IndexBasedESI_ddE5coeffEl, symObjAddr: 0x285DC, symBinAddr: 0x10002AB84, symSize: 0x6C }
  - { offsetInCU: 0x8005D, offset: 0x8005D, size: 0x8, addend: 0x0, symName: __ZNK5Eigen8internal16binary_evaluatorINS_13CwiseBinaryOpINS0_20scalar_difference_opIddEEKNS_14CwiseNullaryOpINS0_18scalar_constant_opIdEENS_6MatrixIdLin1ELin1ELi0ELin1ELin1EEEEEKS9_EENS0_10IndexBasedESE_ddE5coeffEl, symObjAddr: 0x28648, symBinAddr: 0x10002ABF0, symSize: 0x6C }
  - { offsetInCU: 0x80092, offset: 0x80092, size: 0x8, addend: 0x0, symName: __ZN5Eigen8internal9evaluatorINS_13CwiseBinaryOpINS0_13scalar_sum_opIddEEKNS2_INS0_17scalar_product_opIddEEKNS_6MatrixIdLin1ELin1ELi0ELin1ELin1EEES9_EEKNS2_IS6_KNS2_INS0_20scalar_difference_opIddEEKNS_14CwiseNullaryOpINS0_18scalar_constant_opIdEES8_EES9_EES9_EEEEED2Ev, symObjAddr: 0x286B4, symBinAddr: 0x10002AC5C, symSize: 0x2C }
  - { offsetInCU: 0x800BF, offset: 0x800BF, size: 0x8, addend: 0x0, symName: __ZN5Eigen8internal16binary_evaluatorINS_13CwiseBinaryOpINS0_13scalar_sum_opIddEEKNS2_INS0_17scalar_product_opIddEEKNS_6MatrixIdLin1ELin1ELi0ELin1ELin1EEES9_EEKNS2_IS6_KNS2_INS0_20scalar_difference_opIddEEKNS_14CwiseNullaryOpINS0_18scalar_constant_opIdEES8_EES9_EES9_EEEENS0_10IndexBasedESO_ddED2Ev, symObjAddr: 0x286E0, symBinAddr: 0x10002AC88, symSize: 0x34 }
  - { offsetInCU: 0x800EB, offset: 0x800EB, size: 0x8, addend: 0x0, symName: __ZN5Eigen8internal16binary_evaluatorINS_13CwiseBinaryOpINS0_13scalar_sum_opIddEEKNS2_INS0_17scalar_product_opIddEEKNS_6MatrixIdLin1ELin1ELi0ELin1ELin1EEES9_EEKNS2_IS6_KNS2_INS0_20scalar_difference_opIddEEKNS_14CwiseNullaryOpINS0_18scalar_constant_opIdEES8_EES9_EES9_EEEENS0_10IndexBasedESO_ddE4DataD1Ev, symObjAddr: 0x28714, symBinAddr: 0x10002ACBC, symSize: 0x2C }
  - { offsetInCU: 0x80118, offset: 0x80118, size: 0x8, addend: 0x0, symName: __ZN5Eigen8internal16binary_evaluatorINS_13CwiseBinaryOpINS0_13scalar_sum_opIddEEKNS2_INS0_17scalar_product_opIddEEKNS_6MatrixIdLin1ELin1ELi0ELin1ELin1EEES9_EEKNS2_IS6_KNS2_INS0_20scalar_difference_opIddEEKNS_14CwiseNullaryOpINS0_18scalar_constant_opIdEES8_EES9_EES9_EEEENS0_10IndexBasedESO_ddE4DataD2Ev, symObjAddr: 0x28740, symBinAddr: 0x10002ACE8, symSize: 0x3C }
  - { offsetInCU: 0x80145, offset: 0x80145, size: 0x8, addend: 0x0, symName: __ZN5Eigen8internal9evaluatorIKNS_13CwiseBinaryOpINS0_17scalar_product_opIddEEKNS2_INS0_20scalar_difference_opIddEEKNS_14CwiseNullaryOpINS0_18scalar_constant_opIdEENS_6MatrixIdLin1ELin1ELi0ELin1ELin1EEEEEKSB_EESE_EEED1Ev, symObjAddr: 0x2877C, symBinAddr: 0x10002AD24, symSize: 0x2C }
  - { offsetInCU: 0x80171, offset: 0x80171, size: 0x8, addend: 0x0, symName: __ZN5Eigen8internal9evaluatorIKNS_13CwiseBinaryOpINS0_17scalar_product_opIddEEKNS2_INS0_20scalar_difference_opIddEEKNS_14CwiseNullaryOpINS0_18scalar_constant_opIdEENS_6MatrixIdLin1ELin1ELi0ELin1ELin1EEEEEKSB_EESE_EEED2Ev, symObjAddr: 0x287A8, symBinAddr: 0x10002AD50, symSize: 0x2C }
  - { offsetInCU: 0x8019D, offset: 0x8019D, size: 0x8, addend: 0x0, symName: __ZN5Eigen8internal9evaluatorINS_13CwiseBinaryOpINS0_17scalar_product_opIddEEKNS2_INS0_20scalar_difference_opIddEEKNS_14CwiseNullaryOpINS0_18scalar_constant_opIdEENS_6MatrixIdLin1ELin1ELi0ELin1ELin1EEEEEKSB_EESE_EEED2Ev, symObjAddr: 0x287D4, symBinAddr: 0x10002AD7C, symSize: 0x2C }
  - { offsetInCU: 0x801CA, offset: 0x801CA, size: 0x8, addend: 0x0, symName: __ZN5Eigen8internal16binary_evaluatorINS_13CwiseBinaryOpINS0_17scalar_product_opIddEEKNS2_INS0_20scalar_difference_opIddEEKNS_14CwiseNullaryOpINS0_18scalar_constant_opIdEENS_6MatrixIdLin1ELin1ELi0ELin1ELin1EEEEEKSB_EESE_EENS0_10IndexBasedESI_ddED2Ev, symObjAddr: 0x28800, symBinAddr: 0x10002ADA8, symSize: 0x34 }
  - { offsetInCU: 0x801F6, offset: 0x801F6, size: 0x8, addend: 0x0, symName: __ZN5Eigen8internal16binary_evaluatorINS_13CwiseBinaryOpINS0_17scalar_product_opIddEEKNS2_INS0_20scalar_difference_opIddEEKNS_14CwiseNullaryOpINS0_18scalar_constant_opIdEENS_6MatrixIdLin1ELin1ELi0ELin1ELin1EEEEEKSB_EESE_EENS0_10IndexBasedESI_ddE4DataD1Ev, symObjAddr: 0x28834, symBinAddr: 0x10002ADDC, symSize: 0x2C }
  - { offsetInCU: 0x80223, offset: 0x80223, size: 0x8, addend: 0x0, symName: __ZN5Eigen8internal16binary_evaluatorINS_13CwiseBinaryOpINS0_17scalar_product_opIddEEKNS2_INS0_20scalar_difference_opIddEEKNS_14CwiseNullaryOpINS0_18scalar_constant_opIdEENS_6MatrixIdLin1ELin1ELi0ELin1ELin1EEEEEKSB_EESE_EENS0_10IndexBasedESI_ddE4DataD2Ev, symObjAddr: 0x28860, symBinAddr: 0x10002AE08, symSize: 0x3C }
  - { offsetInCU: 0x80250, offset: 0x80250, size: 0x8, addend: 0x0, symName: __ZN5Eigen6MatrixIdLin1ELin1ELi0ELin1ELin1EEC2INS_14CwiseNullaryOpINS_8internal16scalar_random_opIdEES1_EEEERKNS_9EigenBaseIT_EE, symObjAddr: 0x2889C, symBinAddr: 0x10002AE44, symSize: 0x40 }
  - { offsetInCU: 0x80292, offset: 0x80292, size: 0x8, addend: 0x0, symName: __ZN5Eigen15PlainObjectBaseINS_6MatrixIdLin1ELin1ELi0ELin1ELin1EEEEC2INS_14CwiseNullaryOpINS_8internal16scalar_random_opIdEES2_EEEERKNS_9DenseBaseIT_EE, symObjAddr: 0x288DC, symBinAddr: 0x10002AE84, symSize: 0x80 }
  - { offsetInCU: 0x802D4, offset: 0x802D4, size: 0x8, addend: 0x0, symName: __ZN5Eigen15PlainObjectBaseINS_6MatrixIdLin1ELin1ELi0ELin1ELin1EEEE10resizeLikeINS_14CwiseNullaryOpINS_8internal16scalar_random_opIdEES2_EEEEvRKNS_9EigenBaseIT_EE, symObjAddr: 0x2895C, symBinAddr: 0x10002AF04, symSize: 0x11C }
  - { offsetInCU: 0x80368, offset: 0x80368, size: 0x8, addend: 0x0, symName: __ZN5Eigen15PlainObjectBaseINS_6MatrixIdLin1ELin1ELi0ELin1ELin1EEEE12_set_noaliasINS_14CwiseNullaryOpINS_8internal16scalar_random_opIdEES2_EEEERS2_RKNS_9DenseBaseIT_EE, symObjAddr: 0x28A78, symBinAddr: 0x10002B020, symSize: 0x60 }
  - { offsetInCU: 0x803A6, offset: 0x803A6, size: 0x8, addend: 0x0, symName: __ZN5Eigen8internal10AssignmentINS_6MatrixIdLin1ELin1ELi0ELin1ELin1EEENS_14CwiseNullaryOpINS0_16scalar_random_opIdEES3_EENS0_9assign_opIddEENS0_11Dense2DenseEvE3runERS3_RKS7_RKS9_, symObjAddr: 0x28B14, symBinAddr: 0x10002B0BC, symSize: 0x40 }
  - { offsetInCU: 0x803E8, offset: 0x803E8, size: 0x8, addend: 0x0, symName: __ZN5Eigen8internal27checkTransposeAliasing_implINS_6MatrixIdLin1ELin1ELi0ELin1ELin1EEENS_14CwiseNullaryOpINS0_16scalar_random_opIdEES3_EELb0EE3runERKS3_RKS7_, symObjAddr: 0x28C8C, symBinAddr: 0x10002B234, symSize: 0x14 }
  - { offsetInCU: 0x80413, offset: 0x80413, size: 0x8, addend: 0x0, symName: __ZN5Eigen8internal9evaluatorINS_14CwiseNullaryOpINS0_16scalar_random_opIdEENS_6MatrixIdLin1ELin1ELi0ELin1ELin1EEEEEEC1ERKS7_, symObjAddr: 0x28CA0, symBinAddr: 0x10002B248, symSize: 0x34 }
  - { offsetInCU: 0x80479, offset: 0x80479, size: 0x8, addend: 0x0, symName: __ZN5Eigen8internal31generic_dense_assignment_kernelINS0_9evaluatorINS_6MatrixIdLin1ELin1ELi0ELin1ELin1EEEEENS2_INS_14CwiseNullaryOpINS0_16scalar_random_opIdEES4_EEEENS0_9assign_opIddEELi0EEC1ERS5_RKSA_RKSC_RS4_, symObjAddr: 0x28DCC, symBinAddr: 0x10002B374, symSize: 0x4C }
  - { offsetInCU: 0x804E4, offset: 0x804E4, size: 0x8, addend: 0x0, symName: __ZN5Eigen8internal21dense_assignment_loopINS0_31generic_dense_assignment_kernelINS0_9evaluatorINS_6MatrixIdLin1ELin1ELi0ELin1ELin1EEEEENS3_INS_14CwiseNullaryOpINS0_16scalar_random_opIdEES5_EEEENS0_9assign_opIddEELi0EEELi1ELi0EE3runERSE_, symObjAddr: 0x28E18, symBinAddr: 0x10002B3C0, symSize: 0x68 }
  - { offsetInCU: 0x80534, offset: 0x80534, size: 0x8, addend: 0x0, symName: __ZN5Eigen8internal9evaluatorINS_14CwiseNullaryOpINS0_16scalar_random_opIdEENS_6MatrixIdLin1ELin1ELi0ELin1ELin1EEEEEED1Ev, symObjAddr: 0x28E80, symBinAddr: 0x10002B428, symSize: 0x2C }
  - { offsetInCU: 0x80560, offset: 0x80560, size: 0x8, addend: 0x0, symName: __ZN5Eigen8internal31generic_dense_assignment_kernelINS0_9evaluatorINS_6MatrixIdLin1ELin1ELi0ELin1ELin1EEEEENS2_INS_14CwiseNullaryOpINS0_16scalar_random_opIdEES4_EEEENS0_9assign_opIddEELi0EEC2ERS5_RKSA_RKSC_RS4_, symObjAddr: 0x28EAC, symBinAddr: 0x10002B454, symSize: 0x44 }
  - { offsetInCU: 0x805C6, offset: 0x805C6, size: 0x8, addend: 0x0, symName: __ZNK5Eigen8internal31generic_dense_assignment_kernelINS0_9evaluatorINS_6MatrixIdLin1ELin1ELi0ELin1ELin1EEEEENS2_INS_14CwiseNullaryOpINS0_16scalar_random_opIdEES4_EEEENS0_9assign_opIddEELi0EE4sizeEv, symObjAddr: 0x28EF0, symBinAddr: 0x10002B498, symSize: 0x28 }
  - { offsetInCU: 0x805EC, offset: 0x805EC, size: 0x8, addend: 0x0, symName: __ZN5Eigen8internal31generic_dense_assignment_kernelINS0_9evaluatorINS_6MatrixIdLin1ELin1ELi0ELin1ELin1EEEEENS2_INS_14CwiseNullaryOpINS0_16scalar_random_opIdEES4_EEEENS0_9assign_opIddEELi0EE11assignCoeffEl, symObjAddr: 0x28F18, symBinAddr: 0x10002B4C0, symSize: 0x64 }
  - { offsetInCU: 0x80621, offset: 0x80621, size: 0x8, addend: 0x0, symName: __ZNSt3__126linear_congruential_engineIjLj48271ELj0ELj2147483647EEC2B8ue170006Ej, symObjAddr: 0x28F7C, symBinAddr: 0x10002B524, symSize: 0x34 }
  - { offsetInCU: 0x80659, offset: 0x80659, size: 0x8, addend: 0x0, symName: __ZNSt3__126linear_congruential_engineIjLj48271ELj0ELj2147483647EE4seedB8ue170006Ej, symObjAddr: 0x28FB0, symBinAddr: 0x10002B558, symSize: 0x2C }
  - { offsetInCU: 0x8068D, offset: 0x8068D, size: 0x8, addend: 0x0, symName: __ZNSt3__126linear_congruential_engineIjLj48271ELj0ELj2147483647EE4seedB8ue170006ENS_17integral_constantIbLb0EEENS2_IbLb1EEEj, symObjAddr: 0x28FDC, symBinAddr: 0x10002B584, symSize: 0x74 }
  - { offsetInCU: 0x806D8, offset: 0x806D8, size: 0x8, addend: 0x0, symName: __ZNSt3__119normal_distributionIdEC2B8ue170006Edd, symObjAddr: 0x29050, symBinAddr: 0x10002B5F8, symSize: 0x40 }
  - { offsetInCU: 0x8071E, offset: 0x8071E, size: 0x8, addend: 0x0, symName: __ZNSt3__119normal_distributionIdE10param_typeC1B8ue170006Edd, symObjAddr: 0x29090, symBinAddr: 0x10002B638, symSize: 0x3C }
  - { offsetInCU: 0x80764, offset: 0x80764, size: 0x8, addend: 0x0, symName: __ZNSt3__119normal_distributionIdE10param_typeC2B8ue170006Edd, symObjAddr: 0x290CC, symBinAddr: 0x10002B674, symSize: 0x2C }
  - { offsetInCU: 0x807AA, offset: 0x807AA, size: 0x8, addend: 0x0, symName: __ZNSt3__119normal_distributionIdEclINS_26linear_congruential_engineIjLj48271ELj0ELj2147483647EEEEEdRT_RKNS1_10param_typeE, symObjAddr: 0x290F8, symBinAddr: 0x10002B6A0, symSize: 0x164 }
  - { offsetInCU: 0x8087C, offset: 0x8087C, size: 0x8, addend: 0x0, symName: __ZNSt3__125uniform_real_distributionIdEC1B8ue170006Edd, symObjAddr: 0x2925C, symBinAddr: 0x10002B804, symSize: 0x3C }
  - { offsetInCU: 0x808C2, offset: 0x808C2, size: 0x8, addend: 0x0, symName: __ZNSt3__125uniform_real_distributionIdEclB8ue170006INS_26linear_congruential_engineIjLj48271ELj0ELj2147483647EEEEEdRT_, symObjAddr: 0x29298, symBinAddr: 0x10002B840, symSize: 0x30 }
  - { offsetInCU: 0x808FF, offset: 0x808FF, size: 0x8, addend: 0x0, symName: __ZNKSt3__119normal_distributionIdE10param_type6stddevB8ue170006Ev, symObjAddr: 0x292C8, symBinAddr: 0x10002B870, symSize: 0x18 }
  - { offsetInCU: 0x80925, offset: 0x80925, size: 0x8, addend: 0x0, symName: __ZNKSt3__119normal_distributionIdE10param_type4meanB8ue170006Ev, symObjAddr: 0x292E0, symBinAddr: 0x10002B888, symSize: 0x18 }
  - { offsetInCU: 0x8094B, offset: 0x8094B, size: 0x8, addend: 0x0, symName: __ZNSt3__125uniform_real_distributionIdEC2B8ue170006Edd, symObjAddr: 0x292F8, symBinAddr: 0x10002B8A0, symSize: 0x3C }
  - { offsetInCU: 0x80991, offset: 0x80991, size: 0x8, addend: 0x0, symName: __ZNSt3__125uniform_real_distributionIdE10param_typeC1B8ue170006Edd, symObjAddr: 0x29334, symBinAddr: 0x10002B8DC, symSize: 0x3C }
  - { offsetInCU: 0x809D7, offset: 0x809D7, size: 0x8, addend: 0x0, symName: __ZNSt3__125uniform_real_distributionIdE10param_typeC2B8ue170006Edd, symObjAddr: 0x29370, symBinAddr: 0x10002B918, symSize: 0x2C }
  - { offsetInCU: 0x80A1D, offset: 0x80A1D, size: 0x8, addend: 0x0, symName: __ZNSt3__125uniform_real_distributionIdEclINS_26linear_congruential_engineIjLj48271ELj0ELj2147483647EEEEEdRT_RKNS1_10param_typeE, symObjAddr: 0x2939C, symBinAddr: 0x10002B944, symSize: 0x6C }
  - { offsetInCU: 0x80A69, offset: 0x80A69, size: 0x8, addend: 0x0, symName: __ZNKSt3__125uniform_real_distributionIdE10param_type1bB8ue170006Ev, symObjAddr: 0x29408, symBinAddr: 0x10002B9B0, symSize: 0x18 }
  - { offsetInCU: 0x80A8F, offset: 0x80A8F, size: 0x8, addend: 0x0, symName: __ZNKSt3__125uniform_real_distributionIdE10param_type1aB8ue170006Ev, symObjAddr: 0x29420, symBinAddr: 0x10002B9C8, symSize: 0x18 }
  - { offsetInCU: 0x80AB5, offset: 0x80AB5, size: 0x8, addend: 0x0, symName: __ZNSt3__126linear_congruential_engineIjLj48271ELj0ELj2147483647EE3maxB8ue170006Ev, symObjAddr: 0x2954C, symBinAddr: 0x10002BAF4, symSize: 0x8 }
  - { offsetInCU: 0x80AC9, offset: 0x80AC9, size: 0x8, addend: 0x0, symName: __ZNSt3__126linear_congruential_engineIjLj48271ELj0ELj2147483647EE3minB8ue170006Ev, symObjAddr: 0x29554, symBinAddr: 0x10002BAFC, symSize: 0x8 }
  - { offsetInCU: 0x80ADD, offset: 0x80ADD, size: 0x8, addend: 0x0, symName: __ZNSt3__126linear_congruential_engineIjLj48271ELj0ELj2147483647EEclB8ue170006Ev, symObjAddr: 0x2955C, symBinAddr: 0x10002BB04, symSize: 0x34 }
  - { offsetInCU: 0x80B0E, offset: 0x80B0E, size: 0x8, addend: 0x0, symName: __ZNSt3__18__lce_taILy48271ELy0ELy2147483647ELy4294967295ELb1EE4nextB8ue170006Ej, symObjAddr: 0x29590, symBinAddr: 0x10002BB38, symSize: 0x88 }
  - { offsetInCU: 0x80B85, offset: 0x80B85, size: 0x8, addend: 0x0, symName: __ZNK5Eigen9DenseBaseINS_6MatrixIdLin1ELin1ELi0ELin1ELin1EEEE4evalEv, symObjAddr: 0x29B98, symBinAddr: 0x10002C140, symSize: 0x24 }
  - { offsetInCU: 0x80BAB, offset: 0x80BAB, size: 0x8, addend: 0x0, symName: __ZN5Eigen8IOFormatC1EiiRKNSt3__112basic_stringIcNS1_11char_traitsIcEENS1_9allocatorIcEEEES9_S9_S9_S9_S9_c, symObjAddr: 0x29BBC, symBinAddr: 0x10002C164, symSize: 0x88 }
  - { offsetInCU: 0x80C53, offset: 0x80C53, size: 0x8, addend: 0x0, symName: __ZN5Eigen8IOFormatD1Ev, symObjAddr: 0x29C44, symBinAddr: 0x10002C1EC, symSize: 0x2C }
  - { offsetInCU: 0x80C7F, offset: 0x80C7F, size: 0x8, addend: 0x0, symName: __ZN5Eigen8internal25significant_decimals_implIdE3runEv, symObjAddr: 0x29CBC, symBinAddr: 0x10002C264, symSize: 0x14 }
  - { offsetInCU: 0x80C93, offset: 0x80C93, size: 0x8, addend: 0x0, symName: __ZNSt3__18ios_base9precisionB8ue170006El, symObjAddr: 0x29CD0, symBinAddr: 0x10002C278, symSize: 0x2C }
  - { offsetInCU: 0x80DA7, offset: 0x80DA7, size: 0x8, addend: 0x0, symName: __ZNSt3__118basic_stringstreamIcNS_11char_traitsIcEENS_9allocatorIcEEEC1B8ue170006Ev, symObjAddr: 0x29CFC, symBinAddr: 0x10002C2A4, symSize: 0x104 }
  - { offsetInCU: 0x80DD1, offset: 0x80DD1, size: 0x8, addend: 0x0, symName: __ZNK5Eigen15PlainObjectBaseINS_6MatrixIdLin1ELin1ELi0ELin1ELin1EEEE5coeffEll, symObjAddr: 0x29E00, symBinAddr: 0x10002C3A8, symSize: 0x6C }
  - { offsetInCU: 0x80E13, offset: 0x80E13, size: 0x8, addend: 0x0, symName: __ZNKSt3__118basic_stringstreamIcNS_11char_traitsIcEENS_9allocatorIcEEE3strB8ue170006Ev, symObjAddr: 0x29E6C, symBinAddr: 0x10002C414, symSize: 0x30 }
  - { offsetInCU: 0x80E39, offset: 0x80E39, size: 0x8, addend: 0x0, symName: __ZNKSt3__112basic_stringIcNS_11char_traitsIcEENS_9allocatorIcEEE6lengthB8ue170006Ev, symObjAddr: 0x29E9C, symBinAddr: 0x10002C444, symSize: 0x24 }
  - { offsetInCU: 0x80E64, offset: 0x80E64, size: 0x8, addend: 0x0, symName: __ZNSt3__118basic_stringstreamIcNS_11char_traitsIcEENS_9allocatorIcEEED1Ev, symObjAddr: 0x29EC0, symBinAddr: 0x10002C468, symSize: 0x40 }
  - { offsetInCU: 0x80E91, offset: 0x80E91, size: 0x8, addend: 0x0, symName: __ZNSt3__19basic_iosIcNS_11char_traitsIcEEE4fillB8ue170006Ec, symObjAddr: 0x29F00, symBinAddr: 0x10002C4A8, symSize: 0x74 }
  - { offsetInCU: 0x80ED7, offset: 0x80ED7, size: 0x8, addend: 0x0, symName: __ZNKSt3__112basic_stringIcNS_11char_traitsIcEENS_9allocatorIcEEE4dataB8ue170006Ev, symObjAddr: 0x29F74, symBinAddr: 0x10002C51C, symSize: 0x28 }
  - { offsetInCU: 0x80EFD, offset: 0x80EFD, size: 0x8, addend: 0x0, symName: __ZNKSt3__112basic_stringIcNS_11char_traitsIcEENS_9allocatorIcEEE4sizeB8ue170006Ev, symObjAddr: 0x29F9C, symBinAddr: 0x10002C544, symSize: 0x54 }
  - { offsetInCU: 0x80F23, offset: 0x80F23, size: 0x8, addend: 0x0, symName: __ZNKSt3__112basic_stringIcNS_11char_traitsIcEENS_9allocatorIcEEE13__get_pointerB8ue170006Ev, symObjAddr: 0x2A004, symBinAddr: 0x10002C5AC, symSize: 0x54 }
  - { offsetInCU: 0x80F49, offset: 0x80F49, size: 0x8, addend: 0x0, symName: __ZNKSt3__112basic_stringIcNS_11char_traitsIcEENS_9allocatorIcEEE18__get_long_pointerB8ue170006Ev, symObjAddr: 0x2A058, symBinAddr: 0x10002C600, symSize: 0x28 }
  - { offsetInCU: 0x80F6F, offset: 0x80F6F, size: 0x8, addend: 0x0, symName: __ZNKSt3__112basic_stringIcNS_11char_traitsIcEENS_9allocatorIcEEE19__get_short_pointerB8ue170006Ev, symObjAddr: 0x2A080, symBinAddr: 0x10002C628, symSize: 0x28 }
  - { offsetInCU: 0x80F95, offset: 0x80F95, size: 0x8, addend: 0x0, symName: __ZNSt3__114pointer_traitsIPKcE10pointer_toB8ue170006ERS1_, symObjAddr: 0x2A0A8, symBinAddr: 0x10002C650, symSize: 0x14 }
  - { offsetInCU: 0x80FB8, offset: 0x80FB8, size: 0x8, addend: 0x0, symName: __ZNKSt3__112basic_stringIcNS_11char_traitsIcEENS_9allocatorIcEEE15__get_long_sizeB8ue170006Ev, symObjAddr: 0x2A0BC, symBinAddr: 0x10002C664, symSize: 0x28 }
  - { offsetInCU: 0x80FDE, offset: 0x80FDE, size: 0x8, addend: 0x0, symName: __ZNKSt3__112basic_stringIcNS_11char_traitsIcEENS_9allocatorIcEEE16__get_short_sizeB8ue170006Ev, symObjAddr: 0x2A0E4, symBinAddr: 0x10002C68C, symSize: 0x34 }
  - { offsetInCU: 0x81004, offset: 0x81004, size: 0x8, addend: 0x0, symName: __ZN5Eigen16GenericNumTraitsIdE8digits10Ev, symObjAddr: 0x2A118, symBinAddr: 0x10002C6C0, symSize: 0x14 }
  - { offsetInCU: 0x81018, offset: 0x81018, size: 0x8, addend: 0x0, symName: __ZN5Eigen8internal21default_digits10_implIdLb1ELb0EE3runEv, symObjAddr: 0x2A12C, symBinAddr: 0x10002C6D4, symSize: 0x8 }
  - { offsetInCU: 0x8102C, offset: 0x8102C, size: 0x8, addend: 0x0, symName: __ZNSt3__19basic_iosIcNS_11char_traitsIcEEEC2B8ue170006Ev, symObjAddr: 0x2A134, symBinAddr: 0x10002C6DC, symSize: 0x44 }
  - { offsetInCU: 0x81056, offset: 0x81056, size: 0x8, addend: 0x0, symName: __ZNSt3__114basic_iostreamIcNS_11char_traitsIcEEEC2B8ue170006EPNS_15basic_streambufIcS2_EE, symObjAddr: 0x2A178, symBinAddr: 0x10002C720, symSize: 0xAC }
  - { offsetInCU: 0x8109C, offset: 0x8109C, size: 0x8, addend: 0x0, symName: __ZNSt3__115basic_stringbufIcNS_11char_traitsIcEENS_9allocatorIcEEEC1B8ue170006Ej, symObjAddr: 0x2A224, symBinAddr: 0x10002C7CC, symSize: 0x34 }
  - { offsetInCU: 0x810D5, offset: 0x810D5, size: 0x8, addend: 0x0, symName: __ZNSt3__18ios_baseC2B8ue170006Ev, symObjAddr: 0x2A258, symBinAddr: 0x10002C800, symSize: 0x24 }
  - { offsetInCU: 0x810FF, offset: 0x810FF, size: 0x8, addend: 0x0, symName: __ZNSt3__113basic_istreamIcNS_11char_traitsIcEEEC2B8ue170006EPNS_15basic_streambufIcS2_EE, symObjAddr: 0x2A27C, symBinAddr: 0x10002C824, symSize: 0x64 }
  - { offsetInCU: 0x81144, offset: 0x81144, size: 0x8, addend: 0x0, symName: __ZNSt3__113basic_ostreamIcNS_11char_traitsIcEEEC2B8ue170006Ev, symObjAddr: 0x2A2E0, symBinAddr: 0x10002C888, symSize: 0x34 }
  - { offsetInCU: 0x8117B, offset: 0x8117B, size: 0x8, addend: 0x0, symName: __ZNSt3__19basic_iosIcNS_11char_traitsIcEEE4initB8ue170006EPNS_15basic_streambufIcS2_EE, symObjAddr: 0x2A314, symBinAddr: 0x10002C8BC, symSize: 0x44 }
  - { offsetInCU: 0x811B2, offset: 0x811B2, size: 0x8, addend: 0x0, symName: __ZNSt3__115basic_stringbufIcNS_11char_traitsIcEENS_9allocatorIcEEEC2B8ue170006Ej, symObjAddr: 0x2A358, symBinAddr: 0x10002C900, symSize: 0x60 }
  - { offsetInCU: 0x811EB, offset: 0x811EB, size: 0x8, addend: 0x0, symName: __ZNSt3__112basic_stringIcNS_11char_traitsIcEENS_9allocatorIcEEEC1B8ue170006Ev, symObjAddr: 0x2A3B8, symBinAddr: 0x10002C960, symSize: 0x2C }
  - { offsetInCU: 0x81215, offset: 0x81215, size: 0x8, addend: 0x0, symName: __ZNSt3__112basic_stringIcNS_11char_traitsIcEENS_9allocatorIcEEEC2B8ue170006Ev, symObjAddr: 0x2A3E4, symBinAddr: 0x10002C98C, symSize: 0x48 }
  - { offsetInCU: 0x8123F, offset: 0x8123F, size: 0x8, addend: 0x0, symName: __ZNSt3__112basic_stringIcNS_11char_traitsIcEENS_9allocatorIcEEE14__default_initB8ue170006Ev, symObjAddr: 0x2A42C, symBinAddr: 0x10002C9D4, symSize: 0x40 }
  - { offsetInCU: 0x81265, offset: 0x81265, size: 0x8, addend: 0x0, symName: __ZNSt3__118basic_stringstreamIcNS_11char_traitsIcEENS_9allocatorIcEEED2Ev, symObjAddr: 0x2A46C, symBinAddr: 0x10002CA14, symSize: 0x6C }
  - { offsetInCU: 0x8129F, offset: 0x8129F, size: 0x8, addend: 0x0, symName: __ZThn16_NSt3__118basic_stringstreamIcNS_11char_traitsIcEENS_9allocatorIcEEED1Ev, symObjAddr: 0x2A4D8, symBinAddr: 0x10002CA80, symSize: 0x1C }
  - { offsetInCU: 0x812B6, offset: 0x812B6, size: 0x8, addend: 0x0, symName: __ZTv0_n24_NSt3__118basic_stringstreamIcNS_11char_traitsIcEENS_9allocatorIcEEED1Ev, symObjAddr: 0x2A4F4, symBinAddr: 0x10002CA9C, symSize: 0x28 }
  - { offsetInCU: 0x812D2, offset: 0x812D2, size: 0x8, addend: 0x0, symName: __ZNSt3__115basic_stringbufIcNS_11char_traitsIcEENS_9allocatorIcEEED1Ev, symObjAddr: 0x2A51C, symBinAddr: 0x10002CAC4, symSize: 0x2C }
  - { offsetInCU: 0x812FF, offset: 0x812FF, size: 0x8, addend: 0x0, symName: __ZNSt3__115basic_stringbufIcNS_11char_traitsIcEENS_9allocatorIcEEED2Ev, symObjAddr: 0x2A548, symBinAddr: 0x10002CAF0, symSize: 0x48 }
  - { offsetInCU: 0x8132C, offset: 0x8132C, size: 0x8, addend: 0x0, symName: __ZN5Eigen8IOFormatC2EiiRKNSt3__112basic_stringIcNS1_11char_traitsIcEENS1_9allocatorIcEEEES9_S9_S9_S9_S9_c, symObjAddr: 0x2A590, symBinAddr: 0x10002CB38, symSize: 0x284 }
  - { offsetInCU: 0x813EB, offset: 0x813EB, size: 0x8, addend: 0x0, symName: __ZNSt3__112basic_stringIcNS_11char_traitsIcEENS_9allocatorIcEEEixB8ue170006Em, symObjAddr: 0x2A814, symBinAddr: 0x10002CDBC, symSize: 0x30 }
  - { offsetInCU: 0x81420, offset: 0x81420, size: 0x8, addend: 0x0, symName: __ZNSt3__112basic_stringIcNS_11char_traitsIcEENS_9allocatorIcEEEpLB8ue170006Ec, symObjAddr: 0x2A844, symBinAddr: 0x10002CDEC, symSize: 0x34 }
  - { offsetInCU: 0x81455, offset: 0x81455, size: 0x8, addend: 0x0, symName: __ZN5Eigen8IOFormatD2Ev, symObjAddr: 0x2A878, symBinAddr: 0x10002CE20, symSize: 0x74 }
  - { offsetInCU: 0x81481, offset: 0x81481, size: 0x8, addend: 0x0, symName: __ZN5Eigen16CommaInitializerINS_6MatrixIdLin1ELin1ELi0ELin1ELin1EEEEC1ERS2_RKd, symObjAddr: 0x2A8EC, symBinAddr: 0x10002CE94, symSize: 0x3C }
  - { offsetInCU: 0x814C7, offset: 0x814C7, size: 0x8, addend: 0x0, symName: __ZN5Eigen16CommaInitializerINS_6MatrixIdLin1ELin1ELi0ELin1ELin1EEEEC2ERS2_RKd, symObjAddr: 0x2A928, symBinAddr: 0x10002CED0, symSize: 0xF8 }
  - { offsetInCU: 0x8150D, offset: 0x8150D, size: 0x8, addend: 0x0, symName: __ZN5Eigen16CommaInitializerINS_6MatrixIdLin1ELin1ELi0ELin1ELin1EEEED2Ev, symObjAddr: 0x2AA20, symBinAddr: 0x10002CFC8, symSize: 0x34 }
  - { offsetInCU: 0x81537, offset: 0x81537, size: 0x8, addend: 0x0, symName: __ZN5Eigen16CommaInitializerINS_6MatrixIdLin1ELin1ELi0ELin1ELin1EEEE8finishedEv, symObjAddr: 0x2AA54, symBinAddr: 0x10002CFFC, symSize: 0xE8 }
  - { offsetInCU: 0x44, offset: 0x8204E, size: 0x8, addend: 0x0, symName: __ZN5EigenL4lastE, symObjAddr: 0x722A0, symBinAddr: 0x100044A00, symSize: 0x0 }
  - { offsetInCU: 0xB3, offset: 0x820BD, size: 0x8, addend: 0x0, symName: __ZN5EigenL6lastp1E, symObjAddr: 0x722A1, symBinAddr: 0x100044A01, symSize: 0x0 }
  - { offsetInCU: 0xCC, offset: 0x820D6, size: 0x8, addend: 0x0, symName: __ZN5EigenL3allE, symObjAddr: 0x722A4, symBinAddr: 0x100044A04, symSize: 0x0 }
  - { offsetInCU: 0xE5, offset: 0x820EF, size: 0x8, addend: 0x0, symName: __ZN5EigenL3fixILi1EEE, symObjAddr: 0x722A3, symBinAddr: 0x100044A03, symSize: 0x0 }
  - { offsetInCU: 0x88F9, offset: 0x8A903, size: 0x8, addend: 0x0, symName: __ZNSt3__1neB8ue170006IPP5SnakeEEbRKNS_11__wrap_iterIT_EES8_, symObjAddr: 0x8F8, symBinAddr: 0x10002D9EC, symSize: 0x34 }
  - { offsetInCU: 0x893C, offset: 0x8A946, size: 0x8, addend: 0x0, symName: __ZNSt3__13maxB8ue170006IsEERKT_S3_S3_, symObjAddr: 0x2DD8, symBinAddr: 0x10002FC24, symSize: 0x2C }
  - { offsetInCU: 0x897F, offset: 0x8A989, size: 0x8, addend: 0x0, symName: __ZNSt3__113__countl_zeroB8ue170006IjEEiT_, symObjAddr: 0x3540, symBinAddr: 0x100030170, symSize: 0x54 }
  - { offsetInCU: 0x89B4, offset: 0x8A9BE, size: 0x8, addend: 0x0, symName: __ZNSt3__112__libcpp_clzB8ue170006Ej, symObjAddr: 0x39D8, symBinAddr: 0x100030608, symSize: 0x18 }
  - { offsetInCU: 0x89E0, offset: 0x8A9EA, size: 0x8, addend: 0x0, symName: __ZNSt3__1eqB8ue170006IPP5SnakeEEbRKNS_11__wrap_iterIT_EES8_, symObjAddr: 0x39F8, symBinAddr: 0x100030628, symSize: 0x48 }
  - { offsetInCU: 0x8A23, offset: 0x8AA2D, size: 0x8, addend: 0x0, symName: __ZNSt3__122__make_exception_guardB8ue170006INS_6vectorIN6global8PositionENS_9allocatorIS3_EEE16__destroy_vectorEEENS_28__exception_guard_exceptionsIT_EES9_, symObjAddr: 0x42A0, symBinAddr: 0x100030B48, symSize: 0x40 }
  - { offsetInCU: 0x8A58, offset: 0x8AA62, size: 0x8, addend: 0x0, symName: __ZNSt3__119__allocate_at_leastB8ue170006INS_9allocatorIN6global8PositionEEEEENS_19__allocation_resultINS_16allocator_traitsIT_E7pointerEEERS7_m, symObjAddr: 0x4588, symBinAddr: 0x100030DDC, symSize: 0x40 }
  - { offsetInCU: 0x8A9B, offset: 0x8AAA5, size: 0x8, addend: 0x0, symName: __ZNSt3__13minB8ue170006ImEERKT_S3_S3_, symObjAddr: 0x46C4, symBinAddr: 0x100030EF0, symSize: 0x2C }
  - { offsetInCU: 0x8CE1, offset: 0x8ACEB, size: 0x8, addend: 0x0, symName: __ZNSt3__13minB8ue170006ImNS_6__lessIvvEEEERKT_S5_S5_T0_, symObjAddr: 0x4728, symBinAddr: 0x100030F54, symSize: 0x54 }
  - { offsetInCU: 0x8E13, offset: 0x8AE1D, size: 0x8, addend: 0x0, symName: __ZNSt3__120__throw_length_errorB8ue170006EPKc, symObjAddr: 0x47CC, symBinAddr: 0x100030FF8, symSize: 0x64 }
  - { offsetInCU: 0x8E3E, offset: 0x8AE48, size: 0x8, addend: 0x0, symName: __ZNSt3__117__libcpp_allocateB8ue170006Emm, symObjAddr: 0x493C, symBinAddr: 0x100031168, symSize: 0x60 }
  - { offsetInCU: 0x8E98, offset: 0x8AEA2, size: 0x8, addend: 0x0, symName: __ZNSt3__121__libcpp_operator_newB8ue170006IJmSt11align_val_tEEEPvDpT_, symObjAddr: 0x49BC, symBinAddr: 0x1000311C8, symSize: 0x2C }
  - { offsetInCU: 0x8EE8, offset: 0x8AEF2, size: 0x8, addend: 0x0, symName: __ZNSt3__121__libcpp_operator_newB8ue170006IJmEEEPvDpT_, symObjAddr: 0x49E8, symBinAddr: 0x1000311F4, symSize: 0x24 }
  - { offsetInCU: 0x8F23, offset: 0x8AF2D, size: 0x8, addend: 0x0, symName: __ZNSt3__130__uninitialized_allocator_copyB8ue170006INS_9allocatorIN6global8PositionEEEPS3_S5_S5_EET2_RT_T0_T1_S6_, symObjAddr: 0x4BB4, symBinAddr: 0x10003128C, symSize: 0x80 }
  - { offsetInCU: 0x8FC0, offset: 0x8AFCA, size: 0x8, addend: 0x0, symName: __ZNSt3__114__unwrap_rangeB8ue170006IPN6global8PositionES3_EENS_4pairIT0_S5_EET_S7_, symObjAddr: 0x4CA4, symBinAddr: 0x10003137C, symSize: 0x60 }
  - { offsetInCU: 0x900C, offset: 0x8B016, size: 0x8, addend: 0x0, symName: __ZNSt3__135__uninitialized_allocator_copy_implB8ue170006INS_9allocatorIN6global8PositionEEES3_S3_S3_LPv0EEEPT2_RT_PT0_SB_S7_, symObjAddr: 0x4D04, symBinAddr: 0x1000313DC, symSize: 0x38 }
  - { offsetInCU: 0x908E, offset: 0x8B098, size: 0x8, addend: 0x0, symName: __ZNSt3__113__unwrap_iterB8ue170006IPN6global8PositionENS_18__unwrap_iter_implIS3_Lb1EEELi0EEEDTclsrT0_8__unwrapclsr3stdE7declvalIT_EEEES7_, symObjAddr: 0x4D3C, symBinAddr: 0x100031414, symSize: 0x24 }
  - { offsetInCU: 0x90D3, offset: 0x8B0DD, size: 0x8, addend: 0x0, symName: __ZNSt3__113__rewrap_iterB8ue170006IPN6global8PositionES3_NS_18__unwrap_iter_implIS3_Lb1EEEEET_S6_T0_, symObjAddr: 0x4D60, symBinAddr: 0x100031438, symSize: 0x3C }
  - { offsetInCU: 0x9128, offset: 0x8B132, size: 0x8, addend: 0x0, symName: __ZNSt3__19make_pairB8ue170006IPN6global8PositionES3_EENS_4pairINS_18__unwrap_ref_decayIT_E4typeENS5_IT0_E4typeEEEOS6_OS9_, symObjAddr: 0x4D9C, symBinAddr: 0x100031474, symSize: 0x38 }
  - { offsetInCU: 0x927C, offset: 0x8B286, size: 0x8, addend: 0x0, symName: __ZNSt3__14copyB8ue170006IPN6global8PositionES3_EET0_T_S5_S4_, symObjAddr: 0x4E44, symBinAddr: 0x10003151C, symSize: 0x40 }
  - { offsetInCU: 0x92D6, offset: 0x8B2E0, size: 0x8, addend: 0x0, symName: __ZNSt3__16__copyB8ue170006INS_17_ClassicAlgPolicyEPN6global8PositionES4_S4_EENS_4pairIT0_T2_EES6_T1_S7_, symObjAddr: 0x4E84, symBinAddr: 0x10003155C, symSize: 0x44 }
  - { offsetInCU: 0x9342, offset: 0x8B34C, size: 0x8, addend: 0x0, symName: __ZNSt3__123__dispatch_copy_or_moveB8ue170006INS_17_ClassicAlgPolicyENS_11__copy_loopIS1_EENS_14__copy_trivialEPN6global8PositionES7_S7_EENS_4pairIT2_T4_EES9_T3_SA_, symObjAddr: 0x4EC8, symBinAddr: 0x1000315A0, symSize: 0x44 }
  - { offsetInCU: 0x93C0, offset: 0x8B3CA, size: 0x8, addend: 0x0, symName: __ZNSt3__121__unwrap_and_dispatchB8ue170006INS_10__overloadINS_11__copy_loopINS_17_ClassicAlgPolicyEEENS_14__copy_trivialEEEPN6global8PositionES9_S9_Li0EEENS_4pairIT0_T2_EESB_T1_SC_, symObjAddr: 0x4F0C, symBinAddr: 0x1000315E4, symSize: 0xB4 }
  - { offsetInCU: 0x9496, offset: 0x8B4A0, size: 0x8, addend: 0x0, symName: __ZNSt3__114__rewrap_rangeB8ue170006IPN6global8PositionES3_EET_S4_T0_, symObjAddr: 0x5008, symBinAddr: 0x1000316E0, symSize: 0x2C }
  - { offsetInCU: 0x94E2, offset: 0x8B4EC, size: 0x8, addend: 0x0, symName: __ZNSt3__119__copy_trivial_implB8ue170006IN6global8PositionES2_EENS_4pairIPT_PT0_EES5_S5_S7_, symObjAddr: 0x5034, symBinAddr: 0x10003170C, symSize: 0x80 }
  - { offsetInCU: 0x954A, offset: 0x8B554, size: 0x8, addend: 0x0, symName: __ZNSt3__119__constexpr_memmoveB8ue170006IN6global8PositionES2_Li0EEEPT_S4_PT0_NS_15__element_countE, symObjAddr: 0x50B4, symBinAddr: 0x10003178C, symSize: 0x64 }
  - { offsetInCU: 0x95B9, offset: 0x8B5C3, size: 0x8, addend: 0x0, symName: __ZNSt3__19make_pairB8ue170006IRPN6global8PositionES3_EENS_4pairINS_18__unwrap_ref_decayIT_E4typeENS6_IT0_E4typeEEEOS7_OSA_, symObjAddr: 0x5118, symBinAddr: 0x1000317F0, symSize: 0x38 }
  - { offsetInCU: 0x965C, offset: 0x8B666, size: 0x8, addend: 0x0, symName: __ZNSt3__13maxB8ue170006IsNS_6__lessIvvEEEERKT_S5_S5_T0_, symObjAddr: 0x5AFC, symBinAddr: 0x10003197C, symSize: 0x54 }
  - { offsetInCU: 0x96B6, offset: 0x8B6C0, size: 0x8, addend: 0x0, symName: __ZNSt3__112__to_addressB8ue170006IP5SnakeEEPT_S4_, symObjAddr: 0x6BF8, symBinAddr: 0x100031ECC, symSize: 0x14 }
  - { offsetInCU: 0x96EB, offset: 0x8B6F5, size: 0x8, addend: 0x0, symName: __ZNSt3__112__to_addressB8ue170006IN6global16LeaderboardEntryEEEPT_S4_, symObjAddr: 0x7354, symBinAddr: 0x100032628, symSize: 0x14 }
  - { offsetInCU: 0x9720, offset: 0x8B72A, size: 0x8, addend: 0x0, symName: __ZNSt3__13maxB8ue170006ImEERKT_S3_S3_, symObjAddr: 0x7758, symBinAddr: 0x100032A2C, symSize: 0x2C }
  - { offsetInCU: 0x9763, offset: 0x8B76D, size: 0x8, addend: 0x0, symName: __ZNSt3__13maxB8ue170006ImNS_6__lessIvvEEEERKT_S5_S5_T0_, symObjAddr: 0x7880, symBinAddr: 0x100032B54, symSize: 0x54 }
  - { offsetInCU: 0x97BD, offset: 0x8B7C7, size: 0x8, addend: 0x0, symName: __ZNSt3__119__allocate_at_leastB8ue170006INS_9allocatorIN6global16LeaderboardEntryEEEEENS_19__allocation_resultINS_16allocator_traitsIT_E7pointerEEERS7_m, symObjAddr: 0x79F0, symBinAddr: 0x100032CC4, symSize: 0x40 }
  - { offsetInCU: 0x9800, offset: 0x8B80A, size: 0x8, addend: 0x0, symName: __ZNSt3__142__uninitialized_allocator_move_if_noexceptB8ue170006INS_9allocatorIN6global16LeaderboardEntryEEENS_16reverse_iteratorIPS3_EES7_S3_vEET1_RT_T0_SB_S8_, symObjAddr: 0x7C7C, symBinAddr: 0x100032F50, symSize: 0x78 }
  - { offsetInCU: 0x987E, offset: 0x8B888, size: 0x8, addend: 0x0, symName: __ZNSt3__14swapB8ue170006IPN6global16LeaderboardEntryEEENS_9enable_ifIXaasr21is_move_constructibleIT_EE5valuesr18is_move_assignableIS5_EE5valueEvE4typeERS5_S8_, symObjAddr: 0x7D40, symBinAddr: 0x100033014, symSize: 0x3C }
  - { offsetInCU: 0x98CF, offset: 0x8B8D9, size: 0x8, addend: 0x0, symName: __ZNSt3__14moveB8ue170006INS_16reverse_iteratorIPN6global16LeaderboardEntryEEES5_EET0_T_S7_S6_, symObjAddr: 0x7E8C, symBinAddr: 0x100033160, symSize: 0x78 }
  - { offsetInCU: 0x9929, offset: 0x8B933, size: 0x8, addend: 0x0, symName: __ZNSt3__16__moveB8ue170006INS_17_ClassicAlgPolicyENS_16reverse_iteratorIPN6global16LeaderboardEntryEEES6_S6_EENS_4pairIT0_T2_EES8_T1_S9_, symObjAddr: 0x7F04, symBinAddr: 0x1000331D8, symSize: 0x64 }
  - { offsetInCU: 0x9995, offset: 0x8B99F, size: 0x8, addend: 0x0, symName: __ZNSt3__123__dispatch_copy_or_moveB8ue170006INS_17_ClassicAlgPolicyENS_11__move_loopIS1_EENS_14__move_trivialENS_16reverse_iteratorIPN6global16LeaderboardEntryEEES9_S9_EENS_4pairIT2_T4_EESB_T3_SC_, symObjAddr: 0x7F68, symBinAddr: 0x10003323C, symSize: 0x64 }
  - { offsetInCU: 0x9A13, offset: 0x8BA1D, size: 0x8, addend: 0x0, symName: __ZNSt3__121__unwrap_and_dispatchB8ue170006INS_10__overloadINS_11__move_loopINS_17_ClassicAlgPolicyEEENS_14__move_trivialEEENS_16reverse_iteratorIPN6global16LeaderboardEntryEEESB_SB_Li0EEENS_4pairIT0_T2_EESD_T1_SE_, symObjAddr: 0x7FCC, symBinAddr: 0x1000332A0, symSize: 0x12C }
  - { offsetInCU: 0x9AA4, offset: 0x8BAAE, size: 0x8, addend: 0x0, symName: __ZNSt3__114__unwrap_rangeB8ue170006INS_16reverse_iteratorIPN6global16LeaderboardEntryEEES5_EENS_4pairIT0_S7_EET_S9_, symObjAddr: 0x80F8, symBinAddr: 0x1000333CC, symSize: 0x84 }
  - { offsetInCU: 0x9C9E, offset: 0x8BCA8, size: 0x8, addend: 0x0, symName: __ZNSt3__113__unwrap_iterB8ue170006INS_16reverse_iteratorIPN6global16LeaderboardEntryEEENS_18__unwrap_iter_implIS5_Lb0EEELi0EEEDTclsrT0_8__unwrapclsr3stdE7declvalIT_EEEES9_, symObjAddr: 0x8224, symBinAddr: 0x1000334F8, symSize: 0x44 }
  - { offsetInCU: 0x9CE3, offset: 0x8BCED, size: 0x8, addend: 0x0, symName: __ZNSt3__19make_pairB8ue170006INS_16reverse_iteratorIPN6global16LeaderboardEntryEEES5_EENS_4pairINS_18__unwrap_ref_decayIT_E4typeENS7_IT0_E4typeEEEOS8_OSB_, symObjAddr: 0x8268, symBinAddr: 0x10003353C, symSize: 0x38 }
  - { offsetInCU: 0x9D32, offset: 0x8BD3C, size: 0x8, addend: 0x0, symName: __ZNSt3__114__rewrap_rangeB8ue170006INS_16reverse_iteratorIPN6global16LeaderboardEntryEEES5_EET_S6_T0_, symObjAddr: 0x82A0, symBinAddr: 0x100033574, symSize: 0x5C }
  - { offsetInCU: 0x9D7E, offset: 0x8BD88, size: 0x8, addend: 0x0, symName: __ZNSt3__113__rewrap_iterB8ue170006INS_16reverse_iteratorIPN6global16LeaderboardEntryEEES5_NS_18__unwrap_iter_implIS5_Lb0EEEEET_S8_T0_, symObjAddr: 0x82FC, symBinAddr: 0x1000335D0, symSize: 0x74 }
  - { offsetInCU: 0x9DD3, offset: 0x8BDDD, size: 0x8, addend: 0x0, symName: __ZNSt3__1neB8ue170006IPN6global16LeaderboardEntryES3_EEbRKNS_16reverse_iteratorIT_EERKNS4_IT0_EE, symObjAddr: 0x8370, symBinAddr: 0x100033644, symSize: 0x48 }
  - { offsetInCU: 0x9F39, offset: 0x8BF43, size: 0x8, addend: 0x0, symName: __ZNSt3__119__allocate_at_leastB8ue170006INS_9allocatorIP5SnakeEEEENS_19__allocation_resultINS_16allocator_traitsIT_E7pointerEEERS7_m, symObjAddr: 0x90DC, symBinAddr: 0x1000343B0, symSize: 0x40 }
  - { offsetInCU: 0x9F7C, offset: 0x8BF86, size: 0x8, addend: 0x0, symName: __ZNSt3__142__uninitialized_allocator_move_if_noexceptB8ue170006INS_9allocatorIP5SnakeEENS_16reverse_iteratorIPS3_EES7_S3_vEET1_RT_T0_SB_S8_, symObjAddr: 0x9290, symBinAddr: 0x100034564, symSize: 0x78 }
  - { offsetInCU: 0x9FFA, offset: 0x8C004, size: 0x8, addend: 0x0, symName: __ZNSt3__14swapB8ue170006IPP5SnakeEENS_9enable_ifIXaasr21is_move_constructibleIT_EE5valuesr18is_move_assignableIS5_EE5valueEvE4typeERS5_S8_, symObjAddr: 0x9354, symBinAddr: 0x100034628, symSize: 0x3C }
  - { offsetInCU: 0xA04B, offset: 0x8C055, size: 0x8, addend: 0x0, symName: __ZNSt3__14moveB8ue170006INS_16reverse_iteratorIPP5SnakeEES5_EET0_T_S7_S6_, symObjAddr: 0x943C, symBinAddr: 0x100034710, symSize: 0x78 }
  - { offsetInCU: 0xA0A5, offset: 0x8C0AF, size: 0x8, addend: 0x0, symName: __ZNSt3__16__moveB8ue170006INS_17_ClassicAlgPolicyENS_16reverse_iteratorIPP5SnakeEES6_S6_EENS_4pairIT0_T2_EES8_T1_S9_, symObjAddr: 0x94B4, symBinAddr: 0x100034788, symSize: 0x64 }
  - { offsetInCU: 0xA111, offset: 0x8C11B, size: 0x8, addend: 0x0, symName: __ZNSt3__123__dispatch_copy_or_moveB8ue170006INS_17_ClassicAlgPolicyENS_11__move_loopIS1_EENS_14__move_trivialENS_16reverse_iteratorIPP5SnakeEES9_S9_EENS_4pairIT2_T4_EESB_T3_SC_, symObjAddr: 0x9518, symBinAddr: 0x1000347EC, symSize: 0x64 }
  - { offsetInCU: 0xA18F, offset: 0x8C199, size: 0x8, addend: 0x0, symName: __ZNSt3__121__unwrap_and_dispatchB8ue170006INS_10__overloadINS_11__move_loopINS_17_ClassicAlgPolicyEEENS_14__move_trivialEEENS_16reverse_iteratorIPP5SnakeEESB_SB_Li0EEENS_4pairIT0_T2_EESD_T1_SE_, symObjAddr: 0x957C, symBinAddr: 0x100034850, symSize: 0x12C }
  - { offsetInCU: 0xA220, offset: 0x8C22A, size: 0x8, addend: 0x0, symName: __ZNSt3__114__unwrap_rangeB8ue170006INS_16reverse_iteratorIPP5SnakeEES5_EENS_4pairIT0_S7_EET_S9_, symObjAddr: 0x96A8, symBinAddr: 0x10003497C, symSize: 0x84 }
  - { offsetInCU: 0xA341, offset: 0x8C34B, size: 0x8, addend: 0x0, symName: __ZNSt3__113__unwrap_iterB8ue170006INS_16reverse_iteratorIPP5SnakeEENS_18__unwrap_iter_implIS5_Lb0EEELi0EEEDTclsrT0_8__unwrapclsr3stdE7declvalIT_EEEES9_, symObjAddr: 0x97CC, symBinAddr: 0x100034AA0, symSize: 0x44 }
  - { offsetInCU: 0xA386, offset: 0x8C390, size: 0x8, addend: 0x0, symName: __ZNSt3__19make_pairB8ue170006INS_16reverse_iteratorIPP5SnakeEES5_EENS_4pairINS_18__unwrap_ref_decayIT_E4typeENS7_IT0_E4typeEEEOS8_OSB_, symObjAddr: 0x9810, symBinAddr: 0x100034AE4, symSize: 0x38 }
  - { offsetInCU: 0xA3D5, offset: 0x8C3DF, size: 0x8, addend: 0x0, symName: __ZNSt3__114__rewrap_rangeB8ue170006INS_16reverse_iteratorIPP5SnakeEES5_EET_S6_T0_, symObjAddr: 0x9848, symBinAddr: 0x100034B1C, symSize: 0x5C }
  - { offsetInCU: 0xA421, offset: 0x8C42B, size: 0x8, addend: 0x0, symName: __ZNSt3__113__rewrap_iterB8ue170006INS_16reverse_iteratorIPP5SnakeEES5_NS_18__unwrap_iter_implIS5_Lb0EEEEET_S8_T0_, symObjAddr: 0x98A4, symBinAddr: 0x100034B78, symSize: 0x74 }
  - { offsetInCU: 0xA476, offset: 0x8C480, size: 0x8, addend: 0x0, symName: __ZNSt3__1neB8ue170006IPP5SnakeS3_EEbRKNS_16reverse_iteratorIT_EERKNS4_IT0_EE, symObjAddr: 0x9918, symBinAddr: 0x100034BEC, symSize: 0x48 }
  - { offsetInCU: 0xA530, offset: 0x8C53A, size: 0x8, addend: 0x0, symName: __ZNSt3__13maxB8ue170006IiEERKT_S3_S3_, symObjAddr: 0xA2CC, symBinAddr: 0x1000355A0, symSize: 0x2C }
  - { offsetInCU: 0xA573, offset: 0x8C57D, size: 0x8, addend: 0x0, symName: __ZNSt3__13maxB8ue170006IiNS_6__lessIvvEEEERKT_S5_S5_T0_, symObjAddr: 0xA2F8, symBinAddr: 0x1000355CC, symSize: 0x54 }
  - { offsetInCU: 0xA5CD, offset: 0x8C5D7, size: 0x8, addend: 0x0, symName: __ZNSt3__142__uninitialized_allocator_move_if_noexceptB8ue170006INS_9allocatorIN6global8PositionEEENS_16reverse_iteratorIPS3_EES7_S3_vEET1_RT_T0_SB_S8_, symObjAddr: 0xC354, symBinAddr: 0x100036158, symSize: 0x78 }
  - { offsetInCU: 0xA64B, offset: 0x8C655, size: 0x8, addend: 0x0, symName: __ZNSt3__14swapB8ue170006IPN6global8PositionEEENS_9enable_ifIXaasr21is_move_constructibleIT_EE5valuesr18is_move_assignableIS5_EE5valueEvE4typeERS5_S8_, symObjAddr: 0xC418, symBinAddr: 0x10003621C, symSize: 0x3C }
  - { offsetInCU: 0xA69C, offset: 0x8C6A6, size: 0x8, addend: 0x0, symName: __ZNSt3__14moveB8ue170006INS_16reverse_iteratorIPN6global8PositionEEES5_EET0_T_S7_S6_, symObjAddr: 0xC454, symBinAddr: 0x100036258, symSize: 0x78 }
  - { offsetInCU: 0xA6F6, offset: 0x8C700, size: 0x8, addend: 0x0, symName: __ZNSt3__16__moveB8ue170006INS_17_ClassicAlgPolicyENS_16reverse_iteratorIPN6global8PositionEEES6_S6_EENS_4pairIT0_T2_EES8_T1_S9_, symObjAddr: 0xC4CC, symBinAddr: 0x1000362D0, symSize: 0x64 }
  - { offsetInCU: 0xA762, offset: 0x8C76C, size: 0x8, addend: 0x0, symName: __ZNSt3__123__dispatch_copy_or_moveB8ue170006INS_17_ClassicAlgPolicyENS_11__move_loopIS1_EENS_14__move_trivialENS_16reverse_iteratorIPN6global8PositionEEES9_S9_EENS_4pairIT2_T4_EESB_T3_SC_, symObjAddr: 0xC530, symBinAddr: 0x100036334, symSize: 0x64 }
  - { offsetInCU: 0xA7E0, offset: 0x8C7EA, size: 0x8, addend: 0x0, symName: __ZNSt3__121__unwrap_and_dispatchB8ue170006INS_10__overloadINS_11__move_loopINS_17_ClassicAlgPolicyEEENS_14__move_trivialEEENS_16reverse_iteratorIPN6global8PositionEEESB_SB_Li0EEENS_4pairIT0_T2_EESD_T1_SE_, symObjAddr: 0xC594, symBinAddr: 0x100036398, symSize: 0x12C }
  - { offsetInCU: 0xA871, offset: 0x8C87B, size: 0x8, addend: 0x0, symName: __ZNSt3__114__unwrap_rangeB8ue170006INS_16reverse_iteratorIPN6global8PositionEEES5_EENS_4pairIT0_S7_EET_S9_, symObjAddr: 0xC6C0, symBinAddr: 0x1000364C4, symSize: 0x84 }
  - { offsetInCU: 0xA992, offset: 0x8C99C, size: 0x8, addend: 0x0, symName: __ZNSt3__113__unwrap_iterB8ue170006INS_16reverse_iteratorIPN6global8PositionEEENS_18__unwrap_iter_implIS5_Lb0EEELi0EEEDTclsrT0_8__unwrapclsr3stdE7declvalIT_EEEES9_, symObjAddr: 0xC7E4, symBinAddr: 0x1000365E8, symSize: 0x44 }
  - { offsetInCU: 0xA9D7, offset: 0x8C9E1, size: 0x8, addend: 0x0, symName: __ZNSt3__19make_pairB8ue170006INS_16reverse_iteratorIPN6global8PositionEEES5_EENS_4pairINS_18__unwrap_ref_decayIT_E4typeENS7_IT0_E4typeEEEOS8_OSB_, symObjAddr: 0xC828, symBinAddr: 0x10003662C, symSize: 0x38 }
  - { offsetInCU: 0xAA26, offset: 0x8CA30, size: 0x8, addend: 0x0, symName: __ZNSt3__114__rewrap_rangeB8ue170006INS_16reverse_iteratorIPN6global8PositionEEES5_EET_S6_T0_, symObjAddr: 0xC860, symBinAddr: 0x100036664, symSize: 0x5C }
  - { offsetInCU: 0xAA72, offset: 0x8CA7C, size: 0x8, addend: 0x0, symName: __ZNSt3__113__rewrap_iterB8ue170006INS_16reverse_iteratorIPN6global8PositionEEES5_NS_18__unwrap_iter_implIS5_Lb0EEEEET_S8_T0_, symObjAddr: 0xC8BC, symBinAddr: 0x1000366C0, symSize: 0x74 }
  - { offsetInCU: 0xAAC7, offset: 0x8CAD1, size: 0x8, addend: 0x0, symName: __ZNSt3__1neB8ue170006IPN6global8PositionES3_EEbRKNS_16reverse_iteratorIT_EERKNS4_IT0_EE, symObjAddr: 0xC930, symBinAddr: 0x100036734, symSize: 0x48 }
  - { offsetInCU: 0xAE3D, offset: 0x8CE47, size: 0x8, addend: 0x0, symName: __ZSt28__throw_bad_array_new_lengthB8ue170006v, symObjAddr: 0x4908, symBinAddr: 0x100031134, symSize: 0x34 }
  - { offsetInCU: 0xAE6D, offset: 0x8CE77, size: 0x8, addend: 0x0, symName: __ZN13map_functionsL3rngE, symObjAddr: 0x722A8, symBinAddr: 0x100044A08, symSize: 0x0 }
  - { offsetInCU: 0xAE7A, offset: 0x8CE84, size: 0x8, addend: 0x0, symName: __ZN13map_functions11place_wallsERNSt3__15arrayINS1_IN6global4CellELm70EEELm120EEE, symObjAddr: 0x404, symBinAddr: 0x10002D504, symSize: 0x208 }
  - { offsetInCU: 0xAF04, offset: 0x8CF0E, size: 0x8, addend: 0x0, symName: __ZN13map_functions10place_foodERNSt3__15arrayINS1_IN6global4CellELm70EEELm120EEE, symObjAddr: 0x61C, symBinAddr: 0x10002D71C, symSize: 0x74 }
  - { offsetInCU: 0xAF64, offset: 0x8CF6E, size: 0x8, addend: 0x0, symName: __ZN13map_functions10update_mapERNSt3__15arrayINS1_IN6global4CellELm70EEELm120EEERNS0_6vectorIP5SnakeNS0_9allocatorIS9_EEEE, symObjAddr: 0x10E8, symBinAddr: 0x10002E1DC, symSize: 0xEC }
  - { offsetInCU: 0xAFEE, offset: 0x8CFF8, size: 0x8, addend: 0x0, symName: __ZN13map_functions25get_random_empty_positionERNSt3__15arrayINS1_IN6global4CellELm70EEELm120EEE, symObjAddr: 0x1C90, symBinAddr: 0x10002ED84, symSize: 0x108 }
  - { offsetInCU: 0xB097, offset: 0x8D0A1, size: 0x8, addend: 0x0, symName: __ZN6global4GAME13TRAINING_MODEE, symObjAddr: 0x72C70, symBinAddr: 0x100045DB3, symSize: 0x0 }
  - { offsetInCU: 0xB0B1, offset: 0x8D0BB, size: 0x8, addend: 0x0, symName: __ZN6global4GAME5delayE, symObjAddr: 0xD2D0, symBinAddr: 0x100044020, symSize: 0x0 }
  - { offsetInCU: 0xBFD1, offset: 0x8DFDB, size: 0x8, addend: 0x0, symName: __ZNSt3__124uniform_int_distributionIiEclINS_23mersenne_twister_engineIjLm32ELm624ELm397ELm31ELj2567483615ELm11ELj4294967295ELm7ELj2636928640ELm15ELj4022730752ELm18ELj1812433253EEEEEiRT_RKNS1_10param_typeE, symObjAddr: 0x3328, symBinAddr: 0x10002FF58, symSize: 0x188 }
  - { offsetInCU: 0xC249, offset: 0x8E253, size: 0x8, addend: 0x0, symName: __ZNSt3__16vectorIN6global16LeaderboardEntryENS_9allocatorIS2_EEE26__swap_out_circular_bufferERNS_14__split_bufferIS2_RS4_EE, symObjAddr: 0x7560, symBinAddr: 0x100032834, symSize: 0x110 }
  - { offsetInCU: 0xC2A5, offset: 0x8E2AF, size: 0x8, addend: 0x0, symName: __ZNSt3__16vectorIP5SnakeNS_9allocatorIS2_EEE26__swap_out_circular_bufferERNS_14__split_bufferIS2_RS4_EE, symObjAddr: 0x8D7C, symBinAddr: 0x100034050, symSize: 0x110 }
  - { offsetInCU: 0xC2FC, offset: 0x8E306, size: 0x8, addend: 0x0, symName: __ZNSt3__16vectorIN6global8PositionENS_9allocatorIS2_EEE26__swap_out_circular_bufferERNS_14__split_bufferIS2_RS4_EE, symObjAddr: 0xBFEC, symBinAddr: 0x100035DF0, symSize: 0x110 }
  - { offsetInCU: 0xE4DB, offset: 0x904E5, size: 0x8, addend: 0x0, symName: __ZN4GameC2Ev, symObjAddr: 0x158, symBinAddr: 0x10002D258, symSize: 0x228 }
  - { offsetInCU: 0xE53F, offset: 0x90549, size: 0x8, addend: 0x0, symName: __ZNSt3__16vectorIP5SnakeNS_9allocatorIS2_EEEC1B8ue170006Ev, symObjAddr: 0x380, symBinAddr: 0x10002D480, symSize: 0x2C }
  - { offsetInCU: 0xE569, offset: 0x90573, size: 0x8, addend: 0x0, symName: __ZN7AVLTreeIN6global16LeaderboardEntryEEC1Ev, symObjAddr: 0x3AC, symBinAddr: 0x10002D4AC, symSize: 0x2C }
  - { offsetInCU: 0xE593, offset: 0x9059D, size: 0x8, addend: 0x0, symName: __ZNSt3__15arrayINS0_IN6global4CellELm70EEELm120EEC1Ev, symObjAddr: 0x3D8, symBinAddr: 0x10002D4D8, symSize: 0x2C }
  - { offsetInCU: 0xE5BF, offset: 0x905C9, size: 0x8, addend: 0x0, symName: __ZNSt3__15arrayINS0_IN6global4CellELm70EEELm120EEixB8ue170006Em, symObjAddr: 0x690, symBinAddr: 0x10002D790, symSize: 0x28 }
  - { offsetInCU: 0xE5F3, offset: 0x905FD, size: 0x8, addend: 0x0, symName: __ZNSt3__15arrayIN6global4CellELm70EEixB8ue170006Em, symObjAddr: 0x6B8, symBinAddr: 0x10002D7B8, symSize: 0x20 }
  - { offsetInCU: 0xE627, offset: 0x90631, size: 0x8, addend: 0x0, symName: __ZN7AVLTreeIN6global16LeaderboardEntryEED1Ev, symObjAddr: 0x6D8, symBinAddr: 0x10002D7D8, symSize: 0x2C }
  - { offsetInCU: 0xE651, offset: 0x9065B, size: 0x8, addend: 0x0, symName: __ZNSt3__16vectorIP5SnakeNS_9allocatorIS2_EEED1B8ue170006Ev, symObjAddr: 0x704, symBinAddr: 0x10002D804, symSize: 0x2C }
  - { offsetInCU: 0xE67B, offset: 0x90685, size: 0x8, addend: 0x0, symName: __ZN4GameC1Ev, symObjAddr: 0x730, symBinAddr: 0x10002D830, symSize: 0x2C }
  - { offsetInCU: 0xE6A7, offset: 0x906B1, size: 0x8, addend: 0x0, symName: __ZN4GameD2Ev, symObjAddr: 0x75C, symBinAddr: 0x10002D85C, symSize: 0x10C }
  - { offsetInCU: 0xE724, offset: 0x9072E, size: 0x8, addend: 0x0, symName: __ZN4Game5closeEv, symObjAddr: 0x868, symBinAddr: 0x10002D968, symSize: 0x24 }
  - { offsetInCU: 0xE74C, offset: 0x90756, size: 0x8, addend: 0x0, symName: __ZNSt3__16vectorIP5SnakeNS_9allocatorIS2_EEE5beginB8ue170006Ev, symObjAddr: 0x898, symBinAddr: 0x10002D98C, symSize: 0x30 }
  - { offsetInCU: 0xE774, offset: 0x9077E, size: 0x8, addend: 0x0, symName: __ZNSt3__16vectorIP5SnakeNS_9allocatorIS2_EEE3endB8ue170006Ev, symObjAddr: 0x8C8, symBinAddr: 0x10002D9BC, symSize: 0x30 }
  - { offsetInCU: 0xE79C, offset: 0x907A6, size: 0x8, addend: 0x0, symName: __ZNKSt3__111__wrap_iterIPP5SnakeEdeB8ue170006Ev, symObjAddr: 0x92C, symBinAddr: 0x10002DA20, symSize: 0x18 }
  - { offsetInCU: 0xE7C2, offset: 0x907CC, size: 0x8, addend: 0x0, symName: __ZNSt3__111__wrap_iterIPP5SnakeEppB8ue170006Ev, symObjAddr: 0x944, symBinAddr: 0x10002DA38, symSize: 0x20 }
  - { offsetInCU: 0xE7E8, offset: 0x907F2, size: 0x8, addend: 0x0, symName: __ZN4GameD1Ev, symObjAddr: 0x964, symBinAddr: 0x10002DA58, symSize: 0x2C }
  - { offsetInCU: 0xE814, offset: 0x9081E, size: 0x8, addend: 0x0, symName: __ZN4Game4initEv, symObjAddr: 0x990, symBinAddr: 0x10002DA84, symSize: 0x6C }
  - { offsetInCU: 0xE84A, offset: 0x90854, size: 0x8, addend: 0x0, symName: __ZN4Game10draw_startEv, symObjAddr: 0x9FC, symBinAddr: 0x10002DAF0, symSize: 0x318 }
  - { offsetInCU: 0xE8F1, offset: 0x908FB, size: 0x8, addend: 0x0, symName: __ZN4Game11make_snakesEv, symObjAddr: 0xD14, symBinAddr: 0x10002DE08, symSize: 0x300 }
  - { offsetInCU: 0xE97F, offset: 0x90989, size: 0x8, addend: 0x0, symName: __ZN4Game6updateEv, symObjAddr: 0x1014, symBinAddr: 0x10002E108, symSize: 0xD4 }
  - { offsetInCU: 0xE9F8, offset: 0x90A02, size: 0x8, addend: 0x0, symName: __ZN4Game4drawEv, symObjAddr: 0x11D4, symBinAddr: 0x10002E2C8, symSize: 0x80C }
  - { offsetInCU: 0xEB86, offset: 0x90B90, size: 0x8, addend: 0x0, symName: __ZNKSt3__16vectorIP5SnakeNS_9allocatorIS2_EEE4sizeB8ue170006Ev, symObjAddr: 0x19E0, symBinAddr: 0x10002EAD4, symSize: 0x28 }
  - { offsetInCU: 0xEBAC, offset: 0x90BB6, size: 0x8, addend: 0x0, symName: __ZNSt3__16vectorIP5SnakeNS_9allocatorIS2_EEEixB8ue170006Em, symObjAddr: 0x1A08, symBinAddr: 0x10002EAFC, symSize: 0x24 }
  - { offsetInCU: 0xEBE3, offset: 0x90BED, size: 0x8, addend: 0x0, symName: __ZN7AVLTreeIN6global16LeaderboardEntryEE8toVectorEv, symObjAddr: 0x1A2C, symBinAddr: 0x10002EB20, symSize: 0xAC }
  - { offsetInCU: 0xEC19, offset: 0x90C23, size: 0x8, addend: 0x0, symName: __ZNKSt3__16vectorIN6global16LeaderboardEntryENS_9allocatorIS2_EEE4sizeB8ue170006Ev, symObjAddr: 0x1AD8, symBinAddr: 0x10002EBCC, symSize: 0x28 }
  - { offsetInCU: 0xEC3F, offset: 0x90C49, size: 0x8, addend: 0x0, symName: __ZNSt3__16vectorIN6global16LeaderboardEntryENS_9allocatorIS2_EEEixB8ue170006Em, symObjAddr: 0x1B00, symBinAddr: 0x10002EBF4, symSize: 0x2C }
  - { offsetInCU: 0xEC76, offset: 0x90C80, size: 0x8, addend: 0x0, symName: __ZNSt3__16vectorIN6global16LeaderboardEntryENS_9allocatorIS2_EEED1B8ue170006Ev, symObjAddr: 0x1B2C, symBinAddr: 0x10002EC20, symSize: 0x2C }
  - { offsetInCU: 0xECA0, offset: 0x90CAA, size: 0x8, addend: 0x0, symName: __ZN6global8PositionC1Ess, symObjAddr: 0x1B58, symBinAddr: 0x10002EC4C, symSize: 0x3C }
  - { offsetInCU: 0xECE6, offset: 0x90CF0, size: 0x8, addend: 0x0, symName: __ZNSt3__16vectorIP5SnakeNS_9allocatorIS2_EEE9push_backB8ue170006ERKS2_, symObjAddr: 0x1B94, symBinAddr: 0x10002EC88, symSize: 0x6C }
  - { offsetInCU: 0xED1D, offset: 0x90D27, size: 0x8, addend: 0x0, symName: __ZN7AVLTreeIN6global16LeaderboardEntryEE6insertERKS1_, symObjAddr: 0x1C00, symBinAddr: 0x10002ECF4, symSize: 0x3C }
  - { offsetInCU: 0xED52, offset: 0x90D5C, size: 0x8, addend: 0x0, symName: __ZN6global16LeaderboardEntryC1EPKci5Color, symObjAddr: 0x1C3C, symBinAddr: 0x10002ED30, symSize: 0x54 }
  - { offsetInCU: 0xEDA6, offset: 0x90DB0, size: 0x8, addend: 0x0, symName: __ZN4Game14get_generationEv, symObjAddr: 0x1D98, symBinAddr: 0x10002EE8C, symSize: 0x18 }
  - { offsetInCU: 0xEDCE, offset: 0x90DD8, size: 0x8, addend: 0x0, symName: __ZN4Game11shouldCloseEv, symObjAddr: 0x1DB0, symBinAddr: 0x10002EEA4, symSize: 0x28 }
  - { offsetInCU: 0xEDF6, offset: 0x90E00, size: 0x8, addend: 0x0, symName: __ZN4Game5trainEv, symObjAddr: 0x1DD8, symBinAddr: 0x10002EECC, symSize: 0x58C }
  - { offsetInCU: 0xEEB4, offset: 0x90EBE, size: 0x8, addend: 0x0, symName: __ZN4Game10get_max_wbEv, symObjAddr: 0x2364, symBinAddr: 0x10002F458, symSize: 0x244 }
  - { offsetInCU: 0xEF32, offset: 0x90F3C, size: 0x8, addend: 0x0, symName: __ZN8AI_SnakeC1ERKS_, symObjAddr: 0x2824, symBinAddr: 0x10002F69C, symSize: 0x34 }
  - { offsetInCU: 0xEF67, offset: 0x90F71, size: 0x8, addend: 0x0, symName: __ZN7AVLTreeIN6global16LeaderboardEntryEE6removeERKS1_, symObjAddr: 0x2884, symBinAddr: 0x10002F6D0, symSize: 0x3C }
  - { offsetInCU: 0xEF9C, offset: 0x90FA6, size: 0x8, addend: 0x0, symName: __ZN4Game8spawn_AIEv, symObjAddr: 0x28C0, symBinAddr: 0x10002F70C, symSize: 0xC4 }
  - { offsetInCU: 0xEFFF, offset: 0x91009, size: 0x8, addend: 0x0, symName: __ZN4Game8end_gameEv, symObjAddr: 0x2984, symBinAddr: 0x10002F7D0, symSize: 0x3C }
  - { offsetInCU: 0xF028, offset: 0x91032, size: 0x8, addend: 0x0, symName: __ZN4Game15are_snakes_deadEv, symObjAddr: 0x29C0, symBinAddr: 0x10002F80C, symSize: 0xA4 }
  - { offsetInCU: 0xF06E, offset: 0x91078, size: 0x8, addend: 0x0, symName: __ZN4Game13draw_end_gameEv, symObjAddr: 0x2A64, symBinAddr: 0x10002F8B0, symSize: 0x2D0 }
  - { offsetInCU: 0xF138, offset: 0x91142, size: 0x8, addend: 0x0, symName: __ZN4Game13get_max_scoreEv, symObjAddr: 0x2D34, symBinAddr: 0x10002FB80, symSize: 0xA4 }
  - { offsetInCU: 0xF18D, offset: 0x91197, size: 0x8, addend: 0x0, symName: __ZNSt3__16vectorIN6global8PositionENS_9allocatorIS2_EEE5clearB8ue170006Ev, symObjAddr: 0x2E04, symBinAddr: 0x10002FC50, symSize: 0x44 }
  - { offsetInCU: 0xF1C2, offset: 0x911CC, size: 0x8, addend: 0x0, symName: __ZNSt3__16vectorIN6global8PositionENS_9allocatorIS2_EEE9push_backB8ue170006ERKS2_, symObjAddr: 0x2E48, symBinAddr: 0x10002FC94, symSize: 0x6C }
  - { offsetInCU: 0xF204, offset: 0x9120E, size: 0x8, addend: 0x0, symName: __ZNSt3__15arrayINS0_IN6global4CellELm70EEELm120EEC2Ev, symObjAddr: 0x30D0, symBinAddr: 0x10002FD00, symSize: 0x68 }
  - { offsetInCU: 0xF230, offset: 0x9123A, size: 0x8, addend: 0x0, symName: __ZNSt3__15arrayIN6global4CellELm70EEC1Ev, symObjAddr: 0x3138, symBinAddr: 0x10002FD68, symSize: 0x2C }
  - { offsetInCU: 0xF25C, offset: 0x91266, size: 0x8, addend: 0x0, symName: __ZNSt3__15arrayIN6global4CellELm70EEC2Ev, symObjAddr: 0x3164, symBinAddr: 0x10002FD94, symSize: 0x68 }
  - { offsetInCU: 0xF288, offset: 0x91292, size: 0x8, addend: 0x0, symName: __ZN6global4CellC1Ev, symObjAddr: 0x31CC, symBinAddr: 0x10002FDFC, symSize: 0x2C }
  - { offsetInCU: 0xF2B2, offset: 0x912BC, size: 0x8, addend: 0x0, symName: __ZN6global4CellC2Ev, symObjAddr: 0x31F8, symBinAddr: 0x10002FE28, symSize: 0x20 }
  - { offsetInCU: 0xF2DC, offset: 0x912E6, size: 0x8, addend: 0x0, symName: __ZNSt3__124uniform_int_distributionIiEC1B8ue170006Eii, symObjAddr: 0x3218, symBinAddr: 0x10002FE48, symSize: 0x3C }
  - { offsetInCU: 0xF322, offset: 0x9132C, size: 0x8, addend: 0x0, symName: __ZNSt3__124uniform_int_distributionIiEclB8ue170006INS_23mersenne_twister_engineIjLm32ELm624ELm397ELm31ELj2567483615ELm11ELj4294967295ELm7ELj2636928640ELm15ELj4022730752ELm18ELj1812433253EEEEEiRT_, symObjAddr: 0x3254, symBinAddr: 0x10002FE84, symSize: 0x30 }
  - { offsetInCU: 0xF35F, offset: 0x91369, size: 0x8, addend: 0x0, symName: __ZNSt3__124uniform_int_distributionIiEC2B8ue170006Eii, symObjAddr: 0x3284, symBinAddr: 0x10002FEB4, symSize: 0x3C }
  - { offsetInCU: 0xF3A5, offset: 0x913AF, size: 0x8, addend: 0x0, symName: __ZNSt3__124uniform_int_distributionIiE10param_typeC1B8ue170006Eii, symObjAddr: 0x32C0, symBinAddr: 0x10002FEF0, symSize: 0x3C }
  - { offsetInCU: 0xF3EB, offset: 0x913F5, size: 0x8, addend: 0x0, symName: __ZNSt3__124uniform_int_distributionIiE10param_typeC2B8ue170006Eii, symObjAddr: 0x32FC, symBinAddr: 0x10002FF2C, symSize: 0x2C }
  - { offsetInCU: 0xF431, offset: 0x9143B, size: 0x8, addend: 0x0, symName: __ZNKSt3__124uniform_int_distributionIiE10param_type1bB8ue170006Ev, symObjAddr: 0x34B0, symBinAddr: 0x1000300E0, symSize: 0x18 }
  - { offsetInCU: 0xF457, offset: 0x91461, size: 0x8, addend: 0x0, symName: __ZNKSt3__124uniform_int_distributionIiE10param_type1aB8ue170006Ev, symObjAddr: 0x34C8, symBinAddr: 0x1000300F8, symSize: 0x18 }
  - { offsetInCU: 0xF47D, offset: 0x91487, size: 0x8, addend: 0x0, symName: __ZNSt3__125__independent_bits_engineINS_23mersenne_twister_engineIjLm32ELm624ELm397ELm31ELj2567483615ELm11ELj4294967295ELm7ELj2636928640ELm15ELj4022730752ELm18ELj1812433253EEEjEC1ERS2_m, symObjAddr: 0x34E0, symBinAddr: 0x100030110, symSize: 0x3C }
  - { offsetInCU: 0xF4C4, offset: 0x914CE, size: 0x8, addend: 0x0, symName: __ZNSt3__125__independent_bits_engineINS_23mersenne_twister_engineIjLm32ELm624ELm397ELm31ELj2567483615ELm11ELj4294967295ELm7ELj2636928640ELm15ELj4022730752ELm18ELj1812433253EEEjEclB8ue170006Ev, symObjAddr: 0x351C, symBinAddr: 0x10003014C, symSize: 0x24 }
  - { offsetInCU: 0xF4EA, offset: 0x914F4, size: 0x8, addend: 0x0, symName: __ZNSt3__114numeric_limitsIjE3maxB8ue170006Ev, symObjAddr: 0x3594, symBinAddr: 0x1000301C4, symSize: 0x14 }
  - { offsetInCU: 0xF4FE, offset: 0x91508, size: 0x8, addend: 0x0, symName: __ZNSt3__125__independent_bits_engineINS_23mersenne_twister_engineIjLm32ELm624ELm397ELm31ELj2567483615ELm11ELj4294967295ELm7ELj2636928640ELm15ELj4022730752ELm18ELj1812433253EEEjEC2ERS2_m, symObjAddr: 0x35A8, symBinAddr: 0x1000301D8, symSize: 0x22C }
  - { offsetInCU: 0xF545, offset: 0x9154F, size: 0x8, addend: 0x0, symName: __ZNSt3__125__independent_bits_engineINS_23mersenne_twister_engineIjLm32ELm624ELm397ELm31ELj2567483615ELm11ELj4294967295ELm7ELj2636928640ELm15ELj4022730752ELm18ELj1812433253EEEjE6__evalENS_17integral_constantIbLb0EEE, symObjAddr: 0x37D4, symBinAddr: 0x100030404, symSize: 0x38 }
  - { offsetInCU: 0xF577, offset: 0x91581, size: 0x8, addend: 0x0, symName: __ZNSt3__123mersenne_twister_engineIjLm32ELm624ELm397ELm31ELj2567483615ELm11ELj4294967295ELm7ELj2636928640ELm15ELj4022730752ELm18ELj1812433253EEclEv, symObjAddr: 0x380C, symBinAddr: 0x10003043C, symSize: 0x14C }
  - { offsetInCU: 0xF5EA, offset: 0x915F4, size: 0x8, addend: 0x0, symName: __ZNSt3__123mersenne_twister_engineIjLm32ELm624ELm397ELm31ELj2567483615ELm11ELj4294967295ELm7ELj2636928640ELm15ELj4022730752ELm18ELj1812433253EE8__rshiftB8ue170006ILm1EEENS_9enable_ifIXltT_L_ZNS1_3_DtEEEjE4typeEj, symObjAddr: 0x3958, symBinAddr: 0x100030588, symSize: 0x18 }
  - { offsetInCU: 0xF617, offset: 0x91621, size: 0x8, addend: 0x0, symName: __ZNSt3__123mersenne_twister_engineIjLm32ELm624ELm397ELm31ELj2567483615ELm11ELj4294967295ELm7ELj2636928640ELm15ELj4022730752ELm18ELj1812433253EE8__rshiftB8ue170006ILm11EEENS_9enable_ifIXltT_L_ZNS1_3_DtEEEjE4typeEj, symObjAddr: 0x3970, symBinAddr: 0x1000305A0, symSize: 0x18 }
  - { offsetInCU: 0xF644, offset: 0x9164E, size: 0x8, addend: 0x0, symName: __ZNSt3__123mersenne_twister_engineIjLm32ELm624ELm397ELm31ELj2567483615ELm11ELj4294967295ELm7ELj2636928640ELm15ELj4022730752ELm18ELj1812433253EE8__lshiftB8ue170006ILm7EEENS_9enable_ifIXltT_Lm32EEjE4typeEj, symObjAddr: 0x3988, symBinAddr: 0x1000305B8, symSize: 0x1C }
  - { offsetInCU: 0xF671, offset: 0x9167B, size: 0x8, addend: 0x0, symName: __ZNSt3__123mersenne_twister_engineIjLm32ELm624ELm397ELm31ELj2567483615ELm11ELj4294967295ELm7ELj2636928640ELm15ELj4022730752ELm18ELj1812433253EE8__lshiftB8ue170006ILm15EEENS_9enable_ifIXltT_Lm32EEjE4typeEj, symObjAddr: 0x39A4, symBinAddr: 0x1000305D4, symSize: 0x1C }
  - { offsetInCU: 0xF69E, offset: 0x916A8, size: 0x8, addend: 0x0, symName: __ZNSt3__123mersenne_twister_engineIjLm32ELm624ELm397ELm31ELj2567483615ELm11ELj4294967295ELm7ELj2636928640ELm15ELj4022730752ELm18ELj1812433253EE8__rshiftB8ue170006ILm18EEENS_9enable_ifIXltT_L_ZNS1_3_DtEEEjE4typeEj, symObjAddr: 0x39C0, symBinAddr: 0x1000305F0, symSize: 0x18 }
  - { offsetInCU: 0xF6CB, offset: 0x916D5, size: 0x8, addend: 0x0, symName: __ZNSt3__123__libcpp_numeric_limitsIjLb1EE3maxB8ue170006Ev, symObjAddr: 0x39F0, symBinAddr: 0x100030620, symSize: 0x8 }
  - { offsetInCU: 0xF6DF, offset: 0x916E9, size: 0x8, addend: 0x0, symName: __ZNKSt3__111__wrap_iterIPP5SnakeE4baseB8ue170006Ev, symObjAddr: 0x3A40, symBinAddr: 0x100030670, symSize: 0x18 }
  - { offsetInCU: 0xF705, offset: 0x9170F, size: 0x8, addend: 0x0, symName: __ZN6global8PositionC2Ess, symObjAddr: 0x3A58, symBinAddr: 0x100030688, symSize: 0x2C }
  - { offsetInCU: 0xF74B, offset: 0x91755, size: 0x8, addend: 0x0, symName: __ZN6global16LeaderboardEntryC2EPKci5Color, symObjAddr: 0x3A84, symBinAddr: 0x1000306B4, symSize: 0x5C }
  - { offsetInCU: 0xF79F, offset: 0x917A9, size: 0x8, addend: 0x0, symName: __ZN8AI_SnakeC2ERKS_, symObjAddr: 0x3DAC, symBinAddr: 0x100030710, symSize: 0x130 }
  - { offsetInCU: 0xF7D4, offset: 0x917DE, size: 0x8, addend: 0x0, symName: __ZN5SnakeC2ERKS_, symObjAddr: 0x3EDC, symBinAddr: 0x100030840, symSize: 0x64 }
  - { offsetInCU: 0xF809, offset: 0x91813, size: 0x8, addend: 0x0, symName: __ZNSt3__16vectorIN6global8PositionENS_9allocatorIS2_EEEC1ERKS5_, symObjAddr: 0x3FB4, symBinAddr: 0x1000308A4, symSize: 0x34 }
  - { offsetInCU: 0xF844, offset: 0x9184E, size: 0x8, addend: 0x0, symName: __ZNSt3__16vectorIN6global8PositionENS_9allocatorIS2_EEEC2ERKS5_, symObjAddr: 0x4008, symBinAddr: 0x1000308D8, symSize: 0x94 }
  - { offsetInCU: 0xF889, offset: 0x91893, size: 0x8, addend: 0x0, symName: __ZNSt3__116allocator_traitsINS_9allocatorIN6global8PositionEEEE37select_on_container_copy_constructionB8ue170006IS4_vvEES4_RKS4_, symObjAddr: 0x409C, symBinAddr: 0x10003096C, symSize: 0x10 }
  - { offsetInCU: 0xF8BA, offset: 0x918C4, size: 0x8, addend: 0x0, symName: __ZNKSt3__16vectorIN6global8PositionENS_9allocatorIS2_EEE7__allocB8ue170006Ev, symObjAddr: 0x40AC, symBinAddr: 0x10003097C, symSize: 0x28 }
  - { offsetInCU: 0xF8EC, offset: 0x918F6, size: 0x8, addend: 0x0, symName: __ZNSt3__117__compressed_pairIPN6global8PositionENS_9allocatorIS2_EEEC1B8ue170006IDnS5_EEOT_OT0_, symObjAddr: 0x40D4, symBinAddr: 0x1000309A4, symSize: 0x3C }
  - { offsetInCU: 0xF944, offset: 0x9194E, size: 0x8, addend: 0x0, symName: __ZNSt3__16vectorIN6global8PositionENS_9allocatorIS2_EEE16__init_with_sizeB8ue170006IPS2_S7_EEvT_T0_m, symObjAddr: 0x4110, symBinAddr: 0x1000309E0, symSize: 0xB8 }
  - { offsetInCU: 0xF9B8, offset: 0x919C2, size: 0x8, addend: 0x0, symName: __ZNKSt3__117__compressed_pairIPN6global8PositionENS_9allocatorIS2_EEE6secondB8ue170006Ev, symObjAddr: 0x41F0, symBinAddr: 0x100030A98, symSize: 0x24 }
  - { offsetInCU: 0xF9DE, offset: 0x919E8, size: 0x8, addend: 0x0, symName: __ZNKSt3__122__compressed_pair_elemINS_9allocatorIN6global8PositionEEELi1ELb1EE5__getB8ue170006Ev, symObjAddr: 0x4214, symBinAddr: 0x100030ABC, symSize: 0x14 }
  - { offsetInCU: 0xFA04, offset: 0x91A0E, size: 0x8, addend: 0x0, symName: __ZNSt3__117__compressed_pairIPN6global8PositionENS_9allocatorIS2_EEEC2B8ue170006IDnS5_EEOT_OT0_, symObjAddr: 0x4228, symBinAddr: 0x100030AD0, symSize: 0x44 }
  - { offsetInCU: 0xFA5C, offset: 0x91A66, size: 0x8, addend: 0x0, symName: __ZNSt3__122__compressed_pair_elemIPN6global8PositionELi0ELb0EEC2B8ue170006IDnvEEOT_, symObjAddr: 0x426C, symBinAddr: 0x100030B14, symSize: 0x1C }
  - { offsetInCU: 0xFA9F, offset: 0x91AA9, size: 0x8, addend: 0x0, symName: __ZNSt3__122__compressed_pair_elemINS_9allocatorIN6global8PositionEEELi1ELb1EEC2B8ue170006IS4_vEEOT_, symObjAddr: 0x4288, symBinAddr: 0x100030B30, symSize: 0x18 }
  - { offsetInCU: 0xFAE2, offset: 0x91AEC, size: 0x8, addend: 0x0, symName: __ZNSt3__16vectorIN6global8PositionENS_9allocatorIS2_EEE11__vallocateB8ue170006Em, symObjAddr: 0x4314, symBinAddr: 0x100030B88, symSize: 0xAC }
  - { offsetInCU: 0xFB26, offset: 0x91B30, size: 0x8, addend: 0x0, symName: __ZNSt3__16vectorIN6global8PositionENS_9allocatorIS2_EEE18__construct_at_endIPS2_S7_EEvT_T0_m, symObjAddr: 0x43C0, symBinAddr: 0x100030C34, symSize: 0x8C }
  - { offsetInCU: 0xFB9C, offset: 0x91BA6, size: 0x8, addend: 0x0, symName: __ZNSt3__128__exception_guard_exceptionsINS_6vectorIN6global8PositionENS_9allocatorIS3_EEE16__destroy_vectorEE10__completeB8ue170006Ev, symObjAddr: 0x444C, symBinAddr: 0x100030CC0, symSize: 0x1C }
  - { offsetInCU: 0xFBC2, offset: 0x91BCC, size: 0x8, addend: 0x0, symName: __ZNSt3__128__exception_guard_exceptionsINS_6vectorIN6global8PositionENS_9allocatorIS3_EEE16__destroy_vectorEED1B8ue170006Ev, symObjAddr: 0x4468, symBinAddr: 0x100030CDC, symSize: 0x2C }
  - { offsetInCU: 0xFBEC, offset: 0x91BF6, size: 0x8, addend: 0x0, symName: __ZNSt3__128__exception_guard_exceptionsINS_6vectorIN6global8PositionENS_9allocatorIS3_EEE16__destroy_vectorEEC1B8ue170006ES7_, symObjAddr: 0x4494, symBinAddr: 0x100030D08, symSize: 0x34 }
  - { offsetInCU: 0xFC24, offset: 0x91C2E, size: 0x8, addend: 0x0, symName: __ZNSt3__128__exception_guard_exceptionsINS_6vectorIN6global8PositionENS_9allocatorIS3_EEE16__destroy_vectorEEC2B8ue170006ES7_, symObjAddr: 0x44C8, symBinAddr: 0x100030D3C, symSize: 0x24 }
  - { offsetInCU: 0xFC5C, offset: 0x91C66, size: 0x8, addend: 0x0, symName: __ZNKSt3__16vectorIN6global8PositionENS_9allocatorIS2_EEE8max_sizeEv, symObjAddr: 0x450C, symBinAddr: 0x100030D60, symSize: 0x60 }
  - { offsetInCU: 0xFC84, offset: 0x91C8E, size: 0x8, addend: 0x0, symName: __ZNKSt3__16vectorIN6global8PositionENS_9allocatorIS2_EEE20__throw_length_errorB8ue170006Ev, symObjAddr: 0x456C, symBinAddr: 0x100030DC0, symSize: 0x1C }
  - { offsetInCU: 0xFCAA, offset: 0x91CB4, size: 0x8, addend: 0x0, symName: __ZNSt3__16vectorIN6global8PositionENS_9allocatorIS2_EEE9__end_capB8ue170006Ev, symObjAddr: 0x45F0, symBinAddr: 0x100030E1C, symSize: 0x28 }
  - { offsetInCU: 0xFCD0, offset: 0x91CDA, size: 0x8, addend: 0x0, symName: __ZNKSt3__16vectorIN6global8PositionENS_9allocatorIS2_EEE14__annotate_newB8ue170006Em, symObjAddr: 0x4618, symBinAddr: 0x100030E44, symSize: 0xAC }
  - { offsetInCU: 0xFD05, offset: 0x91D0F, size: 0x8, addend: 0x0, symName: __ZNSt3__116allocator_traitsINS_9allocatorIN6global8PositionEEEE8max_sizeB8ue170006IS4_vEEmRKS4_, symObjAddr: 0x46F0, symBinAddr: 0x100030F1C, symSize: 0x24 }
  - { offsetInCU: 0xFD34, offset: 0x91D3E, size: 0x8, addend: 0x0, symName: __ZNSt3__114numeric_limitsIlE3maxB8ue170006Ev, symObjAddr: 0x4714, symBinAddr: 0x100030F40, symSize: 0x14 }
  - { offsetInCU: 0xFD5C, offset: 0x91D66, size: 0x8, addend: 0x0, symName: __ZNKSt3__16__lessIvvEclB8ue170006ImmEEbRKT_RKT0_, symObjAddr: 0x477C, symBinAddr: 0x100030FA8, symSize: 0x34 }
  - { offsetInCU: 0xFDB0, offset: 0x91DBA, size: 0x8, addend: 0x0, symName: __ZNKSt3__19allocatorIN6global8PositionEE8max_sizeB8ue170006Ev, symObjAddr: 0x47B0, symBinAddr: 0x100030FDC, symSize: 0x14 }
  - { offsetInCU: 0xFDD6, offset: 0x91DE0, size: 0x8, addend: 0x0, symName: __ZNSt3__123__libcpp_numeric_limitsIlLb1EE3maxB8ue170006Ev, symObjAddr: 0x47C4, symBinAddr: 0x100030FF0, symSize: 0x8 }
  - { offsetInCU: 0xFDEA, offset: 0x91DF4, size: 0x8, addend: 0x0, symName: __ZNSt12length_errorC1B8ue170006EPKc, symObjAddr: 0x4830, symBinAddr: 0x10003105C, symSize: 0x34 }
  - { offsetInCU: 0xFE22, offset: 0x91E2C, size: 0x8, addend: 0x0, symName: __ZNSt12length_errorC2B8ue170006EPKc, symObjAddr: 0x4864, symBinAddr: 0x100031090, symSize: 0x4C }
  - { offsetInCU: 0xFE5A, offset: 0x91E64, size: 0x8, addend: 0x0, symName: __ZNSt3__19allocatorIN6global8PositionEE8allocateB8ue170006Em, symObjAddr: 0x48B0, symBinAddr: 0x1000310DC, symSize: 0x58 }
  - { offsetInCU: 0xFE8E, offset: 0x91E98, size: 0x8, addend: 0x0, symName: __ZNSt3__117__compressed_pairIPN6global8PositionENS_9allocatorIS2_EEE5firstB8ue170006Ev, symObjAddr: 0x4A44, symBinAddr: 0x100031218, symSize: 0x24 }
  - { offsetInCU: 0xFEB4, offset: 0x91EBE, size: 0x8, addend: 0x0, symName: __ZNSt3__122__compressed_pair_elemIPN6global8PositionELi0ELb0EE5__getB8ue170006Ev, symObjAddr: 0x4A68, symBinAddr: 0x10003123C, symSize: 0x14 }
  - { offsetInCU: 0xFEF3, offset: 0x91EFD, size: 0x8, addend: 0x0, symName: __ZNSt3__16vectorIN6global8PositionENS_9allocatorIS2_EEE21_ConstructTransactionC1B8ue170006ERS5_m, symObjAddr: 0x4B78, symBinAddr: 0x100031250, symSize: 0x3C }
  - { offsetInCU: 0xFF3B, offset: 0x91F45, size: 0x8, addend: 0x0, symName: __ZNSt3__16vectorIN6global8PositionENS_9allocatorIS2_EEE21_ConstructTransactionD1B8ue170006Ev, symObjAddr: 0x4C34, symBinAddr: 0x10003130C, symSize: 0x2C }
  - { offsetInCU: 0xFF65, offset: 0x91F6F, size: 0x8, addend: 0x0, symName: __ZNSt3__16vectorIN6global8PositionENS_9allocatorIS2_EEE21_ConstructTransactionC2B8ue170006ERS5_m, symObjAddr: 0x4C60, symBinAddr: 0x100031338, symSize: 0x44 }
